ARM GAS  C:\Users\alex\AppData\Local\Temp\ccDWRbTK.s 			page 1


   1              		.syntax unified
   2              		.cpu cortex-m0
   3              		.fpu softvfp
   4              		.eabi_attribute 20, 1
   5              		.eabi_attribute 21, 1
   6              		.eabi_attribute 23, 3
   7              		.eabi_attribute 24, 1
   8              		.eabi_attribute 25, 1
   9              		.eabi_attribute 26, 1
  10              		.eabi_attribute 30, 1
  11              		.eabi_attribute 34, 0
  12              		.eabi_attribute 18, 4
  13              		.thumb
  14              		.syntax unified
  15              		.file	"main.c"
  16              		.text
  17              	.Ltext0:
  18              		.cfi_sections	.debug_frame
  19              		.section	.text.SlowColorBlend,"ax",%progbits
  20              		.align	2
  21              		.global	SlowColorBlend
  22              		.code	16
  23              		.thumb_func
  24              		.type	SlowColorBlend, %function
  25              	SlowColorBlend:
  26              	.LFB36:
  27              		.file 1 "main.c"
   1:main.c        **** /* ========================================
   2:main.c        ****  *
   3:main.c        ****  * EX2_String
   4:main.c        ****  *
   5:main.c        ****  * A simple function to cycle the color table
   6:main.c        ****  * through the string.
   7:main.c        ****  *
   8:main.c        ****  * ========================================
   9:main.c        **** */
  10:main.c        **** #include "project.h"
  11:main.c        **** 
  12:main.c        **** void SlowColorBlend(uint32 delay, uint32 time);
  13:main.c        **** 
  14:main.c        **** int main(void)
  15:main.c        **** {
  16:main.c        ****     CyGlobalIntEnable; /* Enable global interrupts. */
  17:main.c        ****     StripLights_Start();
  18:main.c        ****     
  19:main.c        ****     
  20:main.c        **** 
  21:main.c        ****     /* Place your initialization/startup code here (e.g. MyInst_Start()) */
  22:main.c        **** 
  23:main.c        ****     for(;;)
  24:main.c        ****     {
  25:main.c        ****         SlowColorBlend(0, 10000);
  26:main.c        ****     }
  27:main.c        **** }
  28:main.c        **** 
  29:main.c        **** /************************************************
  30:main.c        ****  *                    SlowColorBlend()
ARM GAS  C:\Users\alex\AppData\Local\Temp\ccDWRbTK.s 			page 2


  31:main.c        ****  *
  32:main.c        ****  *  Slowly migate all the LEDs through the color
  33:main.c        ****  *  table.
  34:main.c        ****  *
  35:main.c        ****  ************************************************/
  36:main.c        **** void SlowColorBlend(uint32 delay, uint32 time)
  37:main.c        **** {
  28              		.loc 1 37 0
  29              		.cfi_startproc
  30              		@ args = 0, pretend = 0, frame = 40
  31              		@ frame_needed = 0, uses_anonymous_args = 0
  32              	.LVL0:
  33 0000 30B5     		push	{r4, r5, lr}
  34              		.cfi_def_cfa_offset 12
  35              		.cfi_offset 4, -12
  36              		.cfi_offset 5, -8
  37              		.cfi_offset 14, -4
  38 0002 8BB0     		sub	sp, sp, #44
  39              		.cfi_def_cfa_offset 56
  40              	.LVL1:
  38:main.c        ****     uint32 timeCnt = 0; 
  39:main.c        ****     uint32 led = 0;
  40:main.c        ****     uint32 x = 0;
  41:main.c        ****     uint32 pct = 0;
  42:main.c        ****     uint32 fromColor, toColor, color;
  43:main.c        ****     extern const uint32 StripLights_CLUT[ ];
  44:main.c        **** 
  45:main.c        ****     StripLights_Dim(0); 
  41              		.loc 1 45 0
  42 0004 0020     		movs	r0, #0
  43              	.LVL2:
  44 0006 FFF7FEFF 		bl	StripLights_Dim
  45              	.LVL3:
  46              	.L14:
  47              	.LBB2:
  46:main.c        **** 
  47:main.c        ****     for(;;)
  48:main.c        ****     {   
  49:main.c        ****        int16 length = 10;
  50:main.c        ****        uint16 arr[] = {0, 1, 2, 12, 13, 14, 15, 17, 18, 19, 20, 28, 29};
  51:main.c        ****         uint16 right_arr[] = {1, 3, 7, 9, 12, 14, 19, 21, 25, 27};
  48              		.loc 1 51 0
  49 000a 3E4C     		ldr	r4, .L15
  50 000c 1422     		movs	r2, #20
  51 000e 2100     		movs	r1, r4
  52 0010 6846     		mov	r0, sp
  53 0012 FFF7FEFF 		bl	memcpy
  54              	.LVL4:
  52:main.c        ****         uint16 left_arr[] = {0, 2, 7, 9, 13, 15, 19, 21, 24, 26};
  55              		.loc 1 52 0
  56 0016 2100     		movs	r1, r4
  57 0018 1431     		adds	r1, r1, #20
  58 001a 1422     		movs	r2, #20
  59 001c 05A8     		add	r0, sp, #20
  60 001e FFF7FEFF 		bl	memcpy
  61              	.LVL5:
  53:main.c        ****         int16 i = 0;
ARM GAS  C:\Users\alex\AppData\Local\Temp\ccDWRbTK.s 			page 3


  62              		.loc 1 53 0
  63 0022 0024     		movs	r4, #0
  54:main.c        ****         while (i < length)
  64              		.loc 1 54 0
  65 0024 0CE0     		b	.L2
  66              	.LVL6:
  67              	.L3:
  55:main.c        ****         {   
  56:main.c        ****             StripLights_Pixel(right_arr[i], 0, StripLights_GREEN);
  68              		.loc 1 56 0
  69 0026 6300     		lsls	r3, r4, #1
  70 0028 6A46     		mov	r2, sp
  71 002a 9D5A     		ldrh	r5, [r3, r2]
  72 002c 5E20     		movs	r0, #94
  73 002e FFF7FEFF 		bl	StripLights_getColor
  74              	.LVL7:
  75 0032 0200     		movs	r2, r0
  76 0034 0021     		movs	r1, #0
  77 0036 2800     		movs	r0, r5
  78 0038 FFF7FEFF 		bl	StripLights_Pixel
  79              	.LVL8:
  57:main.c        ****             i += 1;
  80              		.loc 1 57 0
  81 003c 0134     		adds	r4, r4, #1
  82              	.LVL9:
  83 003e 24B2     		sxth	r4, r4
  84              	.LVL10:
  85              	.L2:
  54:main.c        ****         while (i < length)
  86              		.loc 1 54 0
  87 0040 092C     		cmp	r4, #9
  88 0042 F0DD     		ble	.L3
  89              	.L4:
  58:main.c        ****         }
  59:main.c        ****         while( StripLights_Ready() == 0);
  90              		.loc 1 59 0 discriminator 1
  91 0044 FFF7FEFF 		bl	StripLights_Ready
  92              	.LVL11:
  93 0048 0028     		cmp	r0, #0
  94 004a FBD0     		beq	.L4
  60:main.c        ****         StripLights_Trigger(1);
  95              		.loc 1 60 0
  96 004c 0120     		movs	r0, #1
  97 004e FFF7FEFF 		bl	StripLights_Trigger
  98              	.LVL12:
  61:main.c        ****         CyDelay(500);
  99              		.loc 1 61 0
 100 0052 FA20     		movs	r0, #250
 101 0054 4000     		lsls	r0, r0, #1
 102 0056 FFF7FEFF 		bl	CyDelay
 103              	.LVL13:
  62:main.c        ****         i = 0;
 104              		.loc 1 62 0
 105 005a 0024     		movs	r4, #0
  63:main.c        ****         while (i < length)
 106              		.loc 1 63 0
 107 005c 0CE0     		b	.L5
ARM GAS  C:\Users\alex\AppData\Local\Temp\ccDWRbTK.s 			page 4


 108              	.LVL14:
 109              	.L6:
  64:main.c        ****         {   
  65:main.c        ****             StripLights_Pixel(right_arr[i], 0, StripLights_INVISIBLE);
 110              		.loc 1 65 0
 111 005e 6300     		lsls	r3, r4, #1
 112 0060 6A46     		mov	r2, sp
 113 0062 9D5A     		ldrh	r5, [r3, r2]
 114 0064 6120     		movs	r0, #97
 115 0066 FFF7FEFF 		bl	StripLights_getColor
 116              	.LVL15:
 117 006a 0200     		movs	r2, r0
 118 006c 0021     		movs	r1, #0
 119 006e 2800     		movs	r0, r5
 120 0070 FFF7FEFF 		bl	StripLights_Pixel
 121              	.LVL16:
  66:main.c        ****             i += 1;
 122              		.loc 1 66 0
 123 0074 0134     		adds	r4, r4, #1
 124              	.LVL17:
 125 0076 24B2     		sxth	r4, r4
 126              	.LVL18:
 127              	.L5:
  63:main.c        ****         while (i < length)
 128              		.loc 1 63 0
 129 0078 092C     		cmp	r4, #9
 130 007a F0DD     		ble	.L6
 131              	.L7:
  67:main.c        ****         }
  68:main.c        ****         while( StripLights_Ready() == 0);
 132              		.loc 1 68 0 discriminator 1
 133 007c FFF7FEFF 		bl	StripLights_Ready
 134              	.LVL19:
 135 0080 0028     		cmp	r0, #0
 136 0082 FBD0     		beq	.L7
  69:main.c        ****         StripLights_Trigger(1);
 137              		.loc 1 69 0
 138 0084 0120     		movs	r0, #1
 139 0086 FFF7FEFF 		bl	StripLights_Trigger
 140              	.LVL20:
  70:main.c        ****         CyDelay(500);
 141              		.loc 1 70 0
 142 008a FA20     		movs	r0, #250
 143 008c 4000     		lsls	r0, r0, #1
 144 008e FFF7FEFF 		bl	CyDelay
 145              	.LVL21:
  71:main.c        ****         i = 0;
 146              		.loc 1 71 0
 147 0092 0024     		movs	r4, #0
  72:main.c        ****         while (i < length)
 148              		.loc 1 72 0
 149 0094 0CE0     		b	.L8
 150              	.LVL22:
 151              	.L9:
  73:main.c        ****         {   
  74:main.c        ****             StripLights_Pixel(left_arr[i], 0, StripLights_GREEN);
 152              		.loc 1 74 0
ARM GAS  C:\Users\alex\AppData\Local\Temp\ccDWRbTK.s 			page 5


 153 0096 6200     		lsls	r2, r4, #1
 154 0098 05AB     		add	r3, sp, #20
 155 009a D55A     		ldrh	r5, [r2, r3]
 156 009c 5E20     		movs	r0, #94
 157 009e FFF7FEFF 		bl	StripLights_getColor
 158              	.LVL23:
 159 00a2 0200     		movs	r2, r0
 160 00a4 0021     		movs	r1, #0
 161 00a6 2800     		movs	r0, r5
 162 00a8 FFF7FEFF 		bl	StripLights_Pixel
 163              	.LVL24:
  75:main.c        ****             i += 1;
 164              		.loc 1 75 0
 165 00ac 0134     		adds	r4, r4, #1
 166              	.LVL25:
 167 00ae 24B2     		sxth	r4, r4
 168              	.LVL26:
 169              	.L8:
  72:main.c        ****         while (i < length)
 170              		.loc 1 72 0
 171 00b0 092C     		cmp	r4, #9
 172 00b2 F0DD     		ble	.L9
 173              	.L10:
  76:main.c        ****         }
  77:main.c        ****         while( StripLights_Ready() == 0);
 174              		.loc 1 77 0 discriminator 1
 175 00b4 FFF7FEFF 		bl	StripLights_Ready
 176              	.LVL27:
 177 00b8 0028     		cmp	r0, #0
 178 00ba FBD0     		beq	.L10
  78:main.c        ****         StripLights_Trigger(1);
 179              		.loc 1 78 0
 180 00bc 0120     		movs	r0, #1
 181 00be FFF7FEFF 		bl	StripLights_Trigger
 182              	.LVL28:
  79:main.c        ****         CyDelay(500);
 183              		.loc 1 79 0
 184 00c2 FA20     		movs	r0, #250
 185 00c4 4000     		lsls	r0, r0, #1
 186 00c6 FFF7FEFF 		bl	CyDelay
 187              	.LVL29:
  80:main.c        ****         
  81:main.c        ****         i = 0;
 188              		.loc 1 81 0
 189 00ca 0024     		movs	r4, #0
  82:main.c        ****         while (i < length)
 190              		.loc 1 82 0
 191 00cc 0CE0     		b	.L11
 192              	.LVL30:
 193              	.L12:
  83:main.c        ****         {   
  84:main.c        ****             StripLights_Pixel(left_arr[i], 0, StripLights_INVISIBLE);
 194              		.loc 1 84 0
 195 00ce 6200     		lsls	r2, r4, #1
 196 00d0 05AB     		add	r3, sp, #20
 197 00d2 D55A     		ldrh	r5, [r2, r3]
 198 00d4 6120     		movs	r0, #97
ARM GAS  C:\Users\alex\AppData\Local\Temp\ccDWRbTK.s 			page 6


 199 00d6 FFF7FEFF 		bl	StripLights_getColor
 200              	.LVL31:
 201 00da 0200     		movs	r2, r0
 202 00dc 0021     		movs	r1, #0
 203 00de 2800     		movs	r0, r5
 204 00e0 FFF7FEFF 		bl	StripLights_Pixel
 205              	.LVL32:
  85:main.c        ****             i += 1;
 206              		.loc 1 85 0
 207 00e4 0134     		adds	r4, r4, #1
 208              	.LVL33:
 209 00e6 24B2     		sxth	r4, r4
 210              	.LVL34:
 211              	.L11:
  82:main.c        ****         while (i < length)
 212              		.loc 1 82 0
 213 00e8 092C     		cmp	r4, #9
 214 00ea F0DD     		ble	.L12
 215              	.L13:
  86:main.c        ****         }
  87:main.c        ****         while( StripLights_Ready() == 0);
 216              		.loc 1 87 0 discriminator 1
 217 00ec FFF7FEFF 		bl	StripLights_Ready
 218              	.LVL35:
 219 00f0 0028     		cmp	r0, #0
 220 00f2 FBD0     		beq	.L13
  88:main.c        ****         StripLights_Trigger(1);
 221              		.loc 1 88 0
 222 00f4 0120     		movs	r0, #1
 223 00f6 FFF7FEFF 		bl	StripLights_Trigger
 224              	.LVL36:
  89:main.c        ****         CyDelay(500);
 225              		.loc 1 89 0
 226 00fa FA20     		movs	r0, #250
 227 00fc 4000     		lsls	r0, r0, #1
 228 00fe FFF7FEFF 		bl	CyDelay
 229              	.LVL37:
 230              	.LBE2:
  90:main.c        **** //        while(1)
  91:main.c        **** //        {
  92:main.c        ****            
  93:main.c        **** //            for(pct = 0; pct < 100; pct += 4)
  94:main.c        **** //            {
  95:main.c        **** //                for(led = 0; led <= StripLights_MAX_X; led++)
  96:main.c        **** //                {
  97:main.c        **** // 
  98:main.c        **** //                    fromColor =  StripLights_CLUT[(x + 0 + ((led * StripLights_COLOR_WHEEL_SIZE)/
  99:main.c        **** //                    toColor =  StripLights_CLUT[(x + 1 + ((led * StripLights_COLOR_WHEEL_SIZE)/St
 100:main.c        **** //                    
 101:main.c        **** //                    color = StripLights_RgbBlend(fromColor, toColor, pct);                  
 102:main.c        **** //                    StripLights_Pixel(led, 0, color );
 103:main.c        **** //                }
 104:main.c        **** //                
 105:main.c        **** //                 while( StripLights_Ready() == 0);
 106:main.c        **** //	
 107:main.c        **** //	            StripLights_Trigger(1);
 108:main.c        **** //                CyDelay(delay);
ARM GAS  C:\Users\alex\AppData\Local\Temp\ccDWRbTK.s 			page 7


 109:main.c        **** //
 110:main.c        **** //            }
 111:main.c        **** //            x++;  // Advance through color wheel
 112:main.c        **** //        }
 113:main.c        **** //        timeCnt += delay;
 114:main.c        ****  
 115:main.c        ****      
 116:main.c        **** //     if(SW1_Read() == 0) break;  // If SW1 pressed leave
 117:main.c        **** //         if(timeCnt > time) break;
 118:main.c        ****     }	
 231              		.loc 1 118 0
 232 0102 82E7     		b	.L14
 233              	.L16:
 234              		.align	2
 235              	.L15:
 236 0104 00000000 		.word	.LANCHOR0
 237              		.cfi_endproc
 238              	.LFE36:
 239              		.size	SlowColorBlend, .-SlowColorBlend
 240              		.section	.text.main,"ax",%progbits
 241              		.align	2
 242              		.global	main
 243              		.code	16
 244              		.thumb_func
 245              		.type	main, %function
 246              	main:
 247              	.LFB35:
  15:main.c        ****     CyGlobalIntEnable; /* Enable global interrupts. */
 248              		.loc 1 15 0
 249              		.cfi_startproc
 250              		@ Volatile: function does not return.
 251              		@ args = 0, pretend = 0, frame = 0
 252              		@ frame_needed = 0, uses_anonymous_args = 0
 253 0000 10B5     		push	{r4, lr}
 254              		.cfi_def_cfa_offset 8
 255              		.cfi_offset 4, -8
 256              		.cfi_offset 14, -4
  16:main.c        ****     StripLights_Start();
 257              		.loc 1 16 0
 258              		.syntax divided
 259              	@ 16 "main.c" 1
 260 0002 62B6     		CPSIE   i
 261              	@ 0 "" 2
  17:main.c        ****     
 262              		.loc 1 17 0
 263              		.thumb
 264              		.syntax unified
 265 0004 FFF7FEFF 		bl	StripLights_Start
 266              	.LVL38:
  25:main.c        ****     }
 267              		.loc 1 25 0
 268 0008 0149     		ldr	r1, .L18
 269 000a 0020     		movs	r0, #0
 270 000c FFF7FEFF 		bl	SlowColorBlend
 271              	.LVL39:
 272              	.L19:
 273              		.align	2
ARM GAS  C:\Users\alex\AppData\Local\Temp\ccDWRbTK.s 			page 8


 274              	.L18:
 275 0010 10270000 		.word	10000
 276              		.cfi_endproc
 277              	.LFE35:
 278              		.size	main, .-main
 279              		.section	.rodata
 280              		.align	2
 281              		.set	.LANCHOR0,. + 0
 282              	.LC1:
 283 0000 0100     		.short	1
 284 0002 0300     		.short	3
 285 0004 0700     		.short	7
 286 0006 0900     		.short	9
 287 0008 0C00     		.short	12
 288 000a 0E00     		.short	14
 289 000c 1300     		.short	19
 290 000e 1500     		.short	21
 291 0010 1900     		.short	25
 292 0012 1B00     		.short	27
 293              	.LC2:
 294 0014 0000     		.short	0
 295 0016 0200     		.short	2
 296 0018 0700     		.short	7
 297 001a 0900     		.short	9
 298 001c 0D00     		.short	13
 299 001e 0F00     		.short	15
 300 0020 1300     		.short	19
 301 0022 1500     		.short	21
 302 0024 1800     		.short	24
 303 0026 1A00     		.short	26
 304              		.text
 305              	.Letext0:
 306              		.file 2 "Generated_Source\\PSoC4/cytypes.h"
 307              		.file 3 "Generated_Source\\PSoC4/StripLights.h"
 308              		.file 4 "Generated_Source\\PSoC4/CyLib.h"