ARM GAS  C:\Users\Asus\AppData\Local\Temp\ccaf8y9d.s 			page 1


   1              		.syntax unified
   2              		.cpu cortex-m0
   3              		.fpu softvfp
   4              		.eabi_attribute 20, 1
   5              		.eabi_attribute 21, 1
   6              		.eabi_attribute 23, 3
   7              		.eabi_attribute 24, 1
   8              		.eabi_attribute 25, 1
   9              		.eabi_attribute 26, 1
  10              		.eabi_attribute 30, 1
  11              		.eabi_attribute 34, 0
  12              		.eabi_attribute 18, 4
  13              		.thumb
  14              		.syntax unified
  15              		.file	"I2C_MPU6050_I2C_MASTER.c"
  16              		.text
  17              	.Ltext0:
  18              		.cfi_sections	.debug_frame
  19              		.section	.text.I2C_MPU6050_I2CMasterSendStart,"ax",%progbits
  20              		.align	2
  21              		.global	I2C_MPU6050_I2CMasterSendStart
  22              		.code	16
  23              		.thumb_func
  24              		.type	I2C_MPU6050_I2CMasterSendStart, %function
  25              	I2C_MPU6050_I2CMasterSendStart:
  26              	.LFB4:
  27              		.file 1 "Generated_Source\\PSoC4\\I2C_MPU6050_I2C_MASTER.c"
   1:Generated_Source\PSoC4/I2C_MPU6050_I2C_MASTER.c **** /*******************************************************************************
   2:Generated_Source\PSoC4/I2C_MPU6050_I2C_MASTER.c **** * File Name: I2C_MPU6050_I2C_MASTER.c
   3:Generated_Source\PSoC4/I2C_MPU6050_I2C_MASTER.c **** * Version 1.20
   4:Generated_Source\PSoC4/I2C_MPU6050_I2C_MASTER.c **** *
   5:Generated_Source\PSoC4/I2C_MPU6050_I2C_MASTER.c **** * Description:
   6:Generated_Source\PSoC4/I2C_MPU6050_I2C_MASTER.c **** *  This file provides the source code to the API for the SCB Component in
   7:Generated_Source\PSoC4/I2C_MPU6050_I2C_MASTER.c **** *  I2C Master mode.
   8:Generated_Source\PSoC4/I2C_MPU6050_I2C_MASTER.c **** *
   9:Generated_Source\PSoC4/I2C_MPU6050_I2C_MASTER.c **** * Note:
  10:Generated_Source\PSoC4/I2C_MPU6050_I2C_MASTER.c **** *
  11:Generated_Source\PSoC4/I2C_MPU6050_I2C_MASTER.c **** *******************************************************************************
  12:Generated_Source\PSoC4/I2C_MPU6050_I2C_MASTER.c **** * Copyright 2013-2014, Cypress Semiconductor Corporation.  All rights reserved.
  13:Generated_Source\PSoC4/I2C_MPU6050_I2C_MASTER.c **** * You may use this file only in accordance with the license, terms, conditions,
  14:Generated_Source\PSoC4/I2C_MPU6050_I2C_MASTER.c **** * disclaimers, and limitations in the end user license agreement accompanying
  15:Generated_Source\PSoC4/I2C_MPU6050_I2C_MASTER.c **** * the software package with which this file was provided.
  16:Generated_Source\PSoC4/I2C_MPU6050_I2C_MASTER.c **** *******************************************************************************/
  17:Generated_Source\PSoC4/I2C_MPU6050_I2C_MASTER.c **** 
  18:Generated_Source\PSoC4/I2C_MPU6050_I2C_MASTER.c **** #include "I2C_MPU6050_PVT.h"
  19:Generated_Source\PSoC4/I2C_MPU6050_I2C_MASTER.c **** #include "I2C_MPU6050_I2C_PVT.h"
  20:Generated_Source\PSoC4/I2C_MPU6050_I2C_MASTER.c **** 
  21:Generated_Source\PSoC4/I2C_MPU6050_I2C_MASTER.c **** #if(I2C_MPU6050_I2C_MASTER_CONST)
  22:Generated_Source\PSoC4/I2C_MPU6050_I2C_MASTER.c **** 
  23:Generated_Source\PSoC4/I2C_MPU6050_I2C_MASTER.c **** /***************************************
  24:Generated_Source\PSoC4/I2C_MPU6050_I2C_MASTER.c **** *      I2C Master Private Vars
  25:Generated_Source\PSoC4/I2C_MPU6050_I2C_MASTER.c **** ***************************************/
  26:Generated_Source\PSoC4/I2C_MPU6050_I2C_MASTER.c **** 
  27:Generated_Source\PSoC4/I2C_MPU6050_I2C_MASTER.c **** /* Master variables */
  28:Generated_Source\PSoC4/I2C_MPU6050_I2C_MASTER.c **** volatile uint16 I2C_MPU6050_mstrStatus;      /* Master Status byte  */
  29:Generated_Source\PSoC4/I2C_MPU6050_I2C_MASTER.c **** volatile uint8  I2C_MPU6050_mstrControl;     /* Master Control byte */
  30:Generated_Source\PSoC4/I2C_MPU6050_I2C_MASTER.c **** 
ARM GAS  C:\Users\Asus\AppData\Local\Temp\ccaf8y9d.s 			page 2


  31:Generated_Source\PSoC4/I2C_MPU6050_I2C_MASTER.c **** /* Receive buffer variables */
  32:Generated_Source\PSoC4/I2C_MPU6050_I2C_MASTER.c **** volatile uint8 * I2C_MPU6050_mstrRdBufPtr;   /* Pointer to Master Read buffer */
  33:Generated_Source\PSoC4/I2C_MPU6050_I2C_MASTER.c **** volatile uint32  I2C_MPU6050_mstrRdBufSize;  /* Master Read buffer size       */
  34:Generated_Source\PSoC4/I2C_MPU6050_I2C_MASTER.c **** volatile uint32  I2C_MPU6050_mstrRdBufIndex; /* Master Read buffer Index      */
  35:Generated_Source\PSoC4/I2C_MPU6050_I2C_MASTER.c **** 
  36:Generated_Source\PSoC4/I2C_MPU6050_I2C_MASTER.c **** /* Transmit buffer variables */
  37:Generated_Source\PSoC4/I2C_MPU6050_I2C_MASTER.c **** volatile uint8 * I2C_MPU6050_mstrWrBufPtr;   /* Pointer to Master Write buffer */
  38:Generated_Source\PSoC4/I2C_MPU6050_I2C_MASTER.c **** volatile uint32  I2C_MPU6050_mstrWrBufSize;  /* Master Write buffer size       */
  39:Generated_Source\PSoC4/I2C_MPU6050_I2C_MASTER.c **** volatile uint32  I2C_MPU6050_mstrWrBufIndex; /* Master Write buffer Index      */
  40:Generated_Source\PSoC4/I2C_MPU6050_I2C_MASTER.c **** volatile uint32  I2C_MPU6050_mstrWrBufIndexTmp; /* Master Write buffer Index Tmp */
  41:Generated_Source\PSoC4/I2C_MPU6050_I2C_MASTER.c **** 
  42:Generated_Source\PSoC4/I2C_MPU6050_I2C_MASTER.c **** 
  43:Generated_Source\PSoC4/I2C_MPU6050_I2C_MASTER.c **** /*******************************************************************************
  44:Generated_Source\PSoC4/I2C_MPU6050_I2C_MASTER.c **** * Function Name: I2C_MPU6050_I2CMasterWriteBuf
  45:Generated_Source\PSoC4/I2C_MPU6050_I2C_MASTER.c **** ********************************************************************************
  46:Generated_Source\PSoC4/I2C_MPU6050_I2C_MASTER.c **** *
  47:Generated_Source\PSoC4/I2C_MPU6050_I2C_MASTER.c **** * Summary:
  48:Generated_Source\PSoC4/I2C_MPU6050_I2C_MASTER.c **** * Automatically writes an entire buffer of data to a slave device.
  49:Generated_Source\PSoC4/I2C_MPU6050_I2C_MASTER.c **** * Once the data transfer is initiated by this function, further data transfer
  50:Generated_Source\PSoC4/I2C_MPU6050_I2C_MASTER.c **** * is handled by the included ISR.
  51:Generated_Source\PSoC4/I2C_MPU6050_I2C_MASTER.c **** * Enables the I2C interrupt and clears SCB_ I2C_MSTAT_WR_CMPLT status.
  52:Generated_Source\PSoC4/I2C_MPU6050_I2C_MASTER.c **** *
  53:Generated_Source\PSoC4/I2C_MPU6050_I2C_MASTER.c **** * Parameters:
  54:Generated_Source\PSoC4/I2C_MPU6050_I2C_MASTER.c **** *  slaveAddr: 7-bit slave address.
  55:Generated_Source\PSoC4/I2C_MPU6050_I2C_MASTER.c **** *  xferData:  Pointer to buffer of data to be sent.
  56:Generated_Source\PSoC4/I2C_MPU6050_I2C_MASTER.c **** *  cnt:       Size of buffer to send.
  57:Generated_Source\PSoC4/I2C_MPU6050_I2C_MASTER.c **** *  mode:      Transfer mode defines: start or restart condition generation at
  58:Generated_Source\PSoC4/I2C_MPU6050_I2C_MASTER.c **** *             begin of the transfer and complete the transfer or halt before
  59:Generated_Source\PSoC4/I2C_MPU6050_I2C_MASTER.c **** *             generating a stop.
  60:Generated_Source\PSoC4/I2C_MPU6050_I2C_MASTER.c **** *
  61:Generated_Source\PSoC4/I2C_MPU6050_I2C_MASTER.c **** * Return:
  62:Generated_Source\PSoC4/I2C_MPU6050_I2C_MASTER.c **** *  Error status.
  63:Generated_Source\PSoC4/I2C_MPU6050_I2C_MASTER.c **** *
  64:Generated_Source\PSoC4/I2C_MPU6050_I2C_MASTER.c **** * Global variables:
  65:Generated_Source\PSoC4/I2C_MPU6050_I2C_MASTER.c **** *  I2C_MPU6050_mstrStatus  - used to store current status of I2C Master.
  66:Generated_Source\PSoC4/I2C_MPU6050_I2C_MASTER.c **** *  I2C_MPU6050_state       - used to store current state of software FSM.
  67:Generated_Source\PSoC4/I2C_MPU6050_I2C_MASTER.c **** *  I2C_MPU6050_mstrControl - used to control master end of transaction with
  68:Generated_Source\PSoC4/I2C_MPU6050_I2C_MASTER.c **** *  or without the Stop generation.
  69:Generated_Source\PSoC4/I2C_MPU6050_I2C_MASTER.c **** *  I2C_MPU6050_mstrWrBufPtr - used to store pointer to master write buffer.
  70:Generated_Source\PSoC4/I2C_MPU6050_I2C_MASTER.c **** *  I2C_MPU6050_mstrWrBufIndex - used to current index within master write
  71:Generated_Source\PSoC4/I2C_MPU6050_I2C_MASTER.c **** *  buffer.
  72:Generated_Source\PSoC4/I2C_MPU6050_I2C_MASTER.c **** *  I2C_MPU6050_mstrWrBufSize - used to store master write buffer size.
  73:Generated_Source\PSoC4/I2C_MPU6050_I2C_MASTER.c **** *
  74:Generated_Source\PSoC4/I2C_MPU6050_I2C_MASTER.c **** *******************************************************************************/
  75:Generated_Source\PSoC4/I2C_MPU6050_I2C_MASTER.c **** uint32 I2C_MPU6050_I2CMasterWriteBuf(uint32 slaveAddress, uint8 * wrData, uint32 cnt, uint32 mode)
  76:Generated_Source\PSoC4/I2C_MPU6050_I2C_MASTER.c **** {
  77:Generated_Source\PSoC4/I2C_MPU6050_I2C_MASTER.c ****     uint32 errStatus;
  78:Generated_Source\PSoC4/I2C_MPU6050_I2C_MASTER.c **** 
  79:Generated_Source\PSoC4/I2C_MPU6050_I2C_MASTER.c ****     errStatus = I2C_MPU6050_I2C_MSTR_NOT_READY;
  80:Generated_Source\PSoC4/I2C_MPU6050_I2C_MASTER.c **** 
  81:Generated_Source\PSoC4/I2C_MPU6050_I2C_MASTER.c ****     if(NULL != wrData)  /* Check buffer pointer */
  82:Generated_Source\PSoC4/I2C_MPU6050_I2C_MASTER.c ****     {
  83:Generated_Source\PSoC4/I2C_MPU6050_I2C_MASTER.c ****         /* Check FSM state and bus before generating Start/ReStart condition */
  84:Generated_Source\PSoC4/I2C_MPU6050_I2C_MASTER.c ****         if(I2C_MPU6050_CHECK_I2C_FSM_IDLE)
  85:Generated_Source\PSoC4/I2C_MPU6050_I2C_MASTER.c ****         {
  86:Generated_Source\PSoC4/I2C_MPU6050_I2C_MASTER.c ****             I2C_MPU6050_DisableInt();
  87:Generated_Source\PSoC4/I2C_MPU6050_I2C_MASTER.c **** 
ARM GAS  C:\Users\Asus\AppData\Local\Temp\ccaf8y9d.s 			page 3


  88:Generated_Source\PSoC4/I2C_MPU6050_I2C_MASTER.c ****             /* Check bus state */
  89:Generated_Source\PSoC4/I2C_MPU6050_I2C_MASTER.c ****             errStatus = I2C_MPU6050_CHECK_I2C_STATUS(I2C_MPU6050_I2C_STATUS_BUS_BUSY) ?
  90:Generated_Source\PSoC4/I2C_MPU6050_I2C_MASTER.c ****                             I2C_MPU6050_I2C_MSTR_BUS_BUSY : I2C_MPU6050_I2C_MSTR_NO_ERROR;
  91:Generated_Source\PSoC4/I2C_MPU6050_I2C_MASTER.c ****         }
  92:Generated_Source\PSoC4/I2C_MPU6050_I2C_MASTER.c ****         else if(I2C_MPU6050_CHECK_I2C_FSM_HALT)
  93:Generated_Source\PSoC4/I2C_MPU6050_I2C_MASTER.c ****         {
  94:Generated_Source\PSoC4/I2C_MPU6050_I2C_MASTER.c ****             I2C_MPU6050_mstrStatus &= (uint16) ~I2C_MPU6050_I2C_MSTAT_XFER_HALT;
  95:Generated_Source\PSoC4/I2C_MPU6050_I2C_MASTER.c ****                               errStatus  = I2C_MPU6050_I2C_MSTR_NO_ERROR;
  96:Generated_Source\PSoC4/I2C_MPU6050_I2C_MASTER.c ****         }
  97:Generated_Source\PSoC4/I2C_MPU6050_I2C_MASTER.c ****         else
  98:Generated_Source\PSoC4/I2C_MPU6050_I2C_MASTER.c ****         {
  99:Generated_Source\PSoC4/I2C_MPU6050_I2C_MASTER.c ****             /* Unexpected FSM state: exit */
 100:Generated_Source\PSoC4/I2C_MPU6050_I2C_MASTER.c ****         }
 101:Generated_Source\PSoC4/I2C_MPU6050_I2C_MASTER.c ****     }
 102:Generated_Source\PSoC4/I2C_MPU6050_I2C_MASTER.c **** 
 103:Generated_Source\PSoC4/I2C_MPU6050_I2C_MASTER.c **** 
 104:Generated_Source\PSoC4/I2C_MPU6050_I2C_MASTER.c ****     /* Check if master is ready to start  */
 105:Generated_Source\PSoC4/I2C_MPU6050_I2C_MASTER.c ****     if(I2C_MPU6050_I2C_MSTR_NO_ERROR == errStatus) /* No error proceed */
 106:Generated_Source\PSoC4/I2C_MPU6050_I2C_MASTER.c ****     {
 107:Generated_Source\PSoC4/I2C_MPU6050_I2C_MASTER.c ****         /* Set up write transaction */
 108:Generated_Source\PSoC4/I2C_MPU6050_I2C_MASTER.c ****         I2C_MPU6050_state = I2C_MPU6050_I2C_FSM_MSTR_WR_ADDR;
 109:Generated_Source\PSoC4/I2C_MPU6050_I2C_MASTER.c ****         I2C_MPU6050_mstrWrBufIndexTmp = 0u;
 110:Generated_Source\PSoC4/I2C_MPU6050_I2C_MASTER.c ****         I2C_MPU6050_mstrWrBufIndex    = 0u;
 111:Generated_Source\PSoC4/I2C_MPU6050_I2C_MASTER.c ****         I2C_MPU6050_mstrWrBufSize     = cnt;
 112:Generated_Source\PSoC4/I2C_MPU6050_I2C_MASTER.c ****         I2C_MPU6050_mstrWrBufPtr      = (volatile uint8 *) wrData;
 113:Generated_Source\PSoC4/I2C_MPU6050_I2C_MASTER.c ****         I2C_MPU6050_mstrControl       = (uint8) mode;
 114:Generated_Source\PSoC4/I2C_MPU6050_I2C_MASTER.c **** 
 115:Generated_Source\PSoC4/I2C_MPU6050_I2C_MASTER.c ****         slaveAddress = I2C_MPU6050_GET_I2C_8BIT_ADDRESS(slaveAddress);
 116:Generated_Source\PSoC4/I2C_MPU6050_I2C_MASTER.c **** 
 117:Generated_Source\PSoC4/I2C_MPU6050_I2C_MASTER.c ****         I2C_MPU6050_mstrStatus &= (uint16) ~I2C_MPU6050_I2C_MSTAT_WR_CMPLT;
 118:Generated_Source\PSoC4/I2C_MPU6050_I2C_MASTER.c **** 
 119:Generated_Source\PSoC4/I2C_MPU6050_I2C_MASTER.c ****         I2C_MPU6050_ClearMasterInterruptSource(I2C_MPU6050_INTR_MASTER_ALL);
 120:Generated_Source\PSoC4/I2C_MPU6050_I2C_MASTER.c ****         I2C_MPU6050_ClearTxInterruptSource(I2C_MPU6050_INTR_TX_UNDERFLOW);
 121:Generated_Source\PSoC4/I2C_MPU6050_I2C_MASTER.c ****         /* The TX and RX FIFO have to be EMPTY */
 122:Generated_Source\PSoC4/I2C_MPU6050_I2C_MASTER.c **** 
 123:Generated_Source\PSoC4/I2C_MPU6050_I2C_MASTER.c ****         /* Generate Start or ReStart */
 124:Generated_Source\PSoC4/I2C_MPU6050_I2C_MASTER.c ****         if(I2C_MPU6050_CHECK_I2C_MODE_RESTART(mode))
 125:Generated_Source\PSoC4/I2C_MPU6050_I2C_MASTER.c ****         {
 126:Generated_Source\PSoC4/I2C_MPU6050_I2C_MASTER.c ****             I2C_MPU6050_I2C_MASTER_GENERATE_RESTART;
 127:Generated_Source\PSoC4/I2C_MPU6050_I2C_MASTER.c ****             I2C_MPU6050_TX_FIFO_WR_REG = slaveAddress;
 128:Generated_Source\PSoC4/I2C_MPU6050_I2C_MASTER.c ****         }
 129:Generated_Source\PSoC4/I2C_MPU6050_I2C_MASTER.c ****         else
 130:Generated_Source\PSoC4/I2C_MPU6050_I2C_MASTER.c ****         {
 131:Generated_Source\PSoC4/I2C_MPU6050_I2C_MASTER.c ****             I2C_MPU6050_TX_FIFO_WR_REG = slaveAddress;
 132:Generated_Source\PSoC4/I2C_MPU6050_I2C_MASTER.c ****             I2C_MPU6050_I2C_MASTER_GENERATE_START;
 133:Generated_Source\PSoC4/I2C_MPU6050_I2C_MASTER.c ****         }
 134:Generated_Source\PSoC4/I2C_MPU6050_I2C_MASTER.c **** 
 135:Generated_Source\PSoC4/I2C_MPU6050_I2C_MASTER.c ****          /* Catch when address is sent */
 136:Generated_Source\PSoC4/I2C_MPU6050_I2C_MASTER.c ****         I2C_MPU6050_SetTxInterruptMode(I2C_MPU6050_INTR_TX_UNDERFLOW);
 137:Generated_Source\PSoC4/I2C_MPU6050_I2C_MASTER.c ****     }
 138:Generated_Source\PSoC4/I2C_MPU6050_I2C_MASTER.c **** 
 139:Generated_Source\PSoC4/I2C_MPU6050_I2C_MASTER.c ****     I2C_MPU6050_EnableInt();
 140:Generated_Source\PSoC4/I2C_MPU6050_I2C_MASTER.c **** 
 141:Generated_Source\PSoC4/I2C_MPU6050_I2C_MASTER.c ****     return(errStatus);
 142:Generated_Source\PSoC4/I2C_MPU6050_I2C_MASTER.c **** }
 143:Generated_Source\PSoC4/I2C_MPU6050_I2C_MASTER.c **** 
 144:Generated_Source\PSoC4/I2C_MPU6050_I2C_MASTER.c **** 
ARM GAS  C:\Users\Asus\AppData\Local\Temp\ccaf8y9d.s 			page 4


 145:Generated_Source\PSoC4/I2C_MPU6050_I2C_MASTER.c **** /*******************************************************************************
 146:Generated_Source\PSoC4/I2C_MPU6050_I2C_MASTER.c **** * Function Name: I2C_MPU6050_I2CMasterReadBuf
 147:Generated_Source\PSoC4/I2C_MPU6050_I2C_MASTER.c **** ********************************************************************************
 148:Generated_Source\PSoC4/I2C_MPU6050_I2C_MASTER.c **** *
 149:Generated_Source\PSoC4/I2C_MPU6050_I2C_MASTER.c **** * Summary:
 150:Generated_Source\PSoC4/I2C_MPU6050_I2C_MASTER.c **** *  Automatically reads an entire buffer of data from a slave device.
 151:Generated_Source\PSoC4/I2C_MPU6050_I2C_MASTER.c **** *  Once the data transfer is initiated by this function, further data transfer
 152:Generated_Source\PSoC4/I2C_MPU6050_I2C_MASTER.c **** *  is handled by the included ISR.
 153:Generated_Source\PSoC4/I2C_MPU6050_I2C_MASTER.c **** * Enables the I2C interrupt and clears SCB_ I2C_MSTAT_RD_CMPLT status.
 154:Generated_Source\PSoC4/I2C_MPU6050_I2C_MASTER.c **** *
 155:Generated_Source\PSoC4/I2C_MPU6050_I2C_MASTER.c **** * Parameters:
 156:Generated_Source\PSoC4/I2C_MPU6050_I2C_MASTER.c **** *  slaveAddr: 7-bit slave address.
 157:Generated_Source\PSoC4/I2C_MPU6050_I2C_MASTER.c **** *  xferData:  Pointer to buffer where to put data from slave.
 158:Generated_Source\PSoC4/I2C_MPU6050_I2C_MASTER.c **** *  cnt:       Size of buffer to read.
 159:Generated_Source\PSoC4/I2C_MPU6050_I2C_MASTER.c **** *  mode:      Transfer mode defines: start or restart condition generation at
 160:Generated_Source\PSoC4/I2C_MPU6050_I2C_MASTER.c **** *             begin of the transfer and complete the transfer or halt before
 161:Generated_Source\PSoC4/I2C_MPU6050_I2C_MASTER.c **** *             generating a stop.
 162:Generated_Source\PSoC4/I2C_MPU6050_I2C_MASTER.c **** *
 163:Generated_Source\PSoC4/I2C_MPU6050_I2C_MASTER.c **** * Return:
 164:Generated_Source\PSoC4/I2C_MPU6050_I2C_MASTER.c **** *  Error status.
 165:Generated_Source\PSoC4/I2C_MPU6050_I2C_MASTER.c **** *
 166:Generated_Source\PSoC4/I2C_MPU6050_I2C_MASTER.c **** * Global variables:
 167:Generated_Source\PSoC4/I2C_MPU6050_I2C_MASTER.c **** *  I2C_MPU6050_mstrStatus  - used to store current status of I2C Master.
 168:Generated_Source\PSoC4/I2C_MPU6050_I2C_MASTER.c **** *  I2C_MPU6050_state       - used to store current state of software FSM.
 169:Generated_Source\PSoC4/I2C_MPU6050_I2C_MASTER.c **** *  I2C_MPU6050_mstrControl - used to control master end of transaction with
 170:Generated_Source\PSoC4/I2C_MPU6050_I2C_MASTER.c **** *  or without the Stop generation.
 171:Generated_Source\PSoC4/I2C_MPU6050_I2C_MASTER.c **** *  I2C_MPU6050_mstrRdBufPtr - used to store pointer to master write buffer.
 172:Generated_Source\PSoC4/I2C_MPU6050_I2C_MASTER.c **** *  I2C_MPU6050_mstrRdBufIndex - used to current index within master write
 173:Generated_Source\PSoC4/I2C_MPU6050_I2C_MASTER.c **** *  buffer.
 174:Generated_Source\PSoC4/I2C_MPU6050_I2C_MASTER.c **** *  I2C_MPU6050_mstrRdBufSize - used to store master write buffer size.
 175:Generated_Source\PSoC4/I2C_MPU6050_I2C_MASTER.c **** *
 176:Generated_Source\PSoC4/I2C_MPU6050_I2C_MASTER.c **** *******************************************************************************/
 177:Generated_Source\PSoC4/I2C_MPU6050_I2C_MASTER.c **** uint32 I2C_MPU6050_I2CMasterReadBuf(uint32 slaveAddress, uint8 * rdData, uint32 cnt, uint32 mode)
 178:Generated_Source\PSoC4/I2C_MPU6050_I2C_MASTER.c **** {
 179:Generated_Source\PSoC4/I2C_MPU6050_I2C_MASTER.c ****     uint32 errStatus;
 180:Generated_Source\PSoC4/I2C_MPU6050_I2C_MASTER.c **** 
 181:Generated_Source\PSoC4/I2C_MPU6050_I2C_MASTER.c ****     errStatus = I2C_MPU6050_I2C_MSTR_NOT_READY;
 182:Generated_Source\PSoC4/I2C_MPU6050_I2C_MASTER.c **** 
 183:Generated_Source\PSoC4/I2C_MPU6050_I2C_MASTER.c ****     if(NULL != rdData)
 184:Generated_Source\PSoC4/I2C_MPU6050_I2C_MASTER.c ****     {
 185:Generated_Source\PSoC4/I2C_MPU6050_I2C_MASTER.c ****         /* Check FSM state and bus before generating Start/ReStart condition */
 186:Generated_Source\PSoC4/I2C_MPU6050_I2C_MASTER.c ****         if(I2C_MPU6050_CHECK_I2C_FSM_IDLE)
 187:Generated_Source\PSoC4/I2C_MPU6050_I2C_MASTER.c ****         {
 188:Generated_Source\PSoC4/I2C_MPU6050_I2C_MASTER.c ****             I2C_MPU6050_DisableInt();
 189:Generated_Source\PSoC4/I2C_MPU6050_I2C_MASTER.c **** 
 190:Generated_Source\PSoC4/I2C_MPU6050_I2C_MASTER.c ****             /* Check bus state */
 191:Generated_Source\PSoC4/I2C_MPU6050_I2C_MASTER.c ****             errStatus = I2C_MPU6050_CHECK_I2C_STATUS(I2C_MPU6050_I2C_STATUS_BUS_BUSY) ?
 192:Generated_Source\PSoC4/I2C_MPU6050_I2C_MASTER.c ****                             I2C_MPU6050_I2C_MSTR_BUS_BUSY : I2C_MPU6050_I2C_MSTR_NO_ERROR;
 193:Generated_Source\PSoC4/I2C_MPU6050_I2C_MASTER.c ****         }
 194:Generated_Source\PSoC4/I2C_MPU6050_I2C_MASTER.c ****         else if(I2C_MPU6050_CHECK_I2C_FSM_HALT)
 195:Generated_Source\PSoC4/I2C_MPU6050_I2C_MASTER.c ****         {
 196:Generated_Source\PSoC4/I2C_MPU6050_I2C_MASTER.c ****             I2C_MPU6050_mstrStatus &= (uint16) ~I2C_MPU6050_I2C_MSTAT_XFER_HALT;
 197:Generated_Source\PSoC4/I2C_MPU6050_I2C_MASTER.c ****                               errStatus  =  I2C_MPU6050_I2C_MSTR_NO_ERROR;
 198:Generated_Source\PSoC4/I2C_MPU6050_I2C_MASTER.c ****         }
 199:Generated_Source\PSoC4/I2C_MPU6050_I2C_MASTER.c ****         else
 200:Generated_Source\PSoC4/I2C_MPU6050_I2C_MASTER.c ****         {
 201:Generated_Source\PSoC4/I2C_MPU6050_I2C_MASTER.c ****             /* Unexpected FSM state: exit */
ARM GAS  C:\Users\Asus\AppData\Local\Temp\ccaf8y9d.s 			page 5


 202:Generated_Source\PSoC4/I2C_MPU6050_I2C_MASTER.c ****         }
 203:Generated_Source\PSoC4/I2C_MPU6050_I2C_MASTER.c ****     }
 204:Generated_Source\PSoC4/I2C_MPU6050_I2C_MASTER.c **** 
 205:Generated_Source\PSoC4/I2C_MPU6050_I2C_MASTER.c ****     /* Check master ready to proceed */
 206:Generated_Source\PSoC4/I2C_MPU6050_I2C_MASTER.c ****     if(I2C_MPU6050_I2C_MSTR_NO_ERROR == errStatus) /* No error proceed */
 207:Generated_Source\PSoC4/I2C_MPU6050_I2C_MASTER.c ****     {
 208:Generated_Source\PSoC4/I2C_MPU6050_I2C_MASTER.c ****         /* Set up read transaction */
 209:Generated_Source\PSoC4/I2C_MPU6050_I2C_MASTER.c ****         I2C_MPU6050_state = I2C_MPU6050_I2C_FSM_MSTR_RD_ADDR;
 210:Generated_Source\PSoC4/I2C_MPU6050_I2C_MASTER.c ****         I2C_MPU6050_mstrRdBufIndex = 0u;
 211:Generated_Source\PSoC4/I2C_MPU6050_I2C_MASTER.c ****         I2C_MPU6050_mstrRdBufSize  = cnt;
 212:Generated_Source\PSoC4/I2C_MPU6050_I2C_MASTER.c ****         I2C_MPU6050_mstrRdBufPtr   = (volatile uint8 *) rdData;
 213:Generated_Source\PSoC4/I2C_MPU6050_I2C_MASTER.c ****         I2C_MPU6050_mstrControl    = (uint8) mode;
 214:Generated_Source\PSoC4/I2C_MPU6050_I2C_MASTER.c **** 
 215:Generated_Source\PSoC4/I2C_MPU6050_I2C_MASTER.c ****         slaveAddress = (I2C_MPU6050_GET_I2C_8BIT_ADDRESS(slaveAddress) | I2C_MPU6050_I2C_READ_FLAG)
 216:Generated_Source\PSoC4/I2C_MPU6050_I2C_MASTER.c **** 
 217:Generated_Source\PSoC4/I2C_MPU6050_I2C_MASTER.c ****         I2C_MPU6050_mstrStatus &= (uint16) ~I2C_MPU6050_I2C_MSTAT_RD_CMPLT;
 218:Generated_Source\PSoC4/I2C_MPU6050_I2C_MASTER.c **** 
 219:Generated_Source\PSoC4/I2C_MPU6050_I2C_MASTER.c ****         I2C_MPU6050_ClearMasterInterruptSource(I2C_MPU6050_INTR_MASTER_ALL);
 220:Generated_Source\PSoC4/I2C_MPU6050_I2C_MASTER.c **** 
 221:Generated_Source\PSoC4/I2C_MPU6050_I2C_MASTER.c ****         /* The TX and RX FIFO have to be EMPTY */
 222:Generated_Source\PSoC4/I2C_MPU6050_I2C_MASTER.c **** 
 223:Generated_Source\PSoC4/I2C_MPU6050_I2C_MASTER.c ****         /* Generate Start or ReStart */
 224:Generated_Source\PSoC4/I2C_MPU6050_I2C_MASTER.c ****         if(I2C_MPU6050_CHECK_I2C_MODE_RESTART(mode))
 225:Generated_Source\PSoC4/I2C_MPU6050_I2C_MASTER.c ****         {
 226:Generated_Source\PSoC4/I2C_MPU6050_I2C_MASTER.c ****             I2C_MPU6050_I2C_MASTER_GENERATE_RESTART;
 227:Generated_Source\PSoC4/I2C_MPU6050_I2C_MASTER.c ****             I2C_MPU6050_TX_FIFO_WR_REG = (slaveAddress);
 228:Generated_Source\PSoC4/I2C_MPU6050_I2C_MASTER.c ****         }
 229:Generated_Source\PSoC4/I2C_MPU6050_I2C_MASTER.c ****         else
 230:Generated_Source\PSoC4/I2C_MPU6050_I2C_MASTER.c ****         {
 231:Generated_Source\PSoC4/I2C_MPU6050_I2C_MASTER.c ****             I2C_MPU6050_TX_FIFO_WR_REG = (slaveAddress);
 232:Generated_Source\PSoC4/I2C_MPU6050_I2C_MASTER.c ****             I2C_MPU6050_I2C_MASTER_GENERATE_START;
 233:Generated_Source\PSoC4/I2C_MPU6050_I2C_MASTER.c ****         }
 234:Generated_Source\PSoC4/I2C_MPU6050_I2C_MASTER.c **** 
 235:Generated_Source\PSoC4/I2C_MPU6050_I2C_MASTER.c ****         /* Prepare reading */
 236:Generated_Source\PSoC4/I2C_MPU6050_I2C_MASTER.c ****         if(I2C_MPU6050_mstrRdBufSize < I2C_MPU6050_I2C_FIFO_SIZE) /* Reading byte-by-byte */
 237:Generated_Source\PSoC4/I2C_MPU6050_I2C_MASTER.c ****         {
 238:Generated_Source\PSoC4/I2C_MPU6050_I2C_MASTER.c ****             I2C_MPU6050_SetRxInterruptMode(I2C_MPU6050_INTR_RX_NOT_EMPTY);
 239:Generated_Source\PSoC4/I2C_MPU6050_I2C_MASTER.c ****         }
 240:Generated_Source\PSoC4/I2C_MPU6050_I2C_MASTER.c ****         else /* Reading use RX FIFO */
 241:Generated_Source\PSoC4/I2C_MPU6050_I2C_MASTER.c ****         {
 242:Generated_Source\PSoC4/I2C_MPU6050_I2C_MASTER.c ****             I2C_MPU6050_ENABLE_MASTER_AUTO_DATA_ACK;
 243:Generated_Source\PSoC4/I2C_MPU6050_I2C_MASTER.c ****             I2C_MPU6050_SetRxInterruptMode(I2C_MPU6050_INTR_RX_FULL);
 244:Generated_Source\PSoC4/I2C_MPU6050_I2C_MASTER.c ****         }
 245:Generated_Source\PSoC4/I2C_MPU6050_I2C_MASTER.c ****     }
 246:Generated_Source\PSoC4/I2C_MPU6050_I2C_MASTER.c **** 
 247:Generated_Source\PSoC4/I2C_MPU6050_I2C_MASTER.c ****     I2C_MPU6050_EnableInt();
 248:Generated_Source\PSoC4/I2C_MPU6050_I2C_MASTER.c **** 
 249:Generated_Source\PSoC4/I2C_MPU6050_I2C_MASTER.c ****     return(errStatus);
 250:Generated_Source\PSoC4/I2C_MPU6050_I2C_MASTER.c **** }
 251:Generated_Source\PSoC4/I2C_MPU6050_I2C_MASTER.c **** 
 252:Generated_Source\PSoC4/I2C_MPU6050_I2C_MASTER.c **** 
 253:Generated_Source\PSoC4/I2C_MPU6050_I2C_MASTER.c **** /*******************************************************************************
 254:Generated_Source\PSoC4/I2C_MPU6050_I2C_MASTER.c **** * Function Name: I2C_MPU6050_I2CMasterSendStart
 255:Generated_Source\PSoC4/I2C_MPU6050_I2C_MASTER.c **** ********************************************************************************
 256:Generated_Source\PSoC4/I2C_MPU6050_I2C_MASTER.c **** *
 257:Generated_Source\PSoC4/I2C_MPU6050_I2C_MASTER.c **** * Summary:
 258:Generated_Source\PSoC4/I2C_MPU6050_I2C_MASTER.c **** *  Generates Start condition and sends slave address with read/write bit.
ARM GAS  C:\Users\Asus\AppData\Local\Temp\ccaf8y9d.s 			page 6


 259:Generated_Source\PSoC4/I2C_MPU6050_I2C_MASTER.c **** *  Disables the I2C interrupt.
 260:Generated_Source\PSoC4/I2C_MPU6050_I2C_MASTER.c **** *  This function is blocking and does not return until start condition and
 261:Generated_Source\PSoC4/I2C_MPU6050_I2C_MASTER.c **** *  address byte are sent and ACK/NACK response is received or errors occurred.
 262:Generated_Source\PSoC4/I2C_MPU6050_I2C_MASTER.c **** *
 263:Generated_Source\PSoC4/I2C_MPU6050_I2C_MASTER.c **** * Parameters:
 264:Generated_Source\PSoC4/I2C_MPU6050_I2C_MASTER.c **** *  slaveAddress: Right justified 7-bit Slave address (valid range 8 to 120).
 265:Generated_Source\PSoC4/I2C_MPU6050_I2C_MASTER.c **** *  bitRnW:       Direction of the following transfer. It is defined by
 266:Generated_Source\PSoC4/I2C_MPU6050_I2C_MASTER.c **** *                read/write bit within address byte.
 267:Generated_Source\PSoC4/I2C_MPU6050_I2C_MASTER.c **** *
 268:Generated_Source\PSoC4/I2C_MPU6050_I2C_MASTER.c **** * Return:
 269:Generated_Source\PSoC4/I2C_MPU6050_I2C_MASTER.c **** *  Erorr status.
 270:Generated_Source\PSoC4/I2C_MPU6050_I2C_MASTER.c **** *
 271:Generated_Source\PSoC4/I2C_MPU6050_I2C_MASTER.c **** * Global variables:
 272:Generated_Source\PSoC4/I2C_MPU6050_I2C_MASTER.c **** *  I2C_MPU6050_state - used to store current state of software FSM.
 273:Generated_Source\PSoC4/I2C_MPU6050_I2C_MASTER.c **** *
 274:Generated_Source\PSoC4/I2C_MPU6050_I2C_MASTER.c **** *******************************************************************************/
 275:Generated_Source\PSoC4/I2C_MPU6050_I2C_MASTER.c **** uint32 I2C_MPU6050_I2CMasterSendStart(uint32 slaveAddress, uint32 bitRnW)
 276:Generated_Source\PSoC4/I2C_MPU6050_I2C_MASTER.c **** {
  28              		.loc 1 276 0
  29              		.cfi_startproc
  30              		@ args = 0, pretend = 0, frame = 0
  31              		@ frame_needed = 0, uses_anonymous_args = 0
  32              	.LVL0:
  33 0000 70B5     		push	{r4, r5, r6, lr}
  34              		.cfi_def_cfa_offset 16
  35              		.cfi_offset 4, -16
  36              		.cfi_offset 5, -12
  37              		.cfi_offset 6, -8
  38              		.cfi_offset 14, -4
  39 0002 0400     		movs	r4, r0
  40 0004 0D00     		movs	r5, r1
  41              	.LVL1:
 277:Generated_Source\PSoC4/I2C_MPU6050_I2C_MASTER.c ****     uint32  resetIp;
 278:Generated_Source\PSoC4/I2C_MPU6050_I2C_MASTER.c ****     uint32 errStatus;
 279:Generated_Source\PSoC4/I2C_MPU6050_I2C_MASTER.c **** 
 280:Generated_Source\PSoC4/I2C_MPU6050_I2C_MASTER.c ****     resetIp   = 0u;
 281:Generated_Source\PSoC4/I2C_MPU6050_I2C_MASTER.c ****     errStatus = I2C_MPU6050_I2C_MSTR_NOT_READY;
 282:Generated_Source\PSoC4/I2C_MPU6050_I2C_MASTER.c **** 
 283:Generated_Source\PSoC4/I2C_MPU6050_I2C_MASTER.c ****     /* Check FSM state before generating Start condition */
 284:Generated_Source\PSoC4/I2C_MPU6050_I2C_MASTER.c ****     if(I2C_MPU6050_CHECK_I2C_FSM_IDLE)
  42              		.loc 1 284 0
  43 0006 294B     		ldr	r3, .L12
  44 0008 1B78     		ldrb	r3, [r3]
  45 000a 102B     		cmp	r3, #16
  46 000c 49D1     		bne	.L8
 285:Generated_Source\PSoC4/I2C_MPU6050_I2C_MASTER.c ****     {
 286:Generated_Source\PSoC4/I2C_MPU6050_I2C_MASTER.c ****         /* If bus is free, generate Start condition */
 287:Generated_Source\PSoC4/I2C_MPU6050_I2C_MASTER.c ****         if(I2C_MPU6050_CHECK_I2C_STATUS(I2C_MPU6050_I2C_STATUS_BUS_BUSY))
  47              		.loc 1 287 0
  48 000e 284B     		ldr	r3, .L12+4
  49 0010 1B68     		ldr	r3, [r3]
  50 0012 DB07     		lsls	r3, r3, #31
  51 0014 47D4     		bmi	.L9
 288:Generated_Source\PSoC4/I2C_MPU6050_I2C_MASTER.c ****         {
 289:Generated_Source\PSoC4/I2C_MPU6050_I2C_MASTER.c ****             errStatus = I2C_MPU6050_I2C_MSTR_BUS_BUSY;
 290:Generated_Source\PSoC4/I2C_MPU6050_I2C_MASTER.c ****         }
 291:Generated_Source\PSoC4/I2C_MPU6050_I2C_MASTER.c ****         else
ARM GAS  C:\Users\Asus\AppData\Local\Temp\ccaf8y9d.s 			page 7


 292:Generated_Source\PSoC4/I2C_MPU6050_I2C_MASTER.c ****         {
 293:Generated_Source\PSoC4/I2C_MPU6050_I2C_MASTER.c ****             I2C_MPU6050_DisableInt();
  52              		.loc 1 293 0
  53 0016 0A20     		movs	r0, #10
  54              	.LVL2:
  55 0018 FFF7FEFF 		bl	CyIntDisable
  56              	.LVL3:
 294:Generated_Source\PSoC4/I2C_MPU6050_I2C_MASTER.c **** 
 295:Generated_Source\PSoC4/I2C_MPU6050_I2C_MASTER.c ****             slaveAddress = I2C_MPU6050_GET_I2C_8BIT_ADDRESS(slaveAddress);
  57              		.loc 1 295 0
  58 001c 6400     		lsls	r4, r4, #1
  59              	.LVL4:
  60 001e FF23     		movs	r3, #255
  61 0020 1C40     		ands	r4, r3
  62              	.LVL5:
 296:Generated_Source\PSoC4/I2C_MPU6050_I2C_MASTER.c **** 
 297:Generated_Source\PSoC4/I2C_MPU6050_I2C_MASTER.c ****             if(0u == bitRnW) /* Write direction */
  63              		.loc 1 297 0
  64 0022 002D     		cmp	r5, #0
  65 0024 03D1     		bne	.L3
 298:Generated_Source\PSoC4/I2C_MPU6050_I2C_MASTER.c ****             {
 299:Generated_Source\PSoC4/I2C_MPU6050_I2C_MASTER.c ****                 I2C_MPU6050_state = I2C_MPU6050_I2C_FSM_MSTR_WR_DATA;
  66              		.loc 1 299 0
  67 0026 2422     		movs	r2, #36
  68 0028 204B     		ldr	r3, .L12
  69 002a 1A70     		strb	r2, [r3]
  70 002c 04E0     		b	.L4
  71              	.L3:
 300:Generated_Source\PSoC4/I2C_MPU6050_I2C_MASTER.c ****             }
 301:Generated_Source\PSoC4/I2C_MPU6050_I2C_MASTER.c ****             else /* Read direction */
 302:Generated_Source\PSoC4/I2C_MPU6050_I2C_MASTER.c ****             {
 303:Generated_Source\PSoC4/I2C_MPU6050_I2C_MASTER.c ****                 I2C_MPU6050_state = I2C_MPU6050_I2C_FSM_MSTR_RD_DATA;
  72              		.loc 1 303 0
  73 002e 2522     		movs	r2, #37
  74 0030 1E4B     		ldr	r3, .L12
  75 0032 1A70     		strb	r2, [r3]
 304:Generated_Source\PSoC4/I2C_MPU6050_I2C_MASTER.c ****                          slaveAddress |= I2C_MPU6050_I2C_READ_FLAG;
  76              		.loc 1 304 0
  77 0034 0123     		movs	r3, #1
  78 0036 1C43     		orrs	r4, r3
  79              	.LVL6:
  80              	.L4:
 305:Generated_Source\PSoC4/I2C_MPU6050_I2C_MASTER.c ****             }
 306:Generated_Source\PSoC4/I2C_MPU6050_I2C_MASTER.c **** 
 307:Generated_Source\PSoC4/I2C_MPU6050_I2C_MASTER.c ****             /* The TX and RX FIFO have to be EMPTY */
 308:Generated_Source\PSoC4/I2C_MPU6050_I2C_MASTER.c **** 
 309:Generated_Source\PSoC4/I2C_MPU6050_I2C_MASTER.c ****             I2C_MPU6050_TX_FIFO_WR_REG = slaveAddress; /* Put address in TX FIFO */
  81              		.loc 1 309 0
  82 0038 1E4B     		ldr	r3, .L12+8
  83 003a 1C60     		str	r4, [r3]
 310:Generated_Source\PSoC4/I2C_MPU6050_I2C_MASTER.c ****             I2C_MPU6050_ClearMasterInterruptSource(I2C_MPU6050_INTR_MASTER_ALL);
  84              		.loc 1 310 0
  85 003c 1E4A     		ldr	r2, .L12+12
  86 003e 1F4B     		ldr	r3, .L12+16
  87 0040 1A60     		str	r2, [r3]
 311:Generated_Source\PSoC4/I2C_MPU6050_I2C_MASTER.c **** 
 312:Generated_Source\PSoC4/I2C_MPU6050_I2C_MASTER.c ****             I2C_MPU6050_I2C_MASTER_GENERATE_START;
ARM GAS  C:\Users\Asus\AppData\Local\Temp\ccaf8y9d.s 			page 8


  88              		.loc 1 312 0
  89 0042 0222     		movs	r2, #2
  90 0044 1E4B     		ldr	r3, .L12+20
  91 0046 1A60     		str	r2, [r3]
  92              	.L5:
 313:Generated_Source\PSoC4/I2C_MPU6050_I2C_MASTER.c **** 
 314:Generated_Source\PSoC4/I2C_MPU6050_I2C_MASTER.c **** 
 315:Generated_Source\PSoC4/I2C_MPU6050_I2C_MASTER.c ****             while(!I2C_MPU6050_CHECK_INTR_MASTER(I2C_MPU6050_INTR_MASTER_I2C_ACK      |
  93              		.loc 1 315 0 discriminator 1
  94 0048 1C4B     		ldr	r3, .L12+16
  95 004a 1A68     		ldr	r2, [r3]
  96 004c 0823     		movs	r3, #8
  97 004e FF33     		adds	r3, r3, #255
  98 0050 1A42     		tst	r2, r3
  99 0052 F9D0     		beq	.L5
 316:Generated_Source\PSoC4/I2C_MPU6050_I2C_MASTER.c ****                                                       I2C_MPU6050_INTR_MASTER_I2C_NACK     |
 317:Generated_Source\PSoC4/I2C_MPU6050_I2C_MASTER.c ****                                                       I2C_MPU6050_INTR_MASTER_I2C_ARB_LOST |
 318:Generated_Source\PSoC4/I2C_MPU6050_I2C_MASTER.c ****                                                       I2C_MPU6050_INTR_MASTER_I2C_BUS_ERROR))
 319:Generated_Source\PSoC4/I2C_MPU6050_I2C_MASTER.c ****             {
 320:Generated_Source\PSoC4/I2C_MPU6050_I2C_MASTER.c ****                 /*
 321:Generated_Source\PSoC4/I2C_MPU6050_I2C_MASTER.c ****                 * Write: wait until address has been transferred
 322:Generated_Source\PSoC4/I2C_MPU6050_I2C_MASTER.c ****                 * Read : wait until address has been transferred, data byte is going to RX FIFO as 
 323:Generated_Source\PSoC4/I2C_MPU6050_I2C_MASTER.c ****                 */
 324:Generated_Source\PSoC4/I2C_MPU6050_I2C_MASTER.c ****             }
 325:Generated_Source\PSoC4/I2C_MPU6050_I2C_MASTER.c **** 
 326:Generated_Source\PSoC4/I2C_MPU6050_I2C_MASTER.c ****             /* Check the results of the address phase */
 327:Generated_Source\PSoC4/I2C_MPU6050_I2C_MASTER.c ****             if(I2C_MPU6050_CHECK_INTR_MASTER(I2C_MPU6050_INTR_MASTER_I2C_ACK))
 100              		.loc 1 327 0
 101 0054 194B     		ldr	r3, .L12+16
 102 0056 1B68     		ldr	r3, [r3]
 103 0058 5B07     		lsls	r3, r3, #29
 104 005a 14D4     		bmi	.L10
 328:Generated_Source\PSoC4/I2C_MPU6050_I2C_MASTER.c ****             {
 329:Generated_Source\PSoC4/I2C_MPU6050_I2C_MASTER.c ****                 errStatus = I2C_MPU6050_I2C_MSTR_NO_ERROR;
 330:Generated_Source\PSoC4/I2C_MPU6050_I2C_MASTER.c ****             }
 331:Generated_Source\PSoC4/I2C_MPU6050_I2C_MASTER.c ****             else if(I2C_MPU6050_CHECK_INTR_MASTER(I2C_MPU6050_INTR_MASTER_I2C_NACK))
 105              		.loc 1 331 0
 106 005c 174B     		ldr	r3, .L12+16
 107 005e 1B68     		ldr	r3, [r3]
 108 0060 9B07     		lsls	r3, r3, #30
 109 0062 13D4     		bmi	.L11
 332:Generated_Source\PSoC4/I2C_MPU6050_I2C_MASTER.c ****             {
 333:Generated_Source\PSoC4/I2C_MPU6050_I2C_MASTER.c ****                 errStatus = I2C_MPU6050_I2C_MSTR_ERR_LB_NAK;
 334:Generated_Source\PSoC4/I2C_MPU6050_I2C_MASTER.c ****             }
 335:Generated_Source\PSoC4/I2C_MPU6050_I2C_MASTER.c ****             else if(I2C_MPU6050_CHECK_INTR_MASTER(I2C_MPU6050_INTR_MASTER_I2C_ARB_LOST))
 110              		.loc 1 335 0
 111 0064 154B     		ldr	r3, .L12+16
 112 0066 1B68     		ldr	r3, [r3]
 113 0068 DB07     		lsls	r3, r3, #31
 114 006a 05D5     		bpl	.L7
 336:Generated_Source\PSoC4/I2C_MPU6050_I2C_MASTER.c ****             {
 337:Generated_Source\PSoC4/I2C_MPU6050_I2C_MASTER.c ****                 I2C_MPU6050_state = I2C_MPU6050_I2C_FSM_IDLE;
 115              		.loc 1 337 0
 116 006c 1022     		movs	r2, #16
 117 006e 0F4B     		ldr	r3, .L12
 118 0070 1A70     		strb	r2, [r3]
 119              	.LVL7:
ARM GAS  C:\Users\Asus\AppData\Local\Temp\ccaf8y9d.s 			page 9


 338:Generated_Source\PSoC4/I2C_MPU6050_I2C_MASTER.c ****                              errStatus = I2C_MPU6050_I2C_MSTR_ERR_ARB_LOST;
 120              		.loc 1 338 0
 121 0072 0124     		movs	r4, #1
 122              	.LVL8:
 339:Generated_Source\PSoC4/I2C_MPU6050_I2C_MASTER.c ****                              resetIp   = I2C_MPU6050_I2C_RESET_ERROR;
 123              		.loc 1 339 0
 124 0074 0121     		movs	r1, #1
 125 0076 0BE0     		b	.L6
 126              	.LVL9:
 127              	.L7:
 340:Generated_Source\PSoC4/I2C_MPU6050_I2C_MASTER.c ****             }
 341:Generated_Source\PSoC4/I2C_MPU6050_I2C_MASTER.c ****             else /* I2C_MPU6050_INTR_MASTER_I2C_BUS_ERROR set is else condition */
 342:Generated_Source\PSoC4/I2C_MPU6050_I2C_MASTER.c ****             {
 343:Generated_Source\PSoC4/I2C_MPU6050_I2C_MASTER.c ****                 I2C_MPU6050_state = I2C_MPU6050_I2C_FSM_IDLE;
 128              		.loc 1 343 0
 129 0078 1022     		movs	r2, #16
 130 007a 0C4B     		ldr	r3, .L12
 131 007c 1A70     		strb	r2, [r3]
 132              	.LVL10:
 344:Generated_Source\PSoC4/I2C_MPU6050_I2C_MASTER.c ****                              errStatus = I2C_MPU6050_I2C_MSTR_ERR_BUS_ERR;
 133              		.loc 1 344 0
 134 007e 8024     		movs	r4, #128
 135              	.LVL11:
 136 0080 6400     		lsls	r4, r4, #1
 345:Generated_Source\PSoC4/I2C_MPU6050_I2C_MASTER.c ****                              resetIp   = I2C_MPU6050_I2C_RESET_ERROR;
 137              		.loc 1 345 0
 138 0082 0121     		movs	r1, #1
 139 0084 04E0     		b	.L6
 140              	.LVL12:
 141              	.L10:
 329:Generated_Source\PSoC4/I2C_MPU6050_I2C_MASTER.c ****             }
 142              		.loc 1 329 0
 143 0086 0024     		movs	r4, #0
 144              	.LVL13:
 280:Generated_Source\PSoC4/I2C_MPU6050_I2C_MASTER.c ****     errStatus = I2C_MPU6050_I2C_MSTR_NOT_READY;
 145              		.loc 1 280 0
 146 0088 0021     		movs	r1, #0
 147 008a 01E0     		b	.L6
 148              	.LVL14:
 149              	.L11:
 333:Generated_Source\PSoC4/I2C_MPU6050_I2C_MASTER.c ****             }
 150              		.loc 1 333 0
 151 008c 0224     		movs	r4, #2
 152              	.LVL15:
 280:Generated_Source\PSoC4/I2C_MPU6050_I2C_MASTER.c ****     errStatus = I2C_MPU6050_I2C_MSTR_NOT_READY;
 153              		.loc 1 280 0
 154 008e 0021     		movs	r1, #0
 155              	.LVL16:
 156              	.L6:
 346:Generated_Source\PSoC4/I2C_MPU6050_I2C_MASTER.c ****             }
 347:Generated_Source\PSoC4/I2C_MPU6050_I2C_MASTER.c **** 
 348:Generated_Source\PSoC4/I2C_MPU6050_I2C_MASTER.c ****             I2C_MPU6050_ClearMasterInterruptSource(I2C_MPU6050_INTR_MASTER_I2C_ACK      |
 157              		.loc 1 348 0
 158 0090 0822     		movs	r2, #8
 159 0092 FF32     		adds	r2, r2, #255
 160 0094 094B     		ldr	r3, .L12+16
 161 0096 1A60     		str	r2, [r3]
ARM GAS  C:\Users\Asus\AppData\Local\Temp\ccaf8y9d.s 			page 10


 349:Generated_Source\PSoC4/I2C_MPU6050_I2C_MASTER.c ****                                                         I2C_MPU6050_INTR_MASTER_I2C_NACK     |
 350:Generated_Source\PSoC4/I2C_MPU6050_I2C_MASTER.c ****                                                         I2C_MPU6050_INTR_MASTER_I2C_ARB_LOST |
 351:Generated_Source\PSoC4/I2C_MPU6050_I2C_MASTER.c ****                                                         I2C_MPU6050_INTR_MASTER_I2C_BUS_ERROR);
 352:Generated_Source\PSoC4/I2C_MPU6050_I2C_MASTER.c **** 
 353:Generated_Source\PSoC4/I2C_MPU6050_I2C_MASTER.c ****             /* Reset block in case of: LOST_ARB or BUS_ERR */
 354:Generated_Source\PSoC4/I2C_MPU6050_I2C_MASTER.c ****             if(0u != resetIp)
 162              		.loc 1 354 0
 163 0098 0029     		cmp	r1, #0
 164 009a 05D0     		beq	.L2
 355:Generated_Source\PSoC4/I2C_MPU6050_I2C_MASTER.c ****             {
 356:Generated_Source\PSoC4/I2C_MPU6050_I2C_MASTER.c ****                 I2C_MPU6050_SCB_SW_RESET;
 165              		.loc 1 356 0
 166 009c FFF7FEFF 		bl	I2C_MPU6050_I2CFwBlockReset
 167              	.LVL17:
 168 00a0 02E0     		b	.L2
 169              	.LVL18:
 170              	.L8:
 281:Generated_Source\PSoC4/I2C_MPU6050_I2C_MASTER.c **** 
 171              		.loc 1 281 0
 172 00a2 0424     		movs	r4, #4
 173 00a4 00E0     		b	.L2
 174              	.L9:
 289:Generated_Source\PSoC4/I2C_MPU6050_I2C_MASTER.c ****         }
 175              		.loc 1 289 0
 176 00a6 0824     		movs	r4, #8
 177              	.LVL19:
 178              	.L2:
 357:Generated_Source\PSoC4/I2C_MPU6050_I2C_MASTER.c ****             }
 358:Generated_Source\PSoC4/I2C_MPU6050_I2C_MASTER.c ****         }
 359:Generated_Source\PSoC4/I2C_MPU6050_I2C_MASTER.c ****     }
 360:Generated_Source\PSoC4/I2C_MPU6050_I2C_MASTER.c **** 
 361:Generated_Source\PSoC4/I2C_MPU6050_I2C_MASTER.c ****     return(errStatus);
 362:Generated_Source\PSoC4/I2C_MPU6050_I2C_MASTER.c **** }
 179              		.loc 1 362 0
 180 00a8 2000     		movs	r0, r4
 181              		@ sp needed
 182              	.LVL20:
 183              	.LVL21:
 184 00aa 70BD     		pop	{r4, r5, r6, pc}
 185              	.L13:
 186              		.align	2
 187              	.L12:
 188 00ac 00000000 		.word	I2C_MPU6050_state
 189 00b0 64002540 		.word	1076166756
 190 00b4 40022540 		.word	1076167232
 191 00b8 17030000 		.word	791
 192 00bc 000F2540 		.word	1076170496
 193 00c0 68002540 		.word	1076166760
 194              		.cfi_endproc
 195              	.LFE4:
 196              		.size	I2C_MPU6050_I2CMasterSendStart, .-I2C_MPU6050_I2CMasterSendStart
 197              		.section	.text.I2C_MPU6050_I2CMasterSendStop,"ax",%progbits
 198              		.align	2
 199              		.global	I2C_MPU6050_I2CMasterSendStop
 200              		.code	16
 201              		.thumb_func
 202              		.type	I2C_MPU6050_I2CMasterSendStop, %function
ARM GAS  C:\Users\Asus\AppData\Local\Temp\ccaf8y9d.s 			page 11


 203              	I2C_MPU6050_I2CMasterSendStop:
 204              	.LFB6:
 363:Generated_Source\PSoC4/I2C_MPU6050_I2C_MASTER.c **** 
 364:Generated_Source\PSoC4/I2C_MPU6050_I2C_MASTER.c **** 
 365:Generated_Source\PSoC4/I2C_MPU6050_I2C_MASTER.c **** /*******************************************************************************
 366:Generated_Source\PSoC4/I2C_MPU6050_I2C_MASTER.c **** * Function Name: I2C_MPU6050_I2CMasterSendRestart
 367:Generated_Source\PSoC4/I2C_MPU6050_I2C_MASTER.c **** ********************************************************************************
 368:Generated_Source\PSoC4/I2C_MPU6050_I2C_MASTER.c **** *
 369:Generated_Source\PSoC4/I2C_MPU6050_I2C_MASTER.c **** * Summary:
 370:Generated_Source\PSoC4/I2C_MPU6050_I2C_MASTER.c **** *  Generates Restart condition and sends slave address with read/write bit.
 371:Generated_Source\PSoC4/I2C_MPU6050_I2C_MASTER.c **** *  This function is blocking and does not return until start condition and
 372:Generated_Source\PSoC4/I2C_MPU6050_I2C_MASTER.c **** *  address are sent and ACK/NACK response is received or errors occurred.
 373:Generated_Source\PSoC4/I2C_MPU6050_I2C_MASTER.c **** *
 374:Generated_Source\PSoC4/I2C_MPU6050_I2C_MASTER.c **** * Parameters:
 375:Generated_Source\PSoC4/I2C_MPU6050_I2C_MASTER.c **** *  slaveAddress: Right justified 7-bit Slave address (valid range 8 to 120).
 376:Generated_Source\PSoC4/I2C_MPU6050_I2C_MASTER.c **** *  bitRnW:       Direction of the following transfer. It is defined by
 377:Generated_Source\PSoC4/I2C_MPU6050_I2C_MASTER.c **** *                read/write bit within address byte.
 378:Generated_Source\PSoC4/I2C_MPU6050_I2C_MASTER.c **** *
 379:Generated_Source\PSoC4/I2C_MPU6050_I2C_MASTER.c **** * Return:
 380:Generated_Source\PSoC4/I2C_MPU6050_I2C_MASTER.c **** *  Error status
 381:Generated_Source\PSoC4/I2C_MPU6050_I2C_MASTER.c **** *
 382:Generated_Source\PSoC4/I2C_MPU6050_I2C_MASTER.c **** *
 383:Generated_Source\PSoC4/I2C_MPU6050_I2C_MASTER.c **** * Global variables:
 384:Generated_Source\PSoC4/I2C_MPU6050_I2C_MASTER.c **** *  I2C_MPU6050_state - used to store current state of software FSM.
 385:Generated_Source\PSoC4/I2C_MPU6050_I2C_MASTER.c **** *
 386:Generated_Source\PSoC4/I2C_MPU6050_I2C_MASTER.c **** *******************************************************************************/
 387:Generated_Source\PSoC4/I2C_MPU6050_I2C_MASTER.c **** uint32 I2C_MPU6050_I2CMasterSendRestart(uint32 slaveAddress, uint32 bitRnW)
 388:Generated_Source\PSoC4/I2C_MPU6050_I2C_MASTER.c **** {
 389:Generated_Source\PSoC4/I2C_MPU6050_I2C_MASTER.c ****     uint32 resetIp;
 390:Generated_Source\PSoC4/I2C_MPU6050_I2C_MASTER.c ****     uint32 errStatus;
 391:Generated_Source\PSoC4/I2C_MPU6050_I2C_MASTER.c **** 
 392:Generated_Source\PSoC4/I2C_MPU6050_I2C_MASTER.c ****     resetIp   = 0u;
 393:Generated_Source\PSoC4/I2C_MPU6050_I2C_MASTER.c ****     errStatus = I2C_MPU6050_I2C_MSTR_NOT_READY;
 394:Generated_Source\PSoC4/I2C_MPU6050_I2C_MASTER.c **** 
 395:Generated_Source\PSoC4/I2C_MPU6050_I2C_MASTER.c ****     /* Check FSM state before generating ReStart condition */
 396:Generated_Source\PSoC4/I2C_MPU6050_I2C_MASTER.c ****     if(I2C_MPU6050_CHECK_I2C_MASTER_ACTIVE)
 397:Generated_Source\PSoC4/I2C_MPU6050_I2C_MASTER.c ****     {
 398:Generated_Source\PSoC4/I2C_MPU6050_I2C_MASTER.c ****         slaveAddress = I2C_MPU6050_GET_I2C_8BIT_ADDRESS(slaveAddress);
 399:Generated_Source\PSoC4/I2C_MPU6050_I2C_MASTER.c **** 
 400:Generated_Source\PSoC4/I2C_MPU6050_I2C_MASTER.c ****         if(0u == bitRnW) /* Write direction */
 401:Generated_Source\PSoC4/I2C_MPU6050_I2C_MASTER.c ****         {
 402:Generated_Source\PSoC4/I2C_MPU6050_I2C_MASTER.c ****             I2C_MPU6050_state = I2C_MPU6050_I2C_FSM_MSTR_WR_DATA;
 403:Generated_Source\PSoC4/I2C_MPU6050_I2C_MASTER.c ****         }
 404:Generated_Source\PSoC4/I2C_MPU6050_I2C_MASTER.c ****         else  /* Read direction */
 405:Generated_Source\PSoC4/I2C_MPU6050_I2C_MASTER.c ****         {
 406:Generated_Source\PSoC4/I2C_MPU6050_I2C_MASTER.c ****             I2C_MPU6050_state  = I2C_MPU6050_I2C_FSM_MSTR_RD_DATA;
 407:Generated_Source\PSoC4/I2C_MPU6050_I2C_MASTER.c ****                       slaveAddress |= I2C_MPU6050_I2C_READ_FLAG;
 408:Generated_Source\PSoC4/I2C_MPU6050_I2C_MASTER.c ****         }
 409:Generated_Source\PSoC4/I2C_MPU6050_I2C_MASTER.c **** 
 410:Generated_Source\PSoC4/I2C_MPU6050_I2C_MASTER.c ****         /* The TX and RX FIFO have to be EMPTY */
 411:Generated_Source\PSoC4/I2C_MPU6050_I2C_MASTER.c **** 
 412:Generated_Source\PSoC4/I2C_MPU6050_I2C_MASTER.c ****         /* Clean-up interrupt status */
 413:Generated_Source\PSoC4/I2C_MPU6050_I2C_MASTER.c ****         I2C_MPU6050_ClearMasterInterruptSource(I2C_MPU6050_INTR_MASTER_ALL);
 414:Generated_Source\PSoC4/I2C_MPU6050_I2C_MASTER.c **** 
 415:Generated_Source\PSoC4/I2C_MPU6050_I2C_MASTER.c ****         /* Proper ReStart sequence is: generate ReStart then put address byte in the TX FIFO.
 416:Generated_Source\PSoC4/I2C_MPU6050_I2C_MASTER.c ****         * Otherwise master treats address in the TX FIFO as data byte if previous transfer is write
 417:Generated_Source\PSoC4/I2C_MPU6050_I2C_MASTER.c ****         * The write transfer continue instead of ReStart.
ARM GAS  C:\Users\Asus\AppData\Local\Temp\ccaf8y9d.s 			page 12


 418:Generated_Source\PSoC4/I2C_MPU6050_I2C_MASTER.c ****         */
 419:Generated_Source\PSoC4/I2C_MPU6050_I2C_MASTER.c ****         I2C_MPU6050_I2C_MASTER_GENERATE_RESTART;
 420:Generated_Source\PSoC4/I2C_MPU6050_I2C_MASTER.c **** 
 421:Generated_Source\PSoC4/I2C_MPU6050_I2C_MASTER.c ****         while(I2C_MPU6050_CHECK_I2C_MASTER_CMD(I2C_MPU6050_I2C_MASTER_CMD_M_START))
 422:Generated_Source\PSoC4/I2C_MPU6050_I2C_MASTER.c ****         {
 423:Generated_Source\PSoC4/I2C_MPU6050_I2C_MASTER.c ****             /* Wait until ReStart has been generated */
 424:Generated_Source\PSoC4/I2C_MPU6050_I2C_MASTER.c ****         }
 425:Generated_Source\PSoC4/I2C_MPU6050_I2C_MASTER.c **** 
 426:Generated_Source\PSoC4/I2C_MPU6050_I2C_MASTER.c ****         /* Put address into TX FIFO */
 427:Generated_Source\PSoC4/I2C_MPU6050_I2C_MASTER.c ****         I2C_MPU6050_TX_FIFO_WR_REG = slaveAddress;
 428:Generated_Source\PSoC4/I2C_MPU6050_I2C_MASTER.c **** 
 429:Generated_Source\PSoC4/I2C_MPU6050_I2C_MASTER.c ****         /* Wait for address to be transferred */
 430:Generated_Source\PSoC4/I2C_MPU6050_I2C_MASTER.c ****         while(!I2C_MPU6050_CHECK_INTR_MASTER(I2C_MPU6050_INTR_MASTER_I2C_ACK      |
 431:Generated_Source\PSoC4/I2C_MPU6050_I2C_MASTER.c ****                                                   I2C_MPU6050_INTR_MASTER_I2C_NACK     |
 432:Generated_Source\PSoC4/I2C_MPU6050_I2C_MASTER.c ****                                                   I2C_MPU6050_INTR_MASTER_I2C_ARB_LOST |
 433:Generated_Source\PSoC4/I2C_MPU6050_I2C_MASTER.c ****                                                   I2C_MPU6050_INTR_MASTER_I2C_BUS_ERROR))
 434:Generated_Source\PSoC4/I2C_MPU6050_I2C_MASTER.c ****         {
 435:Generated_Source\PSoC4/I2C_MPU6050_I2C_MASTER.c ****             /* Wait until address has been transferred */
 436:Generated_Source\PSoC4/I2C_MPU6050_I2C_MASTER.c ****         }
 437:Generated_Source\PSoC4/I2C_MPU6050_I2C_MASTER.c **** 
 438:Generated_Source\PSoC4/I2C_MPU6050_I2C_MASTER.c ****         /* Check results of address phase */
 439:Generated_Source\PSoC4/I2C_MPU6050_I2C_MASTER.c ****         if(I2C_MPU6050_CHECK_INTR_MASTER(I2C_MPU6050_INTR_MASTER_I2C_ACK))
 440:Generated_Source\PSoC4/I2C_MPU6050_I2C_MASTER.c ****         {
 441:Generated_Source\PSoC4/I2C_MPU6050_I2C_MASTER.c ****             errStatus = I2C_MPU6050_I2C_MSTR_NO_ERROR;
 442:Generated_Source\PSoC4/I2C_MPU6050_I2C_MASTER.c ****         }
 443:Generated_Source\PSoC4/I2C_MPU6050_I2C_MASTER.c ****         else if(I2C_MPU6050_CHECK_INTR_MASTER(I2C_MPU6050_INTR_MASTER_I2C_NACK))
 444:Generated_Source\PSoC4/I2C_MPU6050_I2C_MASTER.c ****         {
 445:Generated_Source\PSoC4/I2C_MPU6050_I2C_MASTER.c ****              errStatus = I2C_MPU6050_I2C_MSTR_ERR_LB_NAK;
 446:Generated_Source\PSoC4/I2C_MPU6050_I2C_MASTER.c ****         }
 447:Generated_Source\PSoC4/I2C_MPU6050_I2C_MASTER.c ****         else if(I2C_MPU6050_CHECK_INTR_MASTER(I2C_MPU6050_INTR_MASTER_I2C_ARB_LOST))
 448:Generated_Source\PSoC4/I2C_MPU6050_I2C_MASTER.c ****         {
 449:Generated_Source\PSoC4/I2C_MPU6050_I2C_MASTER.c ****             I2C_MPU6050_state = I2C_MPU6050_I2C_FSM_IDLE;
 450:Generated_Source\PSoC4/I2C_MPU6050_I2C_MASTER.c ****                          errStatus = I2C_MPU6050_I2C_MSTR_ERR_ARB_LOST;
 451:Generated_Source\PSoC4/I2C_MPU6050_I2C_MASTER.c ****                          resetIp   = I2C_MPU6050_I2C_RESET_ERROR;
 452:Generated_Source\PSoC4/I2C_MPU6050_I2C_MASTER.c ****         }
 453:Generated_Source\PSoC4/I2C_MPU6050_I2C_MASTER.c ****         else /* I2C_MPU6050_INTR_MASTER_I2C_BUS_ERROR set is else condition */
 454:Generated_Source\PSoC4/I2C_MPU6050_I2C_MASTER.c ****         {
 455:Generated_Source\PSoC4/I2C_MPU6050_I2C_MASTER.c ****             I2C_MPU6050_state = I2C_MPU6050_I2C_FSM_IDLE;
 456:Generated_Source\PSoC4/I2C_MPU6050_I2C_MASTER.c ****                          errStatus = I2C_MPU6050_I2C_MSTR_ERR_BUS_ERR;
 457:Generated_Source\PSoC4/I2C_MPU6050_I2C_MASTER.c ****                          resetIp   = I2C_MPU6050_I2C_RESET_ERROR;
 458:Generated_Source\PSoC4/I2C_MPU6050_I2C_MASTER.c ****         }
 459:Generated_Source\PSoC4/I2C_MPU6050_I2C_MASTER.c **** 
 460:Generated_Source\PSoC4/I2C_MPU6050_I2C_MASTER.c ****         I2C_MPU6050_ClearMasterInterruptSource(I2C_MPU6050_INTR_MASTER_I2C_ACK      |
 461:Generated_Source\PSoC4/I2C_MPU6050_I2C_MASTER.c ****                                                     I2C_MPU6050_INTR_MASTER_I2C_NACK     |
 462:Generated_Source\PSoC4/I2C_MPU6050_I2C_MASTER.c ****                                                     I2C_MPU6050_INTR_MASTER_I2C_ARB_LOST |
 463:Generated_Source\PSoC4/I2C_MPU6050_I2C_MASTER.c ****                                                     I2C_MPU6050_INTR_MASTER_I2C_BUS_ERROR);
 464:Generated_Source\PSoC4/I2C_MPU6050_I2C_MASTER.c **** 
 465:Generated_Source\PSoC4/I2C_MPU6050_I2C_MASTER.c ****         /* Reset block in case of: LOST_ARB or BUS_ERR */
 466:Generated_Source\PSoC4/I2C_MPU6050_I2C_MASTER.c ****         if(0u != resetIp)
 467:Generated_Source\PSoC4/I2C_MPU6050_I2C_MASTER.c ****         {
 468:Generated_Source\PSoC4/I2C_MPU6050_I2C_MASTER.c ****             I2C_MPU6050_SCB_SW_RESET;
 469:Generated_Source\PSoC4/I2C_MPU6050_I2C_MASTER.c ****         }
 470:Generated_Source\PSoC4/I2C_MPU6050_I2C_MASTER.c ****     }
 471:Generated_Source\PSoC4/I2C_MPU6050_I2C_MASTER.c **** 
 472:Generated_Source\PSoC4/I2C_MPU6050_I2C_MASTER.c ****     return(errStatus);
 473:Generated_Source\PSoC4/I2C_MPU6050_I2C_MASTER.c **** }
 474:Generated_Source\PSoC4/I2C_MPU6050_I2C_MASTER.c **** 
ARM GAS  C:\Users\Asus\AppData\Local\Temp\ccaf8y9d.s 			page 13


 475:Generated_Source\PSoC4/I2C_MPU6050_I2C_MASTER.c **** 
 476:Generated_Source\PSoC4/I2C_MPU6050_I2C_MASTER.c **** /*******************************************************************************
 477:Generated_Source\PSoC4/I2C_MPU6050_I2C_MASTER.c **** * Function Name: I2C_MPU6050_I2CMasterSendStop
 478:Generated_Source\PSoC4/I2C_MPU6050_I2C_MASTER.c **** ********************************************************************************
 479:Generated_Source\PSoC4/I2C_MPU6050_I2C_MASTER.c **** *
 480:Generated_Source\PSoC4/I2C_MPU6050_I2C_MASTER.c **** * Summary:
 481:Generated_Source\PSoC4/I2C_MPU6050_I2C_MASTER.c **** *  Generates Stop condition on the bus.
 482:Generated_Source\PSoC4/I2C_MPU6050_I2C_MASTER.c **** *  At least one byte has to be read if start or restart condition with read
 483:Generated_Source\PSoC4/I2C_MPU6050_I2C_MASTER.c **** *  direction was generated before.
 484:Generated_Source\PSoC4/I2C_MPU6050_I2C_MASTER.c **** *  This function is blocking and does not return until a stop condition
 485:Generated_Source\PSoC4/I2C_MPU6050_I2C_MASTER.c **** *  is generated or error occurred.
 486:Generated_Source\PSoC4/I2C_MPU6050_I2C_MASTER.c **** *
 487:Generated_Source\PSoC4/I2C_MPU6050_I2C_MASTER.c **** * Parameters:
 488:Generated_Source\PSoC4/I2C_MPU6050_I2C_MASTER.c **** *  None
 489:Generated_Source\PSoC4/I2C_MPU6050_I2C_MASTER.c **** *
 490:Generated_Source\PSoC4/I2C_MPU6050_I2C_MASTER.c **** * Return:
 491:Generated_Source\PSoC4/I2C_MPU6050_I2C_MASTER.c **** *  Error status
 492:Generated_Source\PSoC4/I2C_MPU6050_I2C_MASTER.c **** *
 493:Generated_Source\PSoC4/I2C_MPU6050_I2C_MASTER.c **** * Side Effects:
 494:Generated_Source\PSoC4/I2C_MPU6050_I2C_MASTER.c **** *  A valid Start or ReStart condition must be generated before calling
 495:Generated_Source\PSoC4/I2C_MPU6050_I2C_MASTER.c **** *  this function. This function does nothing if Start or ReStart condition
 496:Generated_Source\PSoC4/I2C_MPU6050_I2C_MASTER.c **** *  failed before this function was called.
 497:Generated_Source\PSoC4/I2C_MPU6050_I2C_MASTER.c **** *  For read transfer, at least one byte has to be read before Stop generation.
 498:Generated_Source\PSoC4/I2C_MPU6050_I2C_MASTER.c **** *
 499:Generated_Source\PSoC4/I2C_MPU6050_I2C_MASTER.c **** * Global variables:
 500:Generated_Source\PSoC4/I2C_MPU6050_I2C_MASTER.c **** *  I2C_MPU6050_state - used to store current state of software FSM.
 501:Generated_Source\PSoC4/I2C_MPU6050_I2C_MASTER.c **** *
 502:Generated_Source\PSoC4/I2C_MPU6050_I2C_MASTER.c **** *******************************************************************************/
 503:Generated_Source\PSoC4/I2C_MPU6050_I2C_MASTER.c **** uint32 I2C_MPU6050_I2CMasterSendStop(void)
 504:Generated_Source\PSoC4/I2C_MPU6050_I2C_MASTER.c **** {
 205              		.loc 1 504 0
 206              		.cfi_startproc
 207              		@ args = 0, pretend = 0, frame = 0
 208              		@ frame_needed = 0, uses_anonymous_args = 0
 209 0000 10B5     		push	{r4, lr}
 210              		.cfi_def_cfa_offset 8
 211              		.cfi_offset 4, -8
 212              		.cfi_offset 14, -4
 213              	.LVL22:
 505:Generated_Source\PSoC4/I2C_MPU6050_I2C_MASTER.c ****     uint32 resetIp;
 506:Generated_Source\PSoC4/I2C_MPU6050_I2C_MASTER.c ****     uint32 errStatus;
 507:Generated_Source\PSoC4/I2C_MPU6050_I2C_MASTER.c **** 
 508:Generated_Source\PSoC4/I2C_MPU6050_I2C_MASTER.c ****     resetIp   = 0u;
 509:Generated_Source\PSoC4/I2C_MPU6050_I2C_MASTER.c ****     errStatus = I2C_MPU6050_I2C_MSTR_NOT_READY;
 510:Generated_Source\PSoC4/I2C_MPU6050_I2C_MASTER.c **** 
 511:Generated_Source\PSoC4/I2C_MPU6050_I2C_MASTER.c ****     /* Check FSM state before generating Stop condition */
 512:Generated_Source\PSoC4/I2C_MPU6050_I2C_MASTER.c ****     if(I2C_MPU6050_CHECK_I2C_MASTER_ACTIVE)
 214              		.loc 1 512 0
 215 0002 1A4B     		ldr	r3, .L23
 216 0004 1B78     		ldrb	r3, [r3]
 217 0006 9B06     		lsls	r3, r3, #26
 218 0008 2CD5     		bpl	.L19
 513:Generated_Source\PSoC4/I2C_MPU6050_I2C_MASTER.c ****     {
 514:Generated_Source\PSoC4/I2C_MPU6050_I2C_MASTER.c ****         /*
 515:Generated_Source\PSoC4/I2C_MPU6050_I2C_MASTER.c ****         * Write direction: generates Stop
 516:Generated_Source\PSoC4/I2C_MPU6050_I2C_MASTER.c ****         * Read  direction: generates NACK and Stop
 517:Generated_Source\PSoC4/I2C_MPU6050_I2C_MASTER.c ****         */
ARM GAS  C:\Users\Asus\AppData\Local\Temp\ccaf8y9d.s 			page 14


 518:Generated_Source\PSoC4/I2C_MPU6050_I2C_MASTER.c ****         I2C_MPU6050_I2C_MASTER_GENERATE_STOP;
 219              		.loc 1 518 0
 220 000a 194B     		ldr	r3, .L23+4
 221 000c 1B68     		ldr	r3, [r3]
 222 000e 9B06     		lsls	r3, r3, #26
 223 0010 01D5     		bpl	.L20
 224 0012 1822     		movs	r2, #24
 225 0014 00E0     		b	.L16
 226              	.L20:
 227 0016 1022     		movs	r2, #16
 228              	.L16:
 229              		.loc 1 518 0 is_stmt 0 discriminator 4
 230 0018 164B     		ldr	r3, .L23+8
 231 001a 1A60     		str	r2, [r3]
 232              	.L17:
 519:Generated_Source\PSoC4/I2C_MPU6050_I2C_MASTER.c **** 
 520:Generated_Source\PSoC4/I2C_MPU6050_I2C_MASTER.c ****         while(!I2C_MPU6050_CHECK_INTR_MASTER(I2C_MPU6050_INTR_MASTER_I2C_STOP     |
 233              		.loc 1 520 0 is_stmt 1 discriminator 1
 234 001c 164B     		ldr	r3, .L23+12
 235 001e 1A68     		ldr	r2, [r3]
 236 0020 1223     		movs	r3, #18
 237 0022 FF33     		adds	r3, r3, #255
 238 0024 1A42     		tst	r2, r3
 239 0026 F9D0     		beq	.L17
 521:Generated_Source\PSoC4/I2C_MPU6050_I2C_MASTER.c ****                                                   I2C_MPU6050_INTR_MASTER_I2C_ARB_LOST |
 522:Generated_Source\PSoC4/I2C_MPU6050_I2C_MASTER.c ****                                                   I2C_MPU6050_INTR_MASTER_I2C_BUS_ERROR))
 523:Generated_Source\PSoC4/I2C_MPU6050_I2C_MASTER.c ****         {
 524:Generated_Source\PSoC4/I2C_MPU6050_I2C_MASTER.c ****             /* Wait until Stop has been generated */
 525:Generated_Source\PSoC4/I2C_MPU6050_I2C_MASTER.c ****         }
 526:Generated_Source\PSoC4/I2C_MPU6050_I2C_MASTER.c **** 
 527:Generated_Source\PSoC4/I2C_MPU6050_I2C_MASTER.c ****         /* Check Stop generation */
 528:Generated_Source\PSoC4/I2C_MPU6050_I2C_MASTER.c ****         if(I2C_MPU6050_CHECK_INTR_MASTER(I2C_MPU6050_INTR_MASTER_I2C_STOP))
 240              		.loc 1 528 0
 241 0028 134B     		ldr	r3, .L23+12
 242 002a 1B68     		ldr	r3, [r3]
 243 002c DB06     		lsls	r3, r3, #27
 244 002e 06D4     		bmi	.L21
 529:Generated_Source\PSoC4/I2C_MPU6050_I2C_MASTER.c ****         {
 530:Generated_Source\PSoC4/I2C_MPU6050_I2C_MASTER.c ****             errStatus = I2C_MPU6050_I2C_MSTR_NO_ERROR;
 531:Generated_Source\PSoC4/I2C_MPU6050_I2C_MASTER.c ****         }
 532:Generated_Source\PSoC4/I2C_MPU6050_I2C_MASTER.c ****         else if(I2C_MPU6050_CHECK_INTR_MASTER(I2C_MPU6050_INTR_MASTER_I2C_ARB_LOST))
 245              		.loc 1 532 0
 246 0030 114B     		ldr	r3, .L23+12
 247 0032 1B68     		ldr	r3, [r3]
 248 0034 DB07     		lsls	r3, r3, #31
 249 0036 05D5     		bpl	.L22
 533:Generated_Source\PSoC4/I2C_MPU6050_I2C_MASTER.c ****         {
 534:Generated_Source\PSoC4/I2C_MPU6050_I2C_MASTER.c ****             errStatus = I2C_MPU6050_I2C_MSTR_ERR_ARB_LOST;
 250              		.loc 1 534 0
 251 0038 0124     		movs	r4, #1
 535:Generated_Source\PSoC4/I2C_MPU6050_I2C_MASTER.c ****             resetIp   = I2C_MPU6050_I2C_RESET_ERROR;
 252              		.loc 1 535 0
 253 003a 0121     		movs	r1, #1
 254 003c 05E0     		b	.L18
 255              	.L21:
 530:Generated_Source\PSoC4/I2C_MPU6050_I2C_MASTER.c ****         }
 256              		.loc 1 530 0
ARM GAS  C:\Users\Asus\AppData\Local\Temp\ccaf8y9d.s 			page 15


 257 003e 0024     		movs	r4, #0
 508:Generated_Source\PSoC4/I2C_MPU6050_I2C_MASTER.c ****     errStatus = I2C_MPU6050_I2C_MSTR_NOT_READY;
 258              		.loc 1 508 0
 259 0040 0021     		movs	r1, #0
 260 0042 02E0     		b	.L18
 261              	.L22:
 536:Generated_Source\PSoC4/I2C_MPU6050_I2C_MASTER.c ****         }
 537:Generated_Source\PSoC4/I2C_MPU6050_I2C_MASTER.c ****         else /* I2C_MPU6050_INTR_MASTER_I2C_BUS_ERROR is set */
 538:Generated_Source\PSoC4/I2C_MPU6050_I2C_MASTER.c ****         {
 539:Generated_Source\PSoC4/I2C_MPU6050_I2C_MASTER.c ****             errStatus = I2C_MPU6050_I2C_MSTR_ERR_BUS_ERR;
 262              		.loc 1 539 0
 263 0044 8024     		movs	r4, #128
 264 0046 6400     		lsls	r4, r4, #1
 540:Generated_Source\PSoC4/I2C_MPU6050_I2C_MASTER.c ****             resetIp   = I2C_MPU6050_I2C_RESET_ERROR;
 265              		.loc 1 540 0
 266 0048 0121     		movs	r1, #1
 267              	.L18:
 268              	.LVL23:
 541:Generated_Source\PSoC4/I2C_MPU6050_I2C_MASTER.c ****         }
 542:Generated_Source\PSoC4/I2C_MPU6050_I2C_MASTER.c **** 
 543:Generated_Source\PSoC4/I2C_MPU6050_I2C_MASTER.c ****         I2C_MPU6050_ClearMasterInterruptSource(I2C_MPU6050_INTR_MASTER_I2C_STOP     |
 269              		.loc 1 543 0
 270 004a 1222     		movs	r2, #18
 271 004c FF32     		adds	r2, r2, #255
 272 004e 0A4B     		ldr	r3, .L23+12
 273 0050 1A60     		str	r2, [r3]
 544:Generated_Source\PSoC4/I2C_MPU6050_I2C_MASTER.c ****                                                     I2C_MPU6050_INTR_MASTER_I2C_ARB_LOST |
 545:Generated_Source\PSoC4/I2C_MPU6050_I2C_MASTER.c ****                                                     I2C_MPU6050_INTR_MASTER_I2C_BUS_ERROR);
 546:Generated_Source\PSoC4/I2C_MPU6050_I2C_MASTER.c **** 
 547:Generated_Source\PSoC4/I2C_MPU6050_I2C_MASTER.c ****         I2C_MPU6050_state = I2C_MPU6050_I2C_FSM_IDLE;
 274              		.loc 1 547 0
 275 0052 023A     		subs	r2, r2, #2
 276 0054 FF3A     		subs	r2, r2, #255
 277 0056 054B     		ldr	r3, .L23
 278 0058 1A70     		strb	r2, [r3]
 548:Generated_Source\PSoC4/I2C_MPU6050_I2C_MASTER.c **** 
 549:Generated_Source\PSoC4/I2C_MPU6050_I2C_MASTER.c ****         /* Reset block in case of: LOST_ARB or BUS_ERR */
 550:Generated_Source\PSoC4/I2C_MPU6050_I2C_MASTER.c ****         if(0u != resetIp)
 279              		.loc 1 550 0
 280 005a 0029     		cmp	r1, #0
 281 005c 03D0     		beq	.L15
 551:Generated_Source\PSoC4/I2C_MPU6050_I2C_MASTER.c ****         {
 552:Generated_Source\PSoC4/I2C_MPU6050_I2C_MASTER.c ****             I2C_MPU6050_SCB_SW_RESET;
 282              		.loc 1 552 0
 283 005e FFF7FEFF 		bl	I2C_MPU6050_I2CFwBlockReset
 284              	.LVL24:
 285 0062 00E0     		b	.L15
 286              	.LVL25:
 287              	.L19:
 509:Generated_Source\PSoC4/I2C_MPU6050_I2C_MASTER.c **** 
 288              		.loc 1 509 0
 289 0064 0424     		movs	r4, #4
 290              	.LVL26:
 291              	.L15:
 553:Generated_Source\PSoC4/I2C_MPU6050_I2C_MASTER.c ****         }
 554:Generated_Source\PSoC4/I2C_MPU6050_I2C_MASTER.c ****     }
 555:Generated_Source\PSoC4/I2C_MPU6050_I2C_MASTER.c **** 
ARM GAS  C:\Users\Asus\AppData\Local\Temp\ccaf8y9d.s 			page 16


 556:Generated_Source\PSoC4/I2C_MPU6050_I2C_MASTER.c ****     return(errStatus);
 557:Generated_Source\PSoC4/I2C_MPU6050_I2C_MASTER.c **** }
 292              		.loc 1 557 0
 293 0066 2000     		movs	r0, r4
 294              		@ sp needed
 295              	.LVL27:
 296 0068 10BD     		pop	{r4, pc}
 297              	.L24:
 298 006a C046     		.align	2
 299              	.L23:
 300 006c 00000000 		.word	I2C_MPU6050_state
 301 0070 64002540 		.word	1076166756
 302 0074 68002540 		.word	1076166760
 303 0078 000F2540 		.word	1076170496
 304              		.cfi_endproc
 305              	.LFE6:
 306              		.size	I2C_MPU6050_I2CMasterSendStop, .-I2C_MPU6050_I2CMasterSendStop
 307              		.section	.text.I2C_MPU6050_I2CMasterWriteByte,"ax",%progbits
 308              		.align	2
 309              		.global	I2C_MPU6050_I2CMasterWriteByte
 310              		.code	16
 311              		.thumb_func
 312              		.type	I2C_MPU6050_I2CMasterWriteByte, %function
 313              	I2C_MPU6050_I2CMasterWriteByte:
 314              	.LFB7:
 558:Generated_Source\PSoC4/I2C_MPU6050_I2C_MASTER.c **** 
 559:Generated_Source\PSoC4/I2C_MPU6050_I2C_MASTER.c **** 
 560:Generated_Source\PSoC4/I2C_MPU6050_I2C_MASTER.c **** /*******************************************************************************
 561:Generated_Source\PSoC4/I2C_MPU6050_I2C_MASTER.c **** * Function Name: I2C_MPU6050_I2CMasterWriteByte
 562:Generated_Source\PSoC4/I2C_MPU6050_I2C_MASTER.c **** ********************************************************************************
 563:Generated_Source\PSoC4/I2C_MPU6050_I2C_MASTER.c **** *
 564:Generated_Source\PSoC4/I2C_MPU6050_I2C_MASTER.c **** * Summary:
 565:Generated_Source\PSoC4/I2C_MPU6050_I2C_MASTER.c **** *  Sends one byte to a slave.
 566:Generated_Source\PSoC4/I2C_MPU6050_I2C_MASTER.c **** *  This function is blocking and does not return until byte is transmitted
 567:Generated_Source\PSoC4/I2C_MPU6050_I2C_MASTER.c **** *  or error occurred.
 568:Generated_Source\PSoC4/I2C_MPU6050_I2C_MASTER.c **** *
 569:Generated_Source\PSoC4/I2C_MPU6050_I2C_MASTER.c **** * Parameters:
 570:Generated_Source\PSoC4/I2C_MPU6050_I2C_MASTER.c **** *  data: The data byte to send to the slave.
 571:Generated_Source\PSoC4/I2C_MPU6050_I2C_MASTER.c **** *
 572:Generated_Source\PSoC4/I2C_MPU6050_I2C_MASTER.c **** * Return:
 573:Generated_Source\PSoC4/I2C_MPU6050_I2C_MASTER.c **** *  Error status
 574:Generated_Source\PSoC4/I2C_MPU6050_I2C_MASTER.c **** *
 575:Generated_Source\PSoC4/I2C_MPU6050_I2C_MASTER.c **** * Side Effects:
 576:Generated_Source\PSoC4/I2C_MPU6050_I2C_MASTER.c **** *  A valid Start or ReStart condition must be generated before calling
 577:Generated_Source\PSoC4/I2C_MPU6050_I2C_MASTER.c **** *  this function. This function does nothing if Start or ReStart condition
 578:Generated_Source\PSoC4/I2C_MPU6050_I2C_MASTER.c **** *  failed before this function was called.
 579:Generated_Source\PSoC4/I2C_MPU6050_I2C_MASTER.c **** *
 580:Generated_Source\PSoC4/I2C_MPU6050_I2C_MASTER.c **** * Global variables:
 581:Generated_Source\PSoC4/I2C_MPU6050_I2C_MASTER.c **** *  I2C_MPU6050_state - used to store current state of software FSM.
 582:Generated_Source\PSoC4/I2C_MPU6050_I2C_MASTER.c **** *
 583:Generated_Source\PSoC4/I2C_MPU6050_I2C_MASTER.c **** *******************************************************************************/
 584:Generated_Source\PSoC4/I2C_MPU6050_I2C_MASTER.c **** uint32 I2C_MPU6050_I2CMasterWriteByte(uint32 theByte)
 585:Generated_Source\PSoC4/I2C_MPU6050_I2C_MASTER.c **** {
 315              		.loc 1 585 0
 316              		.cfi_startproc
 317              		@ args = 0, pretend = 0, frame = 0
 318              		@ frame_needed = 0, uses_anonymous_args = 0
ARM GAS  C:\Users\Asus\AppData\Local\Temp\ccaf8y9d.s 			page 17


 319              	.LVL28:
 320 0000 10B5     		push	{r4, lr}
 321              		.cfi_def_cfa_offset 8
 322              		.cfi_offset 4, -8
 323              		.cfi_offset 14, -4
 324              	.LVL29:
 586:Generated_Source\PSoC4/I2C_MPU6050_I2C_MASTER.c ****     uint32 resetIp;
 587:Generated_Source\PSoC4/I2C_MPU6050_I2C_MASTER.c ****     uint32 errStatus;
 588:Generated_Source\PSoC4/I2C_MPU6050_I2C_MASTER.c **** 
 589:Generated_Source\PSoC4/I2C_MPU6050_I2C_MASTER.c ****     resetIp   = 0u;
 590:Generated_Source\PSoC4/I2C_MPU6050_I2C_MASTER.c ****     errStatus = I2C_MPU6050_I2C_MSTR_NOT_READY;
 591:Generated_Source\PSoC4/I2C_MPU6050_I2C_MASTER.c **** 
 592:Generated_Source\PSoC4/I2C_MPU6050_I2C_MASTER.c ****     /* Check FSM state before write byte */
 593:Generated_Source\PSoC4/I2C_MPU6050_I2C_MASTER.c ****     if(I2C_MPU6050_CHECK_I2C_MASTER_ACTIVE)
 325              		.loc 1 593 0
 326 0002 1E4B     		ldr	r3, .L33
 327 0004 1B78     		ldrb	r3, [r3]
 328 0006 9B06     		lsls	r3, r3, #26
 329 0008 34D5     		bpl	.L32
 594:Generated_Source\PSoC4/I2C_MPU6050_I2C_MASTER.c ****     {
 595:Generated_Source\PSoC4/I2C_MPU6050_I2C_MASTER.c ****         I2C_MPU6050_TX_FIFO_WR_REG = theByte;
 330              		.loc 1 595 0
 331 000a 1D4B     		ldr	r3, .L33+4
 332 000c 1860     		str	r0, [r3]
 333              	.L27:
 596:Generated_Source\PSoC4/I2C_MPU6050_I2C_MASTER.c **** 
 597:Generated_Source\PSoC4/I2C_MPU6050_I2C_MASTER.c ****         while(!I2C_MPU6050_CHECK_INTR_MASTER(I2C_MPU6050_INTR_MASTER_I2C_ACK      |
 334              		.loc 1 597 0 discriminator 1
 335 000e 1D4B     		ldr	r3, .L33+8
 336 0010 1A68     		ldr	r2, [r3]
 337 0012 0823     		movs	r3, #8
 338 0014 FF33     		adds	r3, r3, #255
 339 0016 1A42     		tst	r2, r3
 340 0018 F9D0     		beq	.L27
 598:Generated_Source\PSoC4/I2C_MPU6050_I2C_MASTER.c ****                                                   I2C_MPU6050_INTR_MASTER_I2C_NACK     |
 599:Generated_Source\PSoC4/I2C_MPU6050_I2C_MASTER.c ****                                                   I2C_MPU6050_INTR_MASTER_I2C_ARB_LOST |
 600:Generated_Source\PSoC4/I2C_MPU6050_I2C_MASTER.c ****                                                   I2C_MPU6050_INTR_MASTER_I2C_BUS_ERROR))
 601:Generated_Source\PSoC4/I2C_MPU6050_I2C_MASTER.c ****         {
 602:Generated_Source\PSoC4/I2C_MPU6050_I2C_MASTER.c ****             /* Wait until byte has been transferred */
 603:Generated_Source\PSoC4/I2C_MPU6050_I2C_MASTER.c ****         }
 604:Generated_Source\PSoC4/I2C_MPU6050_I2C_MASTER.c **** 
 605:Generated_Source\PSoC4/I2C_MPU6050_I2C_MASTER.c ****         /* Check the results after byte was sent */
 606:Generated_Source\PSoC4/I2C_MPU6050_I2C_MASTER.c ****         if(I2C_MPU6050_CHECK_INTR_MASTER(I2C_MPU6050_INTR_MASTER_I2C_ACK))
 341              		.loc 1 606 0
 342 001a 1A4B     		ldr	r3, .L33+8
 343 001c 1B68     		ldr	r3, [r3]
 344 001e 5B07     		lsls	r3, r3, #29
 345 0020 05D5     		bpl	.L28
 607:Generated_Source\PSoC4/I2C_MPU6050_I2C_MASTER.c ****         {
 608:Generated_Source\PSoC4/I2C_MPU6050_I2C_MASTER.c ****             I2C_MPU6050_state = I2C_MPU6050_I2C_FSM_MSTR_HALT;
 346              		.loc 1 608 0
 347 0022 6022     		movs	r2, #96
 348 0024 154B     		ldr	r3, .L33
 349 0026 1A70     		strb	r2, [r3]
 350              	.LVL30:
 609:Generated_Source\PSoC4/I2C_MPU6050_I2C_MASTER.c ****                          errStatus = I2C_MPU6050_I2C_MSTR_NO_ERROR;
 351              		.loc 1 609 0
ARM GAS  C:\Users\Asus\AppData\Local\Temp\ccaf8y9d.s 			page 18


 352 0028 0024     		movs	r4, #0
 589:Generated_Source\PSoC4/I2C_MPU6050_I2C_MASTER.c ****     errStatus = I2C_MPU6050_I2C_MSTR_NOT_READY;
 353              		.loc 1 589 0
 354 002a 0021     		movs	r1, #0
 355 002c 19E0     		b	.L29
 356              	.LVL31:
 357              	.L28:
 610:Generated_Source\PSoC4/I2C_MPU6050_I2C_MASTER.c ****         }
 611:Generated_Source\PSoC4/I2C_MPU6050_I2C_MASTER.c ****         else if(I2C_MPU6050_CHECK_INTR_MASTER(I2C_MPU6050_INTR_MASTER_I2C_NACK))
 358              		.loc 1 611 0
 359 002e 154B     		ldr	r3, .L33+8
 360 0030 1B68     		ldr	r3, [r3]
 361 0032 9B07     		lsls	r3, r3, #30
 362 0034 05D5     		bpl	.L30
 612:Generated_Source\PSoC4/I2C_MPU6050_I2C_MASTER.c ****         {
 613:Generated_Source\PSoC4/I2C_MPU6050_I2C_MASTER.c ****             I2C_MPU6050_state = I2C_MPU6050_I2C_FSM_MSTR_HALT;
 363              		.loc 1 613 0
 364 0036 6022     		movs	r2, #96
 365 0038 104B     		ldr	r3, .L33
 366 003a 1A70     		strb	r2, [r3]
 367              	.LVL32:
 614:Generated_Source\PSoC4/I2C_MPU6050_I2C_MASTER.c ****                          errStatus = I2C_MPU6050_I2C_MSTR_ERR_LB_NAK;
 368              		.loc 1 614 0
 369 003c 0224     		movs	r4, #2
 589:Generated_Source\PSoC4/I2C_MPU6050_I2C_MASTER.c ****     errStatus = I2C_MPU6050_I2C_MSTR_NOT_READY;
 370              		.loc 1 589 0
 371 003e 0021     		movs	r1, #0
 372 0040 0FE0     		b	.L29
 373              	.LVL33:
 374              	.L30:
 615:Generated_Source\PSoC4/I2C_MPU6050_I2C_MASTER.c ****         }
 616:Generated_Source\PSoC4/I2C_MPU6050_I2C_MASTER.c ****         else if(I2C_MPU6050_CHECK_INTR_MASTER(I2C_MPU6050_INTR_MASTER_I2C_ARB_LOST))
 375              		.loc 1 616 0
 376 0042 104B     		ldr	r3, .L33+8
 377 0044 1B68     		ldr	r3, [r3]
 378 0046 DB07     		lsls	r3, r3, #31
 379 0048 05D5     		bpl	.L31
 617:Generated_Source\PSoC4/I2C_MPU6050_I2C_MASTER.c ****         {
 618:Generated_Source\PSoC4/I2C_MPU6050_I2C_MASTER.c ****             I2C_MPU6050_state = I2C_MPU6050_I2C_FSM_IDLE;
 380              		.loc 1 618 0
 381 004a 1022     		movs	r2, #16
 382 004c 0B4B     		ldr	r3, .L33
 383 004e 1A70     		strb	r2, [r3]
 384              	.LVL34:
 619:Generated_Source\PSoC4/I2C_MPU6050_I2C_MASTER.c ****                          errStatus = I2C_MPU6050_I2C_MSTR_ERR_ARB_LOST;
 385              		.loc 1 619 0
 386 0050 0124     		movs	r4, #1
 620:Generated_Source\PSoC4/I2C_MPU6050_I2C_MASTER.c ****                          resetIp   = I2C_MPU6050_I2C_RESET_ERROR;
 387              		.loc 1 620 0
 388 0052 0121     		movs	r1, #1
 389 0054 05E0     		b	.L29
 390              	.LVL35:
 391              	.L31:
 621:Generated_Source\PSoC4/I2C_MPU6050_I2C_MASTER.c ****         }
 622:Generated_Source\PSoC4/I2C_MPU6050_I2C_MASTER.c ****         else /* I2C_MPU6050_INTR_MASTER_I2C_BUS_ERROR set is */
 623:Generated_Source\PSoC4/I2C_MPU6050_I2C_MASTER.c ****         {
 624:Generated_Source\PSoC4/I2C_MPU6050_I2C_MASTER.c ****             I2C_MPU6050_state = I2C_MPU6050_I2C_FSM_IDLE;
ARM GAS  C:\Users\Asus\AppData\Local\Temp\ccaf8y9d.s 			page 19


 392              		.loc 1 624 0
 393 0056 1022     		movs	r2, #16
 394 0058 084B     		ldr	r3, .L33
 395 005a 1A70     		strb	r2, [r3]
 396              	.LVL36:
 625:Generated_Source\PSoC4/I2C_MPU6050_I2C_MASTER.c ****                          errStatus = I2C_MPU6050_I2C_MSTR_ERR_BUS_ERR;
 397              		.loc 1 625 0
 398 005c 8024     		movs	r4, #128
 399 005e 6400     		lsls	r4, r4, #1
 626:Generated_Source\PSoC4/I2C_MPU6050_I2C_MASTER.c ****                          resetIp   = I2C_MPU6050_I2C_RESET_ERROR;
 400              		.loc 1 626 0
 401 0060 0121     		movs	r1, #1
 402              	.LVL37:
 403              	.L29:
 627:Generated_Source\PSoC4/I2C_MPU6050_I2C_MASTER.c ****         }
 628:Generated_Source\PSoC4/I2C_MPU6050_I2C_MASTER.c **** 
 629:Generated_Source\PSoC4/I2C_MPU6050_I2C_MASTER.c ****         I2C_MPU6050_ClearMasterInterruptSource(I2C_MPU6050_INTR_MASTER_I2C_ACK      |
 404              		.loc 1 629 0
 405 0062 0822     		movs	r2, #8
 406 0064 FF32     		adds	r2, r2, #255
 407 0066 074B     		ldr	r3, .L33+8
 408 0068 1A60     		str	r2, [r3]
 630:Generated_Source\PSoC4/I2C_MPU6050_I2C_MASTER.c ****                                                     I2C_MPU6050_INTR_MASTER_I2C_NACK     |
 631:Generated_Source\PSoC4/I2C_MPU6050_I2C_MASTER.c ****                                                     I2C_MPU6050_INTR_MASTER_I2C_ARB_LOST |
 632:Generated_Source\PSoC4/I2C_MPU6050_I2C_MASTER.c ****                                                     I2C_MPU6050_INTR_MASTER_I2C_BUS_ERROR);
 633:Generated_Source\PSoC4/I2C_MPU6050_I2C_MASTER.c **** 
 634:Generated_Source\PSoC4/I2C_MPU6050_I2C_MASTER.c ****         /* Reset block in case of: LOST_ARB or BUS_ERR */
 635:Generated_Source\PSoC4/I2C_MPU6050_I2C_MASTER.c ****         if(0u != resetIp)
 409              		.loc 1 635 0
 410 006a 0029     		cmp	r1, #0
 411 006c 03D0     		beq	.L26
 636:Generated_Source\PSoC4/I2C_MPU6050_I2C_MASTER.c ****         {
 637:Generated_Source\PSoC4/I2C_MPU6050_I2C_MASTER.c ****             I2C_MPU6050_SCB_SW_RESET;
 412              		.loc 1 637 0
 413 006e FFF7FEFF 		bl	I2C_MPU6050_I2CFwBlockReset
 414              	.LVL38:
 415 0072 00E0     		b	.L26
 416              	.LVL39:
 417              	.L32:
 590:Generated_Source\PSoC4/I2C_MPU6050_I2C_MASTER.c **** 
 418              		.loc 1 590 0
 419 0074 0424     		movs	r4, #4
 420              	.LVL40:
 421              	.L26:
 638:Generated_Source\PSoC4/I2C_MPU6050_I2C_MASTER.c ****         }
 639:Generated_Source\PSoC4/I2C_MPU6050_I2C_MASTER.c ****     }
 640:Generated_Source\PSoC4/I2C_MPU6050_I2C_MASTER.c **** 
 641:Generated_Source\PSoC4/I2C_MPU6050_I2C_MASTER.c ****     return(errStatus);
 642:Generated_Source\PSoC4/I2C_MPU6050_I2C_MASTER.c **** }
 422              		.loc 1 642 0
 423 0076 2000     		movs	r0, r4
 424              		@ sp needed
 425              	.LVL41:
 426 0078 10BD     		pop	{r4, pc}
 427              	.L34:
 428 007a C046     		.align	2
 429              	.L33:
ARM GAS  C:\Users\Asus\AppData\Local\Temp\ccaf8y9d.s 			page 20


 430 007c 00000000 		.word	I2C_MPU6050_state
 431 0080 40022540 		.word	1076167232
 432 0084 000F2540 		.word	1076170496
 433              		.cfi_endproc
 434              	.LFE7:
 435              		.size	I2C_MPU6050_I2CMasterWriteByte, .-I2C_MPU6050_I2CMasterWriteByte
 436              		.section	.text.I2C_MPU6050_I2CMasterReadByte,"ax",%progbits
 437              		.align	2
 438              		.global	I2C_MPU6050_I2CMasterReadByte
 439              		.code	16
 440              		.thumb_func
 441              		.type	I2C_MPU6050_I2CMasterReadByte, %function
 442              	I2C_MPU6050_I2CMasterReadByte:
 443              	.LFB8:
 643:Generated_Source\PSoC4/I2C_MPU6050_I2C_MASTER.c **** 
 644:Generated_Source\PSoC4/I2C_MPU6050_I2C_MASTER.c **** 
 645:Generated_Source\PSoC4/I2C_MPU6050_I2C_MASTER.c **** /*******************************************************************************
 646:Generated_Source\PSoC4/I2C_MPU6050_I2C_MASTER.c **** * Function Name: I2C_MPU6050_I2CMasterReadByte
 647:Generated_Source\PSoC4/I2C_MPU6050_I2C_MASTER.c **** ********************************************************************************
 648:Generated_Source\PSoC4/I2C_MPU6050_I2C_MASTER.c **** *
 649:Generated_Source\PSoC4/I2C_MPU6050_I2C_MASTER.c **** * Summary:
 650:Generated_Source\PSoC4/I2C_MPU6050_I2C_MASTER.c **** *  Reads one byte from a slave and ACKs or NAKs received byte.
 651:Generated_Source\PSoC4/I2C_MPU6050_I2C_MASTER.c **** *  This function does not generate NAK explicitly. The following call
 652:Generated_Source\PSoC4/I2C_MPU6050_I2C_MASTER.c **** *  SCB_I2CMasterSendStop() or SCB_I2CMasterSendRestart() will generate NAK and
 653:Generated_Source\PSoC4/I2C_MPU6050_I2C_MASTER.c **** *  Stop or ReStart condition appropriately.
 654:Generated_Source\PSoC4/I2C_MPU6050_I2C_MASTER.c **** *  This function is blocking and does not return until byte is received
 655:Generated_Source\PSoC4/I2C_MPU6050_I2C_MASTER.c **** *  or error occurred.
 656:Generated_Source\PSoC4/I2C_MPU6050_I2C_MASTER.c **** *
 657:Generated_Source\PSoC4/I2C_MPU6050_I2C_MASTER.c **** * Parameters:
 658:Generated_Source\PSoC4/I2C_MPU6050_I2C_MASTER.c **** *  ackNack: Response to received byte.
 659:Generated_Source\PSoC4/I2C_MPU6050_I2C_MASTER.c **** *
 660:Generated_Source\PSoC4/I2C_MPU6050_I2C_MASTER.c **** * Return:
 661:Generated_Source\PSoC4/I2C_MPU6050_I2C_MASTER.c **** *  Byte read from the slave. In case of error the MSB of returned data
 662:Generated_Source\PSoC4/I2C_MPU6050_I2C_MASTER.c **** *  is set to 1.
 663:Generated_Source\PSoC4/I2C_MPU6050_I2C_MASTER.c **** *
 664:Generated_Source\PSoC4/I2C_MPU6050_I2C_MASTER.c **** * Side Effects:
 665:Generated_Source\PSoC4/I2C_MPU6050_I2C_MASTER.c **** *  A valid Start or ReStart condition must be generated before calling this
 666:Generated_Source\PSoC4/I2C_MPU6050_I2C_MASTER.c **** *  function. This function does nothing and returns invalid byte value
 667:Generated_Source\PSoC4/I2C_MPU6050_I2C_MASTER.c **** *  if Start or ReStart conditions failed before this function was called.
 668:Generated_Source\PSoC4/I2C_MPU6050_I2C_MASTER.c **** *
 669:Generated_Source\PSoC4/I2C_MPU6050_I2C_MASTER.c **** * Global variables:
 670:Generated_Source\PSoC4/I2C_MPU6050_I2C_MASTER.c **** *  I2C_MPU6050_state - used to store current state of software FSM.
 671:Generated_Source\PSoC4/I2C_MPU6050_I2C_MASTER.c **** *
 672:Generated_Source\PSoC4/I2C_MPU6050_I2C_MASTER.c **** *******************************************************************************/
 673:Generated_Source\PSoC4/I2C_MPU6050_I2C_MASTER.c **** uint32 I2C_MPU6050_I2CMasterReadByte(uint32 ackNack)
 674:Generated_Source\PSoC4/I2C_MPU6050_I2C_MASTER.c **** {
 444              		.loc 1 674 0
 445              		.cfi_startproc
 446              		@ args = 0, pretend = 0, frame = 0
 447              		@ frame_needed = 0, uses_anonymous_args = 0
 448              	.LVL42:
 449 0000 10B5     		push	{r4, lr}
 450              		.cfi_def_cfa_offset 8
 451              		.cfi_offset 4, -8
 452              		.cfi_offset 14, -4
 453 0002 0100     		movs	r1, r0
 454              	.LVL43:
ARM GAS  C:\Users\Asus\AppData\Local\Temp\ccaf8y9d.s 			page 21


 675:Generated_Source\PSoC4/I2C_MPU6050_I2C_MASTER.c ****     uint32 theByte;
 676:Generated_Source\PSoC4/I2C_MPU6050_I2C_MASTER.c **** 
 677:Generated_Source\PSoC4/I2C_MPU6050_I2C_MASTER.c ****     /* Return invalid byte in case BUS_ERR happen during receiving */
 678:Generated_Source\PSoC4/I2C_MPU6050_I2C_MASTER.c ****     theByte = I2C_MPU6050_I2C_INVALID_BYTE;
 679:Generated_Source\PSoC4/I2C_MPU6050_I2C_MASTER.c **** 
 680:Generated_Source\PSoC4/I2C_MPU6050_I2C_MASTER.c ****     /* Check FSM state before read byte */
 681:Generated_Source\PSoC4/I2C_MPU6050_I2C_MASTER.c ****     if(I2C_MPU6050_CHECK_I2C_MASTER_ACTIVE)
 455              		.loc 1 681 0
 456 0004 154B     		ldr	r3, .L42
 457 0006 1B78     		ldrb	r3, [r3]
 458 0008 9B06     		lsls	r3, r3, #26
 459 000a 23D5     		bpl	.L41
 460              	.L38:
 682:Generated_Source\PSoC4/I2C_MPU6050_I2C_MASTER.c ****     {
 683:Generated_Source\PSoC4/I2C_MPU6050_I2C_MASTER.c ****         while((!I2C_MPU6050_CHECK_INTR_RX(I2C_MPU6050_INTR_RX_NOT_EMPTY)) &&
 461              		.loc 1 683 0 discriminator 2
 462 000c 144B     		ldr	r3, .L42+4
 463 000e 1B68     		ldr	r3, [r3]
 464 0010 5B07     		lsls	r3, r3, #29
 465 0012 05D4     		bmi	.L37
 684:Generated_Source\PSoC4/I2C_MPU6050_I2C_MASTER.c ****               (!I2C_MPU6050_CHECK_INTR_MASTER(I2C_MPU6050_INTR_MASTER_I2C_ARB_LOST |
 466              		.loc 1 684 0 discriminator 1
 467 0014 134B     		ldr	r3, .L42+8
 468 0016 1A68     		ldr	r2, [r3]
 469 0018 0223     		movs	r3, #2
 470 001a FF33     		adds	r3, r3, #255
 683:Generated_Source\PSoC4/I2C_MPU6050_I2C_MASTER.c ****               (!I2C_MPU6050_CHECK_INTR_MASTER(I2C_MPU6050_INTR_MASTER_I2C_ARB_LOST |
 471              		.loc 1 683 0 discriminator 1
 472 001c 1A42     		tst	r2, r3
 473 001e F5D0     		beq	.L38
 474              	.L37:
 685:Generated_Source\PSoC4/I2C_MPU6050_I2C_MASTER.c ****                                                   I2C_MPU6050_INTR_MASTER_I2C_BUS_ERROR)))
 686:Generated_Source\PSoC4/I2C_MPU6050_I2C_MASTER.c ****         {
 687:Generated_Source\PSoC4/I2C_MPU6050_I2C_MASTER.c ****             /* Wait until byte has been received */
 688:Generated_Source\PSoC4/I2C_MPU6050_I2C_MASTER.c ****         }
 689:Generated_Source\PSoC4/I2C_MPU6050_I2C_MASTER.c **** 
 690:Generated_Source\PSoC4/I2C_MPU6050_I2C_MASTER.c ****         /* Check the results after the byte was sent */
 691:Generated_Source\PSoC4/I2C_MPU6050_I2C_MASTER.c ****         if(I2C_MPU6050_CHECK_INTR_RX(I2C_MPU6050_INTR_RX_NOT_EMPTY))
 475              		.loc 1 691 0
 476 0020 0F4B     		ldr	r3, .L42+4
 477 0022 1B68     		ldr	r3, [r3]
 478 0024 5B07     		lsls	r3, r3, #29
 479 0026 0DD5     		bpl	.L39
 692:Generated_Source\PSoC4/I2C_MPU6050_I2C_MASTER.c ****         {
 693:Generated_Source\PSoC4/I2C_MPU6050_I2C_MASTER.c ****             theByte = I2C_MPU6050_RX_FIFO_RD_REG;
 480              		.loc 1 693 0
 481 0028 0F4B     		ldr	r3, .L42+12
 482 002a 1868     		ldr	r0, [r3]
 483              	.LVL44:
 694:Generated_Source\PSoC4/I2C_MPU6050_I2C_MASTER.c **** 
 695:Generated_Source\PSoC4/I2C_MPU6050_I2C_MASTER.c ****             I2C_MPU6050_ClearRxInterruptSource(I2C_MPU6050_INTR_RX_NOT_EMPTY);
 484              		.loc 1 695 0
 485 002c 0422     		movs	r2, #4
 486 002e 0C4B     		ldr	r3, .L42+4
 487 0030 1A60     		str	r2, [r3]
 696:Generated_Source\PSoC4/I2C_MPU6050_I2C_MASTER.c **** 
 697:Generated_Source\PSoC4/I2C_MPU6050_I2C_MASTER.c ****             if(0u == ackNack)
ARM GAS  C:\Users\Asus\AppData\Local\Temp\ccaf8y9d.s 			page 22


 488              		.loc 1 697 0
 489 0032 0029     		cmp	r1, #0
 490 0034 02D1     		bne	.L40
 698:Generated_Source\PSoC4/I2C_MPU6050_I2C_MASTER.c ****             {
 699:Generated_Source\PSoC4/I2C_MPU6050_I2C_MASTER.c ****                 I2C_MPU6050_I2C_MASTER_GENERATE_ACK;
 491              		.loc 1 699 0
 492 0036 0D4B     		ldr	r3, .L42+16
 493 0038 1A60     		str	r2, [r3]
 494 003a 0DE0     		b	.L36
 495              	.L40:
 700:Generated_Source\PSoC4/I2C_MPU6050_I2C_MASTER.c ****             }
 701:Generated_Source\PSoC4/I2C_MPU6050_I2C_MASTER.c ****             else
 702:Generated_Source\PSoC4/I2C_MPU6050_I2C_MASTER.c ****             {
 703:Generated_Source\PSoC4/I2C_MPU6050_I2C_MASTER.c ****                 /* NACK is generated by Stop or ReStart command*/
 704:Generated_Source\PSoC4/I2C_MPU6050_I2C_MASTER.c ****                 I2C_MPU6050_state = I2C_MPU6050_I2C_FSM_MSTR_HALT;
 496              		.loc 1 704 0
 497 003c 6022     		movs	r2, #96
 498 003e 074B     		ldr	r3, .L42
 499 0040 1A70     		strb	r2, [r3]
 500 0042 09E0     		b	.L36
 501              	.LVL45:
 502              	.L39:
 705:Generated_Source\PSoC4/I2C_MPU6050_I2C_MASTER.c ****             }
 706:Generated_Source\PSoC4/I2C_MPU6050_I2C_MASTER.c ****         }
 707:Generated_Source\PSoC4/I2C_MPU6050_I2C_MASTER.c ****         else
 708:Generated_Source\PSoC4/I2C_MPU6050_I2C_MASTER.c ****         {
 709:Generated_Source\PSoC4/I2C_MPU6050_I2C_MASTER.c ****             I2C_MPU6050_ClearMasterInterruptSource(I2C_MPU6050_INTR_MASTER_ALL);
 503              		.loc 1 709 0
 504 0044 0A4A     		ldr	r2, .L42+20
 505 0046 074B     		ldr	r3, .L42+8
 506 0048 1A60     		str	r2, [r3]
 710:Generated_Source\PSoC4/I2C_MPU6050_I2C_MASTER.c **** 
 711:Generated_Source\PSoC4/I2C_MPU6050_I2C_MASTER.c ****             /* Reset block in case of: LOST_ARB or BUS_ERR */
 712:Generated_Source\PSoC4/I2C_MPU6050_I2C_MASTER.c ****             I2C_MPU6050_SCB_SW_RESET;
 507              		.loc 1 712 0
 508 004a FFF7FEFF 		bl	I2C_MPU6050_I2CFwBlockReset
 509              	.LVL46:
 678:Generated_Source\PSoC4/I2C_MPU6050_I2C_MASTER.c **** 
 510              		.loc 1 678 0
 511 004e 0120     		movs	r0, #1
 512 0050 4042     		rsbs	r0, r0, #0
 513 0052 01E0     		b	.L36
 514              	.LVL47:
 515              	.L41:
 516 0054 0120     		movs	r0, #1
 517              	.LVL48:
 518 0056 4042     		rsbs	r0, r0, #0
 519              	.LVL49:
 520              	.L36:
 713:Generated_Source\PSoC4/I2C_MPU6050_I2C_MASTER.c ****         }
 714:Generated_Source\PSoC4/I2C_MPU6050_I2C_MASTER.c ****     }
 715:Generated_Source\PSoC4/I2C_MPU6050_I2C_MASTER.c **** 
 716:Generated_Source\PSoC4/I2C_MPU6050_I2C_MASTER.c ****     return(theByte);
 717:Generated_Source\PSoC4/I2C_MPU6050_I2C_MASTER.c **** }
 521              		.loc 1 717 0
 522              		@ sp needed
 523 0058 10BD     		pop	{r4, pc}
ARM GAS  C:\Users\Asus\AppData\Local\Temp\ccaf8y9d.s 			page 23


 524              	.L43:
 525 005a C046     		.align	2
 526              	.L42:
 527 005c 00000000 		.word	I2C_MPU6050_state
 528 0060 C00F2540 		.word	1076170688
 529 0064 000F2540 		.word	1076170496
 530 0068 40032540 		.word	1076167488
 531 006c 68002540 		.word	1076166760
 532 0070 17030000 		.word	791
 533              		.cfi_endproc
 534              	.LFE8:
 535              		.size	I2C_MPU6050_I2CMasterReadByte, .-I2C_MPU6050_I2CMasterReadByte
 536              		.section	.text.I2C_MPU6050_I2CMasterGetReadBufSize,"ax",%progbits
 537              		.align	2
 538              		.global	I2C_MPU6050_I2CMasterGetReadBufSize
 539              		.code	16
 540              		.thumb_func
 541              		.type	I2C_MPU6050_I2CMasterGetReadBufSize, %function
 542              	I2C_MPU6050_I2CMasterGetReadBufSize:
 543              	.LFB9:
 718:Generated_Source\PSoC4/I2C_MPU6050_I2C_MASTER.c **** 
 719:Generated_Source\PSoC4/I2C_MPU6050_I2C_MASTER.c **** 
 720:Generated_Source\PSoC4/I2C_MPU6050_I2C_MASTER.c **** /*******************************************************************************
 721:Generated_Source\PSoC4/I2C_MPU6050_I2C_MASTER.c **** * Function Name: I2C_MPU6050_I2CMasterGetReadBufSize
 722:Generated_Source\PSoC4/I2C_MPU6050_I2C_MASTER.c **** ********************************************************************************
 723:Generated_Source\PSoC4/I2C_MPU6050_I2C_MASTER.c **** *
 724:Generated_Source\PSoC4/I2C_MPU6050_I2C_MASTER.c **** * Summary:
 725:Generated_Source\PSoC4/I2C_MPU6050_I2C_MASTER.c **** *  Returns the number of bytes that has been transferred with an
 726:Generated_Source\PSoC4/I2C_MPU6050_I2C_MASTER.c **** *  SCB_I2CMasterReadBuf() function.
 727:Generated_Source\PSoC4/I2C_MPU6050_I2C_MASTER.c **** *
 728:Generated_Source\PSoC4/I2C_MPU6050_I2C_MASTER.c **** * Parameters:
 729:Generated_Source\PSoC4/I2C_MPU6050_I2C_MASTER.c **** *  None
 730:Generated_Source\PSoC4/I2C_MPU6050_I2C_MASTER.c **** *
 731:Generated_Source\PSoC4/I2C_MPU6050_I2C_MASTER.c **** * Return:
 732:Generated_Source\PSoC4/I2C_MPU6050_I2C_MASTER.c **** *  Byte count of transfer. If the transfer is not yet complete, it returns
 733:Generated_Source\PSoC4/I2C_MPU6050_I2C_MASTER.c **** *  the byte count transferred so far.
 734:Generated_Source\PSoC4/I2C_MPU6050_I2C_MASTER.c **** *
 735:Generated_Source\PSoC4/I2C_MPU6050_I2C_MASTER.c **** * Side Effects:
 736:Generated_Source\PSoC4/I2C_MPU6050_I2C_MASTER.c **** *  This function returns not valid value if SCB_I2C_MSTAT_ERR_ARB_LOST
 737:Generated_Source\PSoC4/I2C_MPU6050_I2C_MASTER.c **** *  or SCB_I2C_MSTAT_ERR_BUS_ERROR occurred while read transfer.
 738:Generated_Source\PSoC4/I2C_MPU6050_I2C_MASTER.c **** *
 739:Generated_Source\PSoC4/I2C_MPU6050_I2C_MASTER.c **** * Global variables:
 740:Generated_Source\PSoC4/I2C_MPU6050_I2C_MASTER.c **** *  I2C_MPU6050_mstrRdBufIndex - used to current index within master read
 741:Generated_Source\PSoC4/I2C_MPU6050_I2C_MASTER.c **** *  buffer.
 742:Generated_Source\PSoC4/I2C_MPU6050_I2C_MASTER.c **** *
 743:Generated_Source\PSoC4/I2C_MPU6050_I2C_MASTER.c **** *******************************************************************************/
 744:Generated_Source\PSoC4/I2C_MPU6050_I2C_MASTER.c **** uint32 I2C_MPU6050_I2CMasterGetReadBufSize(void)
 745:Generated_Source\PSoC4/I2C_MPU6050_I2C_MASTER.c **** {
 544              		.loc 1 745 0
 545              		.cfi_startproc
 546              		@ args = 0, pretend = 0, frame = 0
 547              		@ frame_needed = 0, uses_anonymous_args = 0
 548              		@ link register save eliminated.
 746:Generated_Source\PSoC4/I2C_MPU6050_I2C_MASTER.c ****     return(I2C_MPU6050_mstrRdBufIndex);
 549              		.loc 1 746 0
 550 0000 014B     		ldr	r3, .L45
 551 0002 1868     		ldr	r0, [r3]
ARM GAS  C:\Users\Asus\AppData\Local\Temp\ccaf8y9d.s 			page 24


 747:Generated_Source\PSoC4/I2C_MPU6050_I2C_MASTER.c **** }
 552              		.loc 1 747 0
 553              		@ sp needed
 554 0004 7047     		bx	lr
 555              	.L46:
 556 0006 C046     		.align	2
 557              	.L45:
 558 0008 00000000 		.word	I2C_MPU6050_mstrRdBufIndex
 559              		.cfi_endproc
 560              	.LFE9:
 561              		.size	I2C_MPU6050_I2CMasterGetReadBufSize, .-I2C_MPU6050_I2CMasterGetReadBufSize
 562              		.section	.text.I2C_MPU6050_I2CMasterGetWriteBufSize,"ax",%progbits
 563              		.align	2
 564              		.global	I2C_MPU6050_I2CMasterGetWriteBufSize
 565              		.code	16
 566              		.thumb_func
 567              		.type	I2C_MPU6050_I2CMasterGetWriteBufSize, %function
 568              	I2C_MPU6050_I2CMasterGetWriteBufSize:
 569              	.LFB10:
 748:Generated_Source\PSoC4/I2C_MPU6050_I2C_MASTER.c **** 
 749:Generated_Source\PSoC4/I2C_MPU6050_I2C_MASTER.c **** 
 750:Generated_Source\PSoC4/I2C_MPU6050_I2C_MASTER.c **** /*******************************************************************************
 751:Generated_Source\PSoC4/I2C_MPU6050_I2C_MASTER.c **** * Function Name: I2C_MPU6050_I2CMasterGetWriteBufSize
 752:Generated_Source\PSoC4/I2C_MPU6050_I2C_MASTER.c **** ********************************************************************************
 753:Generated_Source\PSoC4/I2C_MPU6050_I2C_MASTER.c **** *
 754:Generated_Source\PSoC4/I2C_MPU6050_I2C_MASTER.c **** * Summary:
 755:Generated_Source\PSoC4/I2C_MPU6050_I2C_MASTER.c **** *  Returns the number of bytes that have been transferred with an
 756:Generated_Source\PSoC4/I2C_MPU6050_I2C_MASTER.c **** *  SCB_I2CMasterWriteBuf() function.
 757:Generated_Source\PSoC4/I2C_MPU6050_I2C_MASTER.c **** *
 758:Generated_Source\PSoC4/I2C_MPU6050_I2C_MASTER.c **** * Parameters:
 759:Generated_Source\PSoC4/I2C_MPU6050_I2C_MASTER.c **** *  None
 760:Generated_Source\PSoC4/I2C_MPU6050_I2C_MASTER.c **** *
 761:Generated_Source\PSoC4/I2C_MPU6050_I2C_MASTER.c **** * Return:
 762:Generated_Source\PSoC4/I2C_MPU6050_I2C_MASTER.c **** *  Byte count of transfer. If the transfer is not yet complete, it returns
 763:Generated_Source\PSoC4/I2C_MPU6050_I2C_MASTER.c **** *  zero unit transfer completion.
 764:Generated_Source\PSoC4/I2C_MPU6050_I2C_MASTER.c **** *
 765:Generated_Source\PSoC4/I2C_MPU6050_I2C_MASTER.c **** * Side Effects:
 766:Generated_Source\PSoC4/I2C_MPU6050_I2C_MASTER.c **** *  This function returns not valid value if SCB_I2C_MSTAT_ERR_ARB_LOST
 767:Generated_Source\PSoC4/I2C_MPU6050_I2C_MASTER.c **** *  or SCB_I2C_MSTAT_ERR_BUS_ERROR occurred while read transfer.
 768:Generated_Source\PSoC4/I2C_MPU6050_I2C_MASTER.c **** *
 769:Generated_Source\PSoC4/I2C_MPU6050_I2C_MASTER.c **** * Global variables:
 770:Generated_Source\PSoC4/I2C_MPU6050_I2C_MASTER.c **** *  I2C_MPU6050_mstrWrBufIndex - used to current index within master write
 771:Generated_Source\PSoC4/I2C_MPU6050_I2C_MASTER.c **** *  buffer.
 772:Generated_Source\PSoC4/I2C_MPU6050_I2C_MASTER.c **** *
 773:Generated_Source\PSoC4/I2C_MPU6050_I2C_MASTER.c **** *******************************************************************************/
 774:Generated_Source\PSoC4/I2C_MPU6050_I2C_MASTER.c **** uint32 I2C_MPU6050_I2CMasterGetWriteBufSize(void)
 775:Generated_Source\PSoC4/I2C_MPU6050_I2C_MASTER.c **** {
 570              		.loc 1 775 0
 571              		.cfi_startproc
 572              		@ args = 0, pretend = 0, frame = 0
 573              		@ frame_needed = 0, uses_anonymous_args = 0
 574              		@ link register save eliminated.
 776:Generated_Source\PSoC4/I2C_MPU6050_I2C_MASTER.c ****     return(I2C_MPU6050_mstrWrBufIndex);
 575              		.loc 1 776 0
 576 0000 014B     		ldr	r3, .L48
 577 0002 1868     		ldr	r0, [r3]
 777:Generated_Source\PSoC4/I2C_MPU6050_I2C_MASTER.c **** }
ARM GAS  C:\Users\Asus\AppData\Local\Temp\ccaf8y9d.s 			page 25


 578              		.loc 1 777 0
 579              		@ sp needed
 580 0004 7047     		bx	lr
 581              	.L49:
 582 0006 C046     		.align	2
 583              	.L48:
 584 0008 00000000 		.word	I2C_MPU6050_mstrWrBufIndex
 585              		.cfi_endproc
 586              	.LFE10:
 587              		.size	I2C_MPU6050_I2CMasterGetWriteBufSize, .-I2C_MPU6050_I2CMasterGetWriteBufSize
 588              		.section	.text.I2C_MPU6050_I2CMasterClearReadBuf,"ax",%progbits
 589              		.align	2
 590              		.global	I2C_MPU6050_I2CMasterClearReadBuf
 591              		.code	16
 592              		.thumb_func
 593              		.type	I2C_MPU6050_I2CMasterClearReadBuf, %function
 594              	I2C_MPU6050_I2CMasterClearReadBuf:
 595              	.LFB11:
 778:Generated_Source\PSoC4/I2C_MPU6050_I2C_MASTER.c **** 
 779:Generated_Source\PSoC4/I2C_MPU6050_I2C_MASTER.c **** 
 780:Generated_Source\PSoC4/I2C_MPU6050_I2C_MASTER.c **** /*******************************************************************************
 781:Generated_Source\PSoC4/I2C_MPU6050_I2C_MASTER.c **** * Function Name: I2C_MPU6050_I2CMasterClearReadBuf
 782:Generated_Source\PSoC4/I2C_MPU6050_I2C_MASTER.c **** ********************************************************************************
 783:Generated_Source\PSoC4/I2C_MPU6050_I2C_MASTER.c **** *
 784:Generated_Source\PSoC4/I2C_MPU6050_I2C_MASTER.c **** * Summary:
 785:Generated_Source\PSoC4/I2C_MPU6050_I2C_MASTER.c **** *  Resets the read buffer pointer back to the first byte in the buffer.
 786:Generated_Source\PSoC4/I2C_MPU6050_I2C_MASTER.c **** *
 787:Generated_Source\PSoC4/I2C_MPU6050_I2C_MASTER.c **** * Parameters:
 788:Generated_Source\PSoC4/I2C_MPU6050_I2C_MASTER.c **** *  None
 789:Generated_Source\PSoC4/I2C_MPU6050_I2C_MASTER.c **** *
 790:Generated_Source\PSoC4/I2C_MPU6050_I2C_MASTER.c **** * Return:
 791:Generated_Source\PSoC4/I2C_MPU6050_I2C_MASTER.c **** *  None
 792:Generated_Source\PSoC4/I2C_MPU6050_I2C_MASTER.c **** *
 793:Generated_Source\PSoC4/I2C_MPU6050_I2C_MASTER.c **** * Global variables:
 794:Generated_Source\PSoC4/I2C_MPU6050_I2C_MASTER.c **** *  I2C_MPU6050_mstrRdBufIndex - used to current index within master read
 795:Generated_Source\PSoC4/I2C_MPU6050_I2C_MASTER.c **** *   buffer.
 796:Generated_Source\PSoC4/I2C_MPU6050_I2C_MASTER.c **** *  I2C_MPU6050_mstrStatus - used to store current status of I2C Master.
 797:Generated_Source\PSoC4/I2C_MPU6050_I2C_MASTER.c **** *
 798:Generated_Source\PSoC4/I2C_MPU6050_I2C_MASTER.c **** *******************************************************************************/
 799:Generated_Source\PSoC4/I2C_MPU6050_I2C_MASTER.c **** void I2C_MPU6050_I2CMasterClearReadBuf(void)
 800:Generated_Source\PSoC4/I2C_MPU6050_I2C_MASTER.c **** {
 596              		.loc 1 800 0
 597              		.cfi_startproc
 598              		@ args = 0, pretend = 0, frame = 0
 599              		@ frame_needed = 0, uses_anonymous_args = 0
 600              		@ link register save eliminated.
 801:Generated_Source\PSoC4/I2C_MPU6050_I2C_MASTER.c ****     I2C_MPU6050_mstrRdBufIndex = 0u;
 601              		.loc 1 801 0
 602 0000 0022     		movs	r2, #0
 603 0002 044B     		ldr	r3, .L51
 604 0004 1A60     		str	r2, [r3]
 802:Generated_Source\PSoC4/I2C_MPU6050_I2C_MASTER.c ****     I2C_MPU6050_mstrStatus    &= (uint16) ~I2C_MPU6050_I2C_MSTAT_RD_CMPLT;
 605              		.loc 1 802 0
 606 0006 044A     		ldr	r2, .L51+4
 607 0008 1388     		ldrh	r3, [r2]
 608 000a 0121     		movs	r1, #1
 609 000c 8B43     		bics	r3, r1
ARM GAS  C:\Users\Asus\AppData\Local\Temp\ccaf8y9d.s 			page 26


 610 000e 1380     		strh	r3, [r2]
 803:Generated_Source\PSoC4/I2C_MPU6050_I2C_MASTER.c **** }
 611              		.loc 1 803 0
 612              		@ sp needed
 613 0010 7047     		bx	lr
 614              	.L52:
 615 0012 C046     		.align	2
 616              	.L51:
 617 0014 00000000 		.word	I2C_MPU6050_mstrRdBufIndex
 618 0018 00000000 		.word	I2C_MPU6050_mstrStatus
 619              		.cfi_endproc
 620              	.LFE11:
 621              		.size	I2C_MPU6050_I2CMasterClearReadBuf, .-I2C_MPU6050_I2CMasterClearReadBuf
 622              		.section	.text.I2C_MPU6050_I2CMasterClearWriteBuf,"ax",%progbits
 623              		.align	2
 624              		.global	I2C_MPU6050_I2CMasterClearWriteBuf
 625              		.code	16
 626              		.thumb_func
 627              		.type	I2C_MPU6050_I2CMasterClearWriteBuf, %function
 628              	I2C_MPU6050_I2CMasterClearWriteBuf:
 629              	.LFB12:
 804:Generated_Source\PSoC4/I2C_MPU6050_I2C_MASTER.c **** 
 805:Generated_Source\PSoC4/I2C_MPU6050_I2C_MASTER.c **** 
 806:Generated_Source\PSoC4/I2C_MPU6050_I2C_MASTER.c **** /*******************************************************************************
 807:Generated_Source\PSoC4/I2C_MPU6050_I2C_MASTER.c **** * Function Name: I2C_MPU6050_I2CMasterClearWriteBuf
 808:Generated_Source\PSoC4/I2C_MPU6050_I2C_MASTER.c **** ********************************************************************************
 809:Generated_Source\PSoC4/I2C_MPU6050_I2C_MASTER.c **** *
 810:Generated_Source\PSoC4/I2C_MPU6050_I2C_MASTER.c **** * Summary:
 811:Generated_Source\PSoC4/I2C_MPU6050_I2C_MASTER.c **** *  Resets the write buffer pointer back to the first byte in the buffer.
 812:Generated_Source\PSoC4/I2C_MPU6050_I2C_MASTER.c **** *
 813:Generated_Source\PSoC4/I2C_MPU6050_I2C_MASTER.c **** * Parameters:
 814:Generated_Source\PSoC4/I2C_MPU6050_I2C_MASTER.c **** *  None
 815:Generated_Source\PSoC4/I2C_MPU6050_I2C_MASTER.c **** *
 816:Generated_Source\PSoC4/I2C_MPU6050_I2C_MASTER.c **** * Return:
 817:Generated_Source\PSoC4/I2C_MPU6050_I2C_MASTER.c **** *  None
 818:Generated_Source\PSoC4/I2C_MPU6050_I2C_MASTER.c **** *
 819:Generated_Source\PSoC4/I2C_MPU6050_I2C_MASTER.c **** * Global variables:
 820:Generated_Source\PSoC4/I2C_MPU6050_I2C_MASTER.c **** *  I2C_MPU6050_mstrRdBufIndex - used to current index within master read
 821:Generated_Source\PSoC4/I2C_MPU6050_I2C_MASTER.c **** *   buffer.
 822:Generated_Source\PSoC4/I2C_MPU6050_I2C_MASTER.c **** *  I2C_MPU6050_mstrStatus - used to store current status of I2C Master.
 823:Generated_Source\PSoC4/I2C_MPU6050_I2C_MASTER.c **** *
 824:Generated_Source\PSoC4/I2C_MPU6050_I2C_MASTER.c **** *******************************************************************************/
 825:Generated_Source\PSoC4/I2C_MPU6050_I2C_MASTER.c **** void I2C_MPU6050_I2CMasterClearWriteBuf(void)
 826:Generated_Source\PSoC4/I2C_MPU6050_I2C_MASTER.c **** {
 630              		.loc 1 826 0
 631              		.cfi_startproc
 632              		@ args = 0, pretend = 0, frame = 0
 633              		@ frame_needed = 0, uses_anonymous_args = 0
 634              		@ link register save eliminated.
 827:Generated_Source\PSoC4/I2C_MPU6050_I2C_MASTER.c ****     I2C_MPU6050_mstrWrBufIndex = 0u;
 635              		.loc 1 827 0
 636 0000 0022     		movs	r2, #0
 637 0002 044B     		ldr	r3, .L54
 638 0004 1A60     		str	r2, [r3]
 828:Generated_Source\PSoC4/I2C_MPU6050_I2C_MASTER.c ****     I2C_MPU6050_mstrStatus    &= (uint16) ~I2C_MPU6050_I2C_MSTAT_WR_CMPLT;
 639              		.loc 1 828 0
 640 0006 044A     		ldr	r2, .L54+4
ARM GAS  C:\Users\Asus\AppData\Local\Temp\ccaf8y9d.s 			page 27


 641 0008 1388     		ldrh	r3, [r2]
 642 000a 0221     		movs	r1, #2
 643 000c 8B43     		bics	r3, r1
 644 000e 1380     		strh	r3, [r2]
 829:Generated_Source\PSoC4/I2C_MPU6050_I2C_MASTER.c **** }
 645              		.loc 1 829 0
 646              		@ sp needed
 647 0010 7047     		bx	lr
 648              	.L55:
 649 0012 C046     		.align	2
 650              	.L54:
 651 0014 00000000 		.word	I2C_MPU6050_mstrWrBufIndex
 652 0018 00000000 		.word	I2C_MPU6050_mstrStatus
 653              		.cfi_endproc
 654              	.LFE12:
 655              		.size	I2C_MPU6050_I2CMasterClearWriteBuf, .-I2C_MPU6050_I2CMasterClearWriteBuf
 656              		.section	.text.I2C_MPU6050_I2CMasterStatus,"ax",%progbits
 657              		.align	2
 658              		.global	I2C_MPU6050_I2CMasterStatus
 659              		.code	16
 660              		.thumb_func
 661              		.type	I2C_MPU6050_I2CMasterStatus, %function
 662              	I2C_MPU6050_I2CMasterStatus:
 663              	.LFB13:
 830:Generated_Source\PSoC4/I2C_MPU6050_I2C_MASTER.c **** 
 831:Generated_Source\PSoC4/I2C_MPU6050_I2C_MASTER.c **** 
 832:Generated_Source\PSoC4/I2C_MPU6050_I2C_MASTER.c **** /*******************************************************************************
 833:Generated_Source\PSoC4/I2C_MPU6050_I2C_MASTER.c **** * Function Name: I2C_MPU6050_I2CMasterStatus
 834:Generated_Source\PSoC4/I2C_MPU6050_I2C_MASTER.c **** ********************************************************************************
 835:Generated_Source\PSoC4/I2C_MPU6050_I2C_MASTER.c **** *
 836:Generated_Source\PSoC4/I2C_MPU6050_I2C_MASTER.c **** * Summary:
 837:Generated_Source\PSoC4/I2C_MPU6050_I2C_MASTER.c **** *  Returns the master's communication status.
 838:Generated_Source\PSoC4/I2C_MPU6050_I2C_MASTER.c **** *
 839:Generated_Source\PSoC4/I2C_MPU6050_I2C_MASTER.c **** * Parameters:
 840:Generated_Source\PSoC4/I2C_MPU6050_I2C_MASTER.c **** *  None
 841:Generated_Source\PSoC4/I2C_MPU6050_I2C_MASTER.c **** *
 842:Generated_Source\PSoC4/I2C_MPU6050_I2C_MASTER.c **** * Return:
 843:Generated_Source\PSoC4/I2C_MPU6050_I2C_MASTER.c **** *  Current status of I2C master.
 844:Generated_Source\PSoC4/I2C_MPU6050_I2C_MASTER.c **** *
 845:Generated_Source\PSoC4/I2C_MPU6050_I2C_MASTER.c **** * Global variables:
 846:Generated_Source\PSoC4/I2C_MPU6050_I2C_MASTER.c **** *  I2C_MPU6050_mstrStatus - used to store current status of I2C Master.
 847:Generated_Source\PSoC4/I2C_MPU6050_I2C_MASTER.c **** *
 848:Generated_Source\PSoC4/I2C_MPU6050_I2C_MASTER.c **** *******************************************************************************/
 849:Generated_Source\PSoC4/I2C_MPU6050_I2C_MASTER.c **** uint32 I2C_MPU6050_I2CMasterStatus(void)
 850:Generated_Source\PSoC4/I2C_MPU6050_I2C_MASTER.c **** {
 664              		.loc 1 850 0
 665              		.cfi_startproc
 666              		@ args = 0, pretend = 0, frame = 0
 667              		@ frame_needed = 0, uses_anonymous_args = 0
 668              		@ link register save eliminated.
 851:Generated_Source\PSoC4/I2C_MPU6050_I2C_MASTER.c ****     uint32 status;
 852:Generated_Source\PSoC4/I2C_MPU6050_I2C_MASTER.c **** 
 853:Generated_Source\PSoC4/I2C_MPU6050_I2C_MASTER.c ****     status = (uint32) I2C_MPU6050_mstrStatus;
 669              		.loc 1 853 0
 670 0000 054B     		ldr	r3, .L58
 671 0002 1888     		ldrh	r0, [r3]
 672 0004 82B2     		uxth	r2, r0
ARM GAS  C:\Users\Asus\AppData\Local\Temp\ccaf8y9d.s 			page 28


 673 0006 1000     		movs	r0, r2
 674              	.LVL50:
 854:Generated_Source\PSoC4/I2C_MPU6050_I2C_MASTER.c **** 
 855:Generated_Source\PSoC4/I2C_MPU6050_I2C_MASTER.c ****     if(I2C_MPU6050_CHECK_I2C_MASTER_ACTIVE)
 675              		.loc 1 855 0
 676 0008 044B     		ldr	r3, .L58+4
 677 000a 1B78     		ldrb	r3, [r3]
 678 000c 9B06     		lsls	r3, r3, #26
 679 000e 02D5     		bpl	.L57
 856:Generated_Source\PSoC4/I2C_MPU6050_I2C_MASTER.c ****     {
 857:Generated_Source\PSoC4/I2C_MPU6050_I2C_MASTER.c ****         /* Add status of master pending transaction: MSTAT_XFER_INP */
 858:Generated_Source\PSoC4/I2C_MPU6050_I2C_MASTER.c ****         status |= (uint32) I2C_MPU6050_I2C_MSTAT_XFER_INP;
 680              		.loc 1 858 0
 681 0010 0423     		movs	r3, #4
 682 0012 1A43     		orrs	r2, r3
 683 0014 90B2     		uxth	r0, r2
 684              	.LVL51:
 685              	.L57:
 859:Generated_Source\PSoC4/I2C_MPU6050_I2C_MASTER.c ****     }
 860:Generated_Source\PSoC4/I2C_MPU6050_I2C_MASTER.c **** 
 861:Generated_Source\PSoC4/I2C_MPU6050_I2C_MASTER.c ****     return(status);
 862:Generated_Source\PSoC4/I2C_MPU6050_I2C_MASTER.c **** }
 686              		.loc 1 862 0
 687              		@ sp needed
 688 0016 7047     		bx	lr
 689              	.L59:
 690              		.align	2
 691              	.L58:
 692 0018 00000000 		.word	I2C_MPU6050_mstrStatus
 693 001c 00000000 		.word	I2C_MPU6050_state
 694              		.cfi_endproc
 695              	.LFE13:
 696              		.size	I2C_MPU6050_I2CMasterStatus, .-I2C_MPU6050_I2CMasterStatus
 697              		.section	.text.I2C_MPU6050_I2CMasterClearStatus,"ax",%progbits
 698              		.align	2
 699              		.global	I2C_MPU6050_I2CMasterClearStatus
 700              		.code	16
 701              		.thumb_func
 702              		.type	I2C_MPU6050_I2CMasterClearStatus, %function
 703              	I2C_MPU6050_I2CMasterClearStatus:
 704              	.LFB14:
 863:Generated_Source\PSoC4/I2C_MPU6050_I2C_MASTER.c **** 
 864:Generated_Source\PSoC4/I2C_MPU6050_I2C_MASTER.c **** 
 865:Generated_Source\PSoC4/I2C_MPU6050_I2C_MASTER.c **** /*******************************************************************************
 866:Generated_Source\PSoC4/I2C_MPU6050_I2C_MASTER.c **** * Function Name: I2C_MPU6050_I2CMasterClearStatus
 867:Generated_Source\PSoC4/I2C_MPU6050_I2C_MASTER.c **** ********************************************************************************
 868:Generated_Source\PSoC4/I2C_MPU6050_I2C_MASTER.c **** *
 869:Generated_Source\PSoC4/I2C_MPU6050_I2C_MASTER.c **** * Summary:
 870:Generated_Source\PSoC4/I2C_MPU6050_I2C_MASTER.c **** *  Clears all status flags and returns the master status.
 871:Generated_Source\PSoC4/I2C_MPU6050_I2C_MASTER.c **** *
 872:Generated_Source\PSoC4/I2C_MPU6050_I2C_MASTER.c **** * Parameters:
 873:Generated_Source\PSoC4/I2C_MPU6050_I2C_MASTER.c **** *  None
 874:Generated_Source\PSoC4/I2C_MPU6050_I2C_MASTER.c **** *
 875:Generated_Source\PSoC4/I2C_MPU6050_I2C_MASTER.c **** * Return:
 876:Generated_Source\PSoC4/I2C_MPU6050_I2C_MASTER.c **** *  Current status of I2C master.
 877:Generated_Source\PSoC4/I2C_MPU6050_I2C_MASTER.c **** *
 878:Generated_Source\PSoC4/I2C_MPU6050_I2C_MASTER.c **** * Global variables:
ARM GAS  C:\Users\Asus\AppData\Local\Temp\ccaf8y9d.s 			page 29


 879:Generated_Source\PSoC4/I2C_MPU6050_I2C_MASTER.c **** *  I2C_MPU6050_mstrStatus - used to store current status of I2C Master.
 880:Generated_Source\PSoC4/I2C_MPU6050_I2C_MASTER.c **** *
 881:Generated_Source\PSoC4/I2C_MPU6050_I2C_MASTER.c **** *******************************************************************************/
 882:Generated_Source\PSoC4/I2C_MPU6050_I2C_MASTER.c **** uint32 I2C_MPU6050_I2CMasterClearStatus(void)
 883:Generated_Source\PSoC4/I2C_MPU6050_I2C_MASTER.c **** {
 705              		.loc 1 883 0
 706              		.cfi_startproc
 707              		@ args = 0, pretend = 0, frame = 0
 708              		@ frame_needed = 0, uses_anonymous_args = 0
 709              		@ link register save eliminated.
 884:Generated_Source\PSoC4/I2C_MPU6050_I2C_MASTER.c ****     uint32 status;
 885:Generated_Source\PSoC4/I2C_MPU6050_I2C_MASTER.c **** 
 886:Generated_Source\PSoC4/I2C_MPU6050_I2C_MASTER.c ****     /* Read and clear master status */
 887:Generated_Source\PSoC4/I2C_MPU6050_I2C_MASTER.c ****     status = (uint32) I2C_MPU6050_mstrStatus;
 710              		.loc 1 887 0
 711 0000 024B     		ldr	r3, .L61
 712 0002 1888     		ldrh	r0, [r3]
 713 0004 80B2     		uxth	r0, r0
 714              	.LVL52:
 888:Generated_Source\PSoC4/I2C_MPU6050_I2C_MASTER.c ****     I2C_MPU6050_mstrStatus = I2C_MPU6050_I2C_MSTAT_CLEAR;
 715              		.loc 1 888 0
 716 0006 0022     		movs	r2, #0
 717 0008 1A80     		strh	r2, [r3]
 889:Generated_Source\PSoC4/I2C_MPU6050_I2C_MASTER.c **** 
 890:Generated_Source\PSoC4/I2C_MPU6050_I2C_MASTER.c ****     return(status);
 891:Generated_Source\PSoC4/I2C_MPU6050_I2C_MASTER.c **** }
 718              		.loc 1 891 0
 719              		@ sp needed
 720 000a 7047     		bx	lr
 721              	.L62:
 722              		.align	2
 723              	.L61:
 724 000c 00000000 		.word	I2C_MPU6050_mstrStatus
 725              		.cfi_endproc
 726              	.LFE14:
 727              		.size	I2C_MPU6050_I2CMasterClearStatus, .-I2C_MPU6050_I2CMasterClearStatus
 728              		.section	.text.I2C_MPU6050_I2CReStartGeneration,"ax",%progbits
 729              		.align	2
 730              		.global	I2C_MPU6050_I2CReStartGeneration
 731              		.code	16
 732              		.thumb_func
 733              		.type	I2C_MPU6050_I2CReStartGeneration, %function
 734              	I2C_MPU6050_I2CReStartGeneration:
 735              	.LFB15:
 892:Generated_Source\PSoC4/I2C_MPU6050_I2C_MASTER.c **** 
 893:Generated_Source\PSoC4/I2C_MPU6050_I2C_MASTER.c **** 
 894:Generated_Source\PSoC4/I2C_MPU6050_I2C_MASTER.c **** /*******************************************************************************
 895:Generated_Source\PSoC4/I2C_MPU6050_I2C_MASTER.c **** * Function Name: I2C_MPU6050_I2CReStartGeneration
 896:Generated_Source\PSoC4/I2C_MPU6050_I2C_MASTER.c **** ********************************************************************************
 897:Generated_Source\PSoC4/I2C_MPU6050_I2C_MASTER.c **** *
 898:Generated_Source\PSoC4/I2C_MPU6050_I2C_MASTER.c **** * Summary:
 899:Generated_Source\PSoC4/I2C_MPU6050_I2C_MASTER.c **** *  Generates a ReStart condition:
 900:Generated_Source\PSoC4/I2C_MPU6050_I2C_MASTER.c **** *  SCB IP V1 and later: Generates ReStart using the scb IP functionality
 901:Generated_Source\PSoC4/I2C_MPU6050_I2C_MASTER.c **** *    Sets the I2C_MASTER_CMD_M_START and I2C_MASTER_CMD_M_NACK (if the previous
 902:Generated_Source\PSoC4/I2C_MPU6050_I2C_MASTER.c **** *    transaction was read) bits in the SCB.I2C_MASTER_CMD register. This combination
 903:Generated_Source\PSoC4/I2C_MPU6050_I2C_MASTER.c **** *    forces the master to generate ReStart.
 904:Generated_Source\PSoC4/I2C_MPU6050_I2C_MASTER.c **** *
ARM GAS  C:\Users\Asus\AppData\Local\Temp\ccaf8y9d.s 			page 30


 905:Generated_Source\PSoC4/I2C_MPU6050_I2C_MASTER.c **** *  SCB IP V0: Generates Restart using the GPIO and scb IP functionality.
 906:Generated_Source\PSoC4/I2C_MPU6050_I2C_MASTER.c **** *   After the master completes write or read, the SCL is stretched. The master waits
 907:Generated_Source\PSoC4/I2C_MPU6050_I2C_MASTER.c **** *   until SDA line is released by the slave. Then the GPIO function is enabled and
 908:Generated_Source\PSoC4/I2C_MPU6050_I2C_MASTER.c **** *   the scb IP disabled as it already does not drive the bus. In case of the previous
 909:Generated_Source\PSoC4/I2C_MPU6050_I2C_MASTER.c **** *   transfer was read, the NACK is generated by the GPIO. The delay of tLOW is
 910:Generated_Source\PSoC4/I2C_MPU6050_I2C_MASTER.c **** *   added to manage the hold time. Set I2C_M_CMD.START and enable the scb IP.
 911:Generated_Source\PSoC4/I2C_MPU6050_I2C_MASTER.c **** *   The ReStart generation is started after the I2C function is enabled for the SCL.
 912:Generated_Source\PSoC4/I2C_MPU6050_I2C_MASTER.c **** *   Note1: the scb IP due re-enable generates Start but on the I2C bus it
 913:Generated_Source\PSoC4/I2C_MPU6050_I2C_MASTER.c **** *          appears as ReStart.
 914:Generated_Source\PSoC4/I2C_MPU6050_I2C_MASTER.c **** *   Note2: the I2C_M_CMD.START is queued if scb IP is disabled.
 915:Generated_Source\PSoC4/I2C_MPU6050_I2C_MASTER.c **** *   Note3: the I2C_STATUS_M_READ is cleared is address was NACKed before.
 916:Generated_Source\PSoC4/I2C_MPU6050_I2C_MASTER.c **** *
 917:Generated_Source\PSoC4/I2C_MPU6050_I2C_MASTER.c **** * Parameters:
 918:Generated_Source\PSoC4/I2C_MPU6050_I2C_MASTER.c **** *  None
 919:Generated_Source\PSoC4/I2C_MPU6050_I2C_MASTER.c **** *
 920:Generated_Source\PSoC4/I2C_MPU6050_I2C_MASTER.c **** * Return:
 921:Generated_Source\PSoC4/I2C_MPU6050_I2C_MASTER.c **** *  None
 922:Generated_Source\PSoC4/I2C_MPU6050_I2C_MASTER.c **** *
 923:Generated_Source\PSoC4/I2C_MPU6050_I2C_MASTER.c **** * Side Effects:
 924:Generated_Source\PSoC4/I2C_MPU6050_I2C_MASTER.c **** *  SCB IP V0: The NACK generation by the GPIO may cause a greater SCL period than
 925:Generated_Source\PSoC4/I2C_MPU6050_I2C_MASTER.c **** *  expected for the selected master data rate.
 926:Generated_Source\PSoC4/I2C_MPU6050_I2C_MASTER.c **** *
 927:Generated_Source\PSoC4/I2C_MPU6050_I2C_MASTER.c **** *******************************************************************************/
 928:Generated_Source\PSoC4/I2C_MPU6050_I2C_MASTER.c **** void I2C_MPU6050_I2CReStartGeneration(void)
 929:Generated_Source\PSoC4/I2C_MPU6050_I2C_MASTER.c **** {
 736              		.loc 1 929 0
 737              		.cfi_startproc
 738              		@ args = 0, pretend = 0, frame = 0
 739              		@ frame_needed = 0, uses_anonymous_args = 0
 740              		@ link register save eliminated.
 741              	.LVL53:
 930:Generated_Source\PSoC4/I2C_MPU6050_I2C_MASTER.c **** #if(I2C_MPU6050_CY_SCBIP_V0)
 931:Generated_Source\PSoC4/I2C_MPU6050_I2C_MASTER.c ****     /* Generates Restart use GPIO and scb IP functionality. Ticket ID#143715,
 932:Generated_Source\PSoC4/I2C_MPU6050_I2C_MASTER.c ****     ID#145238 and ID#173656 */
 933:Generated_Source\PSoC4/I2C_MPU6050_I2C_MASTER.c ****     uint32 status = I2C_MPU6050_I2C_STATUS_REG;
 934:Generated_Source\PSoC4/I2C_MPU6050_I2C_MASTER.c **** 
 935:Generated_Source\PSoC4/I2C_MPU6050_I2C_MASTER.c ****     while(I2C_MPU6050_WAIT_SDA_SET_HIGH)
 936:Generated_Source\PSoC4/I2C_MPU6050_I2C_MASTER.c ****     {
 937:Generated_Source\PSoC4/I2C_MPU6050_I2C_MASTER.c ****         /* Wait when slave release SDA line: SCL tHIGH is complete */
 938:Generated_Source\PSoC4/I2C_MPU6050_I2C_MASTER.c ****     }
 939:Generated_Source\PSoC4/I2C_MPU6050_I2C_MASTER.c **** 
 940:Generated_Source\PSoC4/I2C_MPU6050_I2C_MASTER.c ****     /* Prepare DR register to drive SCL line */
 941:Generated_Source\PSoC4/I2C_MPU6050_I2C_MASTER.c ****     I2C_MPU6050_SET_I2C_SCL_DR(I2C_MPU6050_I2C_SCL_LOW);
 942:Generated_Source\PSoC4/I2C_MPU6050_I2C_MASTER.c **** 
 943:Generated_Source\PSoC4/I2C_MPU6050_I2C_MASTER.c ****     /* Switch HSIOM to GPIO: SCL goes low */
 944:Generated_Source\PSoC4/I2C_MPU6050_I2C_MASTER.c ****     I2C_MPU6050_SET_I2C_SCL_HSIOM_SEL(I2C_MPU6050_HSIOM_GPIO_SEL);
 945:Generated_Source\PSoC4/I2C_MPU6050_I2C_MASTER.c **** 
 946:Generated_Source\PSoC4/I2C_MPU6050_I2C_MASTER.c ****     /* Disable SCB block */
 947:Generated_Source\PSoC4/I2C_MPU6050_I2C_MASTER.c ****     I2C_MPU6050_CTRL_REG &= (uint32) ~I2C_MPU6050_CTRL_ENABLED;
 948:Generated_Source\PSoC4/I2C_MPU6050_I2C_MASTER.c **** 
 949:Generated_Source\PSoC4/I2C_MPU6050_I2C_MASTER.c ****     if(0u != (status & I2C_MPU6050_I2C_STATUS_M_READ))
 950:Generated_Source\PSoC4/I2C_MPU6050_I2C_MASTER.c ****     {
 951:Generated_Source\PSoC4/I2C_MPU6050_I2C_MASTER.c ****         /* Generate NACK use GPIO functionality */
 952:Generated_Source\PSoC4/I2C_MPU6050_I2C_MASTER.c ****         I2C_MPU6050_SET_I2C_SCL_DR(I2C_MPU6050_I2C_SCL_LOW);
 953:Generated_Source\PSoC4/I2C_MPU6050_I2C_MASTER.c ****         CyDelayUs(I2C_MPU6050_I2C_TLOW_TIME); /* Count tLOW */
 954:Generated_Source\PSoC4/I2C_MPU6050_I2C_MASTER.c **** 
 955:Generated_Source\PSoC4/I2C_MPU6050_I2C_MASTER.c ****         I2C_MPU6050_SET_I2C_SCL_DR(I2C_MPU6050_I2C_SCL_HIGH);
ARM GAS  C:\Users\Asus\AppData\Local\Temp\ccaf8y9d.s 			page 31


 956:Generated_Source\PSoC4/I2C_MPU6050_I2C_MASTER.c ****         while(I2C_MPU6050_WAIT_SCL_SET_HIGH)
 957:Generated_Source\PSoC4/I2C_MPU6050_I2C_MASTER.c ****         {
 958:Generated_Source\PSoC4/I2C_MPU6050_I2C_MASTER.c ****             /* Wait until slave releases SCL in case if it stretches */
 959:Generated_Source\PSoC4/I2C_MPU6050_I2C_MASTER.c ****         }
 960:Generated_Source\PSoC4/I2C_MPU6050_I2C_MASTER.c ****         CyDelayUs(I2C_MPU6050_I2C_THIGH_TIME); /* Count tHIGH */
 961:Generated_Source\PSoC4/I2C_MPU6050_I2C_MASTER.c ****     }
 962:Generated_Source\PSoC4/I2C_MPU6050_I2C_MASTER.c **** 
 963:Generated_Source\PSoC4/I2C_MPU6050_I2C_MASTER.c ****     /* Count tLOW as hold time for write and read */
 964:Generated_Source\PSoC4/I2C_MPU6050_I2C_MASTER.c ****     I2C_MPU6050_SET_I2C_SCL_DR(I2C_MPU6050_I2C_SCL_LOW);
 965:Generated_Source\PSoC4/I2C_MPU6050_I2C_MASTER.c ****     CyDelayUs(I2C_MPU6050_I2C_TLOW_TIME); /* Count tLOW */
 966:Generated_Source\PSoC4/I2C_MPU6050_I2C_MASTER.c **** 
 967:Generated_Source\PSoC4/I2C_MPU6050_I2C_MASTER.c ****     /* Set command for Start generation: it will appear */
 968:Generated_Source\PSoC4/I2C_MPU6050_I2C_MASTER.c ****     I2C_MPU6050_I2C_MASTER_CMD_REG = I2C_MPU6050_I2C_MASTER_CMD_M_START;
 969:Generated_Source\PSoC4/I2C_MPU6050_I2C_MASTER.c **** 
 970:Generated_Source\PSoC4/I2C_MPU6050_I2C_MASTER.c ****     /* Enable SCB block */
 971:Generated_Source\PSoC4/I2C_MPU6050_I2C_MASTER.c ****     I2C_MPU6050_CTRL_REG |= (uint32) I2C_MPU6050_CTRL_ENABLED;
 972:Generated_Source\PSoC4/I2C_MPU6050_I2C_MASTER.c **** 
 973:Generated_Source\PSoC4/I2C_MPU6050_I2C_MASTER.c ****     /* Switch HSIOM to I2C: */
 974:Generated_Source\PSoC4/I2C_MPU6050_I2C_MASTER.c ****     I2C_MPU6050_SET_I2C_SCL_HSIOM_SEL(I2C_MPU6050_HSIOM_I2C_SEL);
 975:Generated_Source\PSoC4/I2C_MPU6050_I2C_MASTER.c **** 
 976:Generated_Source\PSoC4/I2C_MPU6050_I2C_MASTER.c ****     /* Revert SCL DR register */
 977:Generated_Source\PSoC4/I2C_MPU6050_I2C_MASTER.c ****     I2C_MPU6050_SET_I2C_SCL_DR(I2C_MPU6050_I2C_SCL_HIGH);
 978:Generated_Source\PSoC4/I2C_MPU6050_I2C_MASTER.c **** #else
 979:Generated_Source\PSoC4/I2C_MPU6050_I2C_MASTER.c ****     uint32 cmd;
 980:Generated_Source\PSoC4/I2C_MPU6050_I2C_MASTER.c **** 
 981:Generated_Source\PSoC4/I2C_MPU6050_I2C_MASTER.c ****     /* Generates ReStart use scb IP functionality */
 982:Generated_Source\PSoC4/I2C_MPU6050_I2C_MASTER.c ****     cmd  = I2C_MPU6050_I2C_MASTER_CMD_M_START;
 983:Generated_Source\PSoC4/I2C_MPU6050_I2C_MASTER.c ****     cmd |= I2C_MPU6050_CHECK_I2C_STATUS(I2C_MPU6050_I2C_STATUS_M_READ) ?
 742              		.loc 1 983 0
 743 0000 054B     		ldr	r3, .L65
 744 0002 1B68     		ldr	r3, [r3]
 745 0004 2022     		movs	r2, #32
 746 0006 1340     		ands	r3, r2
 984:Generated_Source\PSoC4/I2C_MPU6050_I2C_MASTER.c ****                 (I2C_MPU6050_I2C_MASTER_CMD_M_NACK) : (0u);
 747              		.loc 1 984 0
 748 0008 00D0     		beq	.L64
 749 000a 0823     		movs	r3, #8
 750              	.L64:
 983:Generated_Source\PSoC4/I2C_MPU6050_I2C_MASTER.c ****                 (I2C_MPU6050_I2C_MASTER_CMD_M_NACK) : (0u);
 751              		.loc 1 983 0 discriminator 4
 752 000c 0122     		movs	r2, #1
 753 000e 1343     		orrs	r3, r2
 754              	.LVL54:
 985:Generated_Source\PSoC4/I2C_MPU6050_I2C_MASTER.c **** 
 986:Generated_Source\PSoC4/I2C_MPU6050_I2C_MASTER.c ****     I2C_MPU6050_I2C_MASTER_CMD_REG = cmd;
 755              		.loc 1 986 0 discriminator 4
 756 0010 024A     		ldr	r2, .L65+4
 757 0012 1360     		str	r3, [r2]
 987:Generated_Source\PSoC4/I2C_MPU6050_I2C_MASTER.c **** #endif /* (I2C_MPU6050_CY_SCBIP_V1) */
 988:Generated_Source\PSoC4/I2C_MPU6050_I2C_MASTER.c **** }
 758              		.loc 1 988 0 discriminator 4
 759              		@ sp needed
 760 0014 7047     		bx	lr
 761              	.L66:
 762 0016 C046     		.align	2
 763              	.L65:
 764 0018 64002540 		.word	1076166756
ARM GAS  C:\Users\Asus\AppData\Local\Temp\ccaf8y9d.s 			page 32


 765 001c 68002540 		.word	1076166760
 766              		.cfi_endproc
 767              	.LFE15:
 768              		.size	I2C_MPU6050_I2CReStartGeneration, .-I2C_MPU6050_I2CReStartGeneration
 769              		.section	.text.I2C_MPU6050_I2CMasterWriteBuf,"ax",%progbits
 770              		.align	2
 771              		.global	I2C_MPU6050_I2CMasterWriteBuf
 772              		.code	16
 773              		.thumb_func
 774              		.type	I2C_MPU6050_I2CMasterWriteBuf, %function
 775              	I2C_MPU6050_I2CMasterWriteBuf:
 776              	.LFB2:
  76:Generated_Source\PSoC4/I2C_MPU6050_I2C_MASTER.c ****     uint32 errStatus;
 777              		.loc 1 76 0
 778              		.cfi_startproc
 779              		@ args = 0, pretend = 0, frame = 8
 780              		@ frame_needed = 0, uses_anonymous_args = 0
 781              	.LVL55:
 782 0000 F0B5     		push	{r4, r5, r6, r7, lr}
 783              		.cfi_def_cfa_offset 20
 784              		.cfi_offset 4, -20
 785              		.cfi_offset 5, -16
 786              		.cfi_offset 6, -12
 787              		.cfi_offset 7, -8
 788              		.cfi_offset 14, -4
 789 0002 83B0     		sub	sp, sp, #12
 790              		.cfi_def_cfa_offset 32
 791 0004 0190     		str	r0, [sp, #4]
 792 0006 0C00     		movs	r4, r1
 793 0008 1700     		movs	r7, r2
 794 000a 1D00     		movs	r5, r3
 795              	.LVL56:
  81:Generated_Source\PSoC4/I2C_MPU6050_I2C_MASTER.c ****     {
 796              		.loc 1 81 0
 797 000c 0029     		cmp	r1, #0
 798 000e 17D0     		beq	.L73
  84:Generated_Source\PSoC4/I2C_MPU6050_I2C_MASTER.c ****         {
 799              		.loc 1 84 0
 800 0010 284B     		ldr	r3, .L76
 801              	.LVL57:
 802 0012 1B78     		ldrb	r3, [r3]
 803 0014 102B     		cmp	r3, #16
 804 0016 08D1     		bne	.L69
  86:Generated_Source\PSoC4/I2C_MPU6050_I2C_MASTER.c **** 
 805              		.loc 1 86 0
 806 0018 0A20     		movs	r0, #10
 807              	.LVL58:
 808 001a FFF7FEFF 		bl	CyIntDisable
 809              	.LVL59:
  89:Generated_Source\PSoC4/I2C_MPU6050_I2C_MASTER.c ****                             I2C_MPU6050_I2C_MSTR_BUS_BUSY : I2C_MPU6050_I2C_MSTR_NO_ERROR;
 810              		.loc 1 89 0
 811 001e 264B     		ldr	r3, .L76+4
 812 0020 1B68     		ldr	r3, [r3]
 813 0022 DB07     		lsls	r3, r3, #31
 814 0024 0ED5     		bpl	.L74
 815 0026 0826     		movs	r6, #8
 816 0028 0FE0     		b	.L68
ARM GAS  C:\Users\Asus\AppData\Local\Temp\ccaf8y9d.s 			page 33


 817              	.LVL60:
 818              	.L69:
  92:Generated_Source\PSoC4/I2C_MPU6050_I2C_MASTER.c ****         {
 819              		.loc 1 92 0
 820 002a 224B     		ldr	r3, .L76
 821 002c 1B78     		ldrb	r3, [r3]
 822 002e 602B     		cmp	r3, #96
 823 0030 0AD1     		bne	.L75
  94:Generated_Source\PSoC4/I2C_MPU6050_I2C_MASTER.c ****                               errStatus  = I2C_MPU6050_I2C_MSTR_NO_ERROR;
 824              		.loc 1 94 0
 825 0032 224A     		ldr	r2, .L76+8
 826              	.LVL61:
 827 0034 1388     		ldrh	r3, [r2]
 828 0036 0821     		movs	r1, #8
 829              	.LVL62:
 830 0038 8B43     		bics	r3, r1
 831 003a 1380     		strh	r3, [r2]
 832              	.LVL63:
  95:Generated_Source\PSoC4/I2C_MPU6050_I2C_MASTER.c ****         }
 833              		.loc 1 95 0
 834 003c 0026     		movs	r6, #0
 835 003e 04E0     		b	.L68
 836              	.LVL64:
 837              	.L73:
  79:Generated_Source\PSoC4/I2C_MPU6050_I2C_MASTER.c **** 
 838              		.loc 1 79 0
 839 0040 0426     		movs	r6, #4
 840 0042 02E0     		b	.L68
 841              	.LVL65:
 842              	.L74:
  89:Generated_Source\PSoC4/I2C_MPU6050_I2C_MASTER.c ****                             I2C_MPU6050_I2C_MSTR_BUS_BUSY : I2C_MPU6050_I2C_MSTR_NO_ERROR;
 843              		.loc 1 89 0
 844 0044 0026     		movs	r6, #0
 845 0046 00E0     		b	.L68
 846              	.LVL66:
 847              	.L75:
  79:Generated_Source\PSoC4/I2C_MPU6050_I2C_MASTER.c **** 
 848              		.loc 1 79 0
 849 0048 0426     		movs	r6, #4
 850              	.LVL67:
 851              	.L68:
 105:Generated_Source\PSoC4/I2C_MPU6050_I2C_MASTER.c ****     {
 852              		.loc 1 105 0
 853 004a 002E     		cmp	r6, #0
 854 004c 2CD1     		bne	.L70
 108:Generated_Source\PSoC4/I2C_MPU6050_I2C_MASTER.c ****         I2C_MPU6050_mstrWrBufIndexTmp = 0u;
 855              		.loc 1 108 0
 856 004e 2822     		movs	r2, #40
 857 0050 184B     		ldr	r3, .L76
 858 0052 1A70     		strb	r2, [r3]
 109:Generated_Source\PSoC4/I2C_MPU6050_I2C_MASTER.c ****         I2C_MPU6050_mstrWrBufIndex    = 0u;
 859              		.loc 1 109 0
 860 0054 0023     		movs	r3, #0
 861 0056 1A4A     		ldr	r2, .L76+12
 862 0058 1360     		str	r3, [r2]
 110:Generated_Source\PSoC4/I2C_MPU6050_I2C_MASTER.c ****         I2C_MPU6050_mstrWrBufSize     = cnt;
 863              		.loc 1 110 0
ARM GAS  C:\Users\Asus\AppData\Local\Temp\ccaf8y9d.s 			page 34


 864 005a 1A4A     		ldr	r2, .L76+16
 865 005c 1360     		str	r3, [r2]
 111:Generated_Source\PSoC4/I2C_MPU6050_I2C_MASTER.c ****         I2C_MPU6050_mstrWrBufPtr      = (volatile uint8 *) wrData;
 866              		.loc 1 111 0
 867 005e 1A4B     		ldr	r3, .L76+20
 868 0060 1F60     		str	r7, [r3]
 112:Generated_Source\PSoC4/I2C_MPU6050_I2C_MASTER.c ****         I2C_MPU6050_mstrControl       = (uint8) mode;
 869              		.loc 1 112 0
 870 0062 1A4B     		ldr	r3, .L76+24
 871 0064 1C60     		str	r4, [r3]
 113:Generated_Source\PSoC4/I2C_MPU6050_I2C_MASTER.c **** 
 872              		.loc 1 113 0
 873 0066 EAB2     		uxtb	r2, r5
 874 0068 194B     		ldr	r3, .L76+28
 875 006a 1A70     		strb	r2, [r3]
 115:Generated_Source\PSoC4/I2C_MPU6050_I2C_MASTER.c **** 
 876              		.loc 1 115 0
 877 006c 019B     		ldr	r3, [sp, #4]
 878 006e 5C00     		lsls	r4, r3, #1
 879              	.LVL68:
 880 0070 FF23     		movs	r3, #255
 881 0072 1C40     		ands	r4, r3
 882              	.LVL69:
 117:Generated_Source\PSoC4/I2C_MPU6050_I2C_MASTER.c **** 
 883              		.loc 1 117 0
 884 0074 114A     		ldr	r2, .L76+8
 885 0076 1388     		ldrh	r3, [r2]
 886 0078 0221     		movs	r1, #2
 887 007a 8B43     		bics	r3, r1
 888 007c 1380     		strh	r3, [r2]
 119:Generated_Source\PSoC4/I2C_MPU6050_I2C_MASTER.c ****         I2C_MPU6050_ClearTxInterruptSource(I2C_MPU6050_INTR_TX_UNDERFLOW);
 889              		.loc 1 119 0
 890 007e 154A     		ldr	r2, .L76+32
 891 0080 154B     		ldr	r3, .L76+36
 892 0082 1A60     		str	r2, [r3]
 893              	.LVL70:
 120:Generated_Source\PSoC4/I2C_MPU6050_I2C_MASTER.c ****         /* The TX and RX FIFO have to be EMPTY */
 894              		.loc 1 120 0
 895 0084 4022     		movs	r2, #64
 896 0086 154B     		ldr	r3, .L76+40
 897 0088 1A60     		str	r2, [r3]
 124:Generated_Source\PSoC4/I2C_MPU6050_I2C_MASTER.c ****         {
 898              		.loc 1 124 0
 899 008a EB07     		lsls	r3, r5, #31
 900 008c 04D5     		bpl	.L71
 126:Generated_Source\PSoC4/I2C_MPU6050_I2C_MASTER.c ****             I2C_MPU6050_TX_FIFO_WR_REG = slaveAddress;
 901              		.loc 1 126 0
 902 008e FFF7FEFF 		bl	I2C_MPU6050_I2CReStartGeneration
 903              	.LVL71:
 127:Generated_Source\PSoC4/I2C_MPU6050_I2C_MASTER.c ****         }
 904              		.loc 1 127 0
 905 0092 134B     		ldr	r3, .L76+44
 906 0094 1C60     		str	r4, [r3]
 907 0096 04E0     		b	.L72
 908              	.L71:
 131:Generated_Source\PSoC4/I2C_MPU6050_I2C_MASTER.c ****             I2C_MPU6050_I2C_MASTER_GENERATE_START;
 909              		.loc 1 131 0
ARM GAS  C:\Users\Asus\AppData\Local\Temp\ccaf8y9d.s 			page 35


 910 0098 114B     		ldr	r3, .L76+44
 911 009a 1C60     		str	r4, [r3]
 132:Generated_Source\PSoC4/I2C_MPU6050_I2C_MASTER.c ****         }
 912              		.loc 1 132 0
 913 009c 0222     		movs	r2, #2
 914 009e 114B     		ldr	r3, .L76+48
 915 00a0 1A60     		str	r2, [r3]
 916              	.L72:
 136:Generated_Source\PSoC4/I2C_MPU6050_I2C_MASTER.c ****     }
 917              		.loc 1 136 0
 918 00a2 4022     		movs	r2, #64
 919 00a4 104B     		ldr	r3, .L76+52
 920 00a6 1A60     		str	r2, [r3]
 921              	.LVL72:
 922              	.L70:
 139:Generated_Source\PSoC4/I2C_MPU6050_I2C_MASTER.c **** 
 923              		.loc 1 139 0
 924 00a8 0A20     		movs	r0, #10
 925 00aa FFF7FEFF 		bl	CyIntEnable
 926              	.LVL73:
 142:Generated_Source\PSoC4/I2C_MPU6050_I2C_MASTER.c **** 
 927              		.loc 1 142 0
 928 00ae 3000     		movs	r0, r6
 929 00b0 03B0     		add	sp, sp, #12
 930              		@ sp needed
 931              	.LVL74:
 932              	.LVL75:
 933              	.LVL76:
 934 00b2 F0BD     		pop	{r4, r5, r6, r7, pc}
 935              	.L77:
 936              		.align	2
 937              	.L76:
 938 00b4 00000000 		.word	I2C_MPU6050_state
 939 00b8 64002540 		.word	1076166756
 940 00bc 00000000 		.word	I2C_MPU6050_mstrStatus
 941 00c0 00000000 		.word	I2C_MPU6050_mstrWrBufIndexTmp
 942 00c4 00000000 		.word	I2C_MPU6050_mstrWrBufIndex
 943 00c8 00000000 		.word	I2C_MPU6050_mstrWrBufSize
 944 00cc 00000000 		.word	I2C_MPU6050_mstrWrBufPtr
 945 00d0 00000000 		.word	I2C_MPU6050_mstrControl
 946 00d4 17030000 		.word	791
 947 00d8 000F2540 		.word	1076170496
 948 00dc 800F2540 		.word	1076170624
 949 00e0 40022540 		.word	1076167232
 950 00e4 68002540 		.word	1076166760
 951 00e8 880F2540 		.word	1076170632
 952              		.cfi_endproc
 953              	.LFE2:
 954              		.size	I2C_MPU6050_I2CMasterWriteBuf, .-I2C_MPU6050_I2CMasterWriteBuf
 955              		.section	.text.I2C_MPU6050_I2CMasterReadBuf,"ax",%progbits
 956              		.align	2
 957              		.global	I2C_MPU6050_I2CMasterReadBuf
 958              		.code	16
 959              		.thumb_func
 960              		.type	I2C_MPU6050_I2CMasterReadBuf, %function
 961              	I2C_MPU6050_I2CMasterReadBuf:
 962              	.LFB3:
ARM GAS  C:\Users\Asus\AppData\Local\Temp\ccaf8y9d.s 			page 36


 178:Generated_Source\PSoC4/I2C_MPU6050_I2C_MASTER.c ****     uint32 errStatus;
 963              		.loc 1 178 0
 964              		.cfi_startproc
 965              		@ args = 0, pretend = 0, frame = 8
 966              		@ frame_needed = 0, uses_anonymous_args = 0
 967              	.LVL77:
 968 0000 F0B5     		push	{r4, r5, r6, r7, lr}
 969              		.cfi_def_cfa_offset 20
 970              		.cfi_offset 4, -20
 971              		.cfi_offset 5, -16
 972              		.cfi_offset 6, -12
 973              		.cfi_offset 7, -8
 974              		.cfi_offset 14, -4
 975 0002 83B0     		sub	sp, sp, #12
 976              		.cfi_def_cfa_offset 32
 977 0004 0190     		str	r0, [sp, #4]
 978 0006 0C00     		movs	r4, r1
 979 0008 1700     		movs	r7, r2
 980 000a 1D00     		movs	r5, r3
 981              	.LVL78:
 183:Generated_Source\PSoC4/I2C_MPU6050_I2C_MASTER.c ****     {
 982              		.loc 1 183 0
 983 000c 0029     		cmp	r1, #0
 984 000e 17D0     		beq	.L85
 186:Generated_Source\PSoC4/I2C_MPU6050_I2C_MASTER.c ****         {
 985              		.loc 1 186 0
 986 0010 2D4B     		ldr	r3, .L88
 987              	.LVL79:
 988 0012 1B78     		ldrb	r3, [r3]
 989 0014 102B     		cmp	r3, #16
 990 0016 08D1     		bne	.L80
 188:Generated_Source\PSoC4/I2C_MPU6050_I2C_MASTER.c **** 
 991              		.loc 1 188 0
 992 0018 0A20     		movs	r0, #10
 993              	.LVL80:
 994 001a FFF7FEFF 		bl	CyIntDisable
 995              	.LVL81:
 191:Generated_Source\PSoC4/I2C_MPU6050_I2C_MASTER.c ****                             I2C_MPU6050_I2C_MSTR_BUS_BUSY : I2C_MPU6050_I2C_MSTR_NO_ERROR;
 996              		.loc 1 191 0
 997 001e 2B4B     		ldr	r3, .L88+4
 998 0020 1B68     		ldr	r3, [r3]
 999 0022 DB07     		lsls	r3, r3, #31
 1000 0024 0ED5     		bpl	.L86
 1001 0026 0826     		movs	r6, #8
 1002 0028 0FE0     		b	.L79
 1003              	.LVL82:
 1004              	.L80:
 194:Generated_Source\PSoC4/I2C_MPU6050_I2C_MASTER.c ****         {
 1005              		.loc 1 194 0
 1006 002a 274B     		ldr	r3, .L88
 1007 002c 1B78     		ldrb	r3, [r3]
 1008 002e 602B     		cmp	r3, #96
 1009 0030 0AD1     		bne	.L87
 196:Generated_Source\PSoC4/I2C_MPU6050_I2C_MASTER.c ****                               errStatus  =  I2C_MPU6050_I2C_MSTR_NO_ERROR;
 1010              		.loc 1 196 0
 1011 0032 274A     		ldr	r2, .L88+8
 1012              	.LVL83:
ARM GAS  C:\Users\Asus\AppData\Local\Temp\ccaf8y9d.s 			page 37


 1013 0034 1388     		ldrh	r3, [r2]
 1014 0036 0821     		movs	r1, #8
 1015              	.LVL84:
 1016 0038 8B43     		bics	r3, r1
 1017 003a 1380     		strh	r3, [r2]
 1018              	.LVL85:
 197:Generated_Source\PSoC4/I2C_MPU6050_I2C_MASTER.c ****         }
 1019              		.loc 1 197 0
 1020 003c 0026     		movs	r6, #0
 1021 003e 04E0     		b	.L79
 1022              	.LVL86:
 1023              	.L85:
 181:Generated_Source\PSoC4/I2C_MPU6050_I2C_MASTER.c **** 
 1024              		.loc 1 181 0
 1025 0040 0426     		movs	r6, #4
 1026 0042 02E0     		b	.L79
 1027              	.LVL87:
 1028              	.L86:
 191:Generated_Source\PSoC4/I2C_MPU6050_I2C_MASTER.c ****                             I2C_MPU6050_I2C_MSTR_BUS_BUSY : I2C_MPU6050_I2C_MSTR_NO_ERROR;
 1029              		.loc 1 191 0
 1030 0044 0026     		movs	r6, #0
 1031 0046 00E0     		b	.L79
 1032              	.LVL88:
 1033              	.L87:
 181:Generated_Source\PSoC4/I2C_MPU6050_I2C_MASTER.c **** 
 1034              		.loc 1 181 0
 1035 0048 0426     		movs	r6, #4
 1036              	.LVL89:
 1037              	.L79:
 206:Generated_Source\PSoC4/I2C_MPU6050_I2C_MASTER.c ****     {
 1038              		.loc 1 206 0
 1039 004a 002E     		cmp	r6, #0
 1040 004c 36D1     		bne	.L81
 209:Generated_Source\PSoC4/I2C_MPU6050_I2C_MASTER.c ****         I2C_MPU6050_mstrRdBufIndex = 0u;
 1041              		.loc 1 209 0
 1042 004e 2922     		movs	r2, #41
 1043 0050 1D4B     		ldr	r3, .L88
 1044 0052 1A70     		strb	r2, [r3]
 210:Generated_Source\PSoC4/I2C_MPU6050_I2C_MASTER.c ****         I2C_MPU6050_mstrRdBufSize  = cnt;
 1045              		.loc 1 210 0
 1046 0054 0022     		movs	r2, #0
 1047 0056 1F4B     		ldr	r3, .L88+12
 1048 0058 1A60     		str	r2, [r3]
 211:Generated_Source\PSoC4/I2C_MPU6050_I2C_MASTER.c ****         I2C_MPU6050_mstrRdBufPtr   = (volatile uint8 *) rdData;
 1049              		.loc 1 211 0
 1050 005a 1F4B     		ldr	r3, .L88+16
 1051 005c 1F60     		str	r7, [r3]
 212:Generated_Source\PSoC4/I2C_MPU6050_I2C_MASTER.c ****         I2C_MPU6050_mstrControl    = (uint8) mode;
 1052              		.loc 1 212 0
 1053 005e 1F4B     		ldr	r3, .L88+20
 1054 0060 1C60     		str	r4, [r3]
 213:Generated_Source\PSoC4/I2C_MPU6050_I2C_MASTER.c **** 
 1055              		.loc 1 213 0
 1056 0062 EAB2     		uxtb	r2, r5
 1057 0064 1E4B     		ldr	r3, .L88+24
 1058 0066 1A70     		strb	r2, [r3]
 215:Generated_Source\PSoC4/I2C_MPU6050_I2C_MASTER.c **** 
ARM GAS  C:\Users\Asus\AppData\Local\Temp\ccaf8y9d.s 			page 38


 1059              		.loc 1 215 0
 1060 0068 019B     		ldr	r3, [sp, #4]
 1061 006a 5C00     		lsls	r4, r3, #1
 1062              	.LVL90:
 1063 006c FF23     		movs	r3, #255
 1064 006e 1C40     		ands	r4, r3
 1065 0070 FE3B     		subs	r3, r3, #254
 1066 0072 1C43     		orrs	r4, r3
 1067              	.LVL91:
 217:Generated_Source\PSoC4/I2C_MPU6050_I2C_MASTER.c **** 
 1068              		.loc 1 217 0
 1069 0074 1649     		ldr	r1, .L88+8
 1070 0076 0A88     		ldrh	r2, [r1]
 1071 0078 9A43     		bics	r2, r3
 1072 007a 0A80     		strh	r2, [r1]
 219:Generated_Source\PSoC4/I2C_MPU6050_I2C_MASTER.c **** 
 1073              		.loc 1 219 0
 1074 007c 1949     		ldr	r1, .L88+28
 1075 007e 1A4A     		ldr	r2, .L88+32
 1076 0080 1160     		str	r1, [r2]
 1077              	.LVL92:
 224:Generated_Source\PSoC4/I2C_MPU6050_I2C_MASTER.c ****         {
 1078              		.loc 1 224 0
 1079 0082 2B42     		tst	r3, r5
 1080 0084 04D0     		beq	.L82
 226:Generated_Source\PSoC4/I2C_MPU6050_I2C_MASTER.c ****             I2C_MPU6050_TX_FIFO_WR_REG = (slaveAddress);
 1081              		.loc 1 226 0
 1082 0086 FFF7FEFF 		bl	I2C_MPU6050_I2CReStartGeneration
 1083              	.LVL93:
 227:Generated_Source\PSoC4/I2C_MPU6050_I2C_MASTER.c ****         }
 1084              		.loc 1 227 0
 1085 008a 184B     		ldr	r3, .L88+36
 1086 008c 1C60     		str	r4, [r3]
 1087 008e 04E0     		b	.L83
 1088              	.L82:
 231:Generated_Source\PSoC4/I2C_MPU6050_I2C_MASTER.c ****             I2C_MPU6050_I2C_MASTER_GENERATE_START;
 1089              		.loc 1 231 0
 1090 0090 164B     		ldr	r3, .L88+36
 1091 0092 1C60     		str	r4, [r3]
 232:Generated_Source\PSoC4/I2C_MPU6050_I2C_MASTER.c ****         }
 1092              		.loc 1 232 0
 1093 0094 0222     		movs	r2, #2
 1094 0096 164B     		ldr	r3, .L88+40
 1095 0098 1A60     		str	r2, [r3]
 1096              	.L83:
 236:Generated_Source\PSoC4/I2C_MPU6050_I2C_MASTER.c ****         {
 1097              		.loc 1 236 0
 1098 009a 0F4B     		ldr	r3, .L88+16
 1099 009c 1B68     		ldr	r3, [r3]
 1100 009e 072B     		cmp	r3, #7
 1101 00a0 03D8     		bhi	.L84
 238:Generated_Source\PSoC4/I2C_MPU6050_I2C_MASTER.c ****         }
 1102              		.loc 1 238 0
 1103 00a2 0422     		movs	r2, #4
 1104 00a4 134B     		ldr	r3, .L88+44
 1105 00a6 1A60     		str	r2, [r3]
 1106 00a8 08E0     		b	.L81
ARM GAS  C:\Users\Asus\AppData\Local\Temp\ccaf8y9d.s 			page 39


 1107              	.L84:
 242:Generated_Source\PSoC4/I2C_MPU6050_I2C_MASTER.c ****             I2C_MPU6050_SetRxInterruptMode(I2C_MPU6050_INTR_RX_FULL);
 1108              		.loc 1 242 0
 1109 00aa 134A     		ldr	r2, .L88+48
 1110 00ac 1368     		ldr	r3, [r2]
 1111 00ae 8021     		movs	r1, #128
 1112 00b0 4900     		lsls	r1, r1, #1
 1113 00b2 0B43     		orrs	r3, r1
 1114 00b4 1360     		str	r3, [r2]
 243:Generated_Source\PSoC4/I2C_MPU6050_I2C_MASTER.c ****         }
 1115              		.loc 1 243 0
 1116 00b6 0822     		movs	r2, #8
 1117 00b8 0E4B     		ldr	r3, .L88+44
 1118 00ba 1A60     		str	r2, [r3]
 1119              	.LVL94:
 1120              	.L81:
 247:Generated_Source\PSoC4/I2C_MPU6050_I2C_MASTER.c **** 
 1121              		.loc 1 247 0
 1122 00bc 0A20     		movs	r0, #10
 1123 00be FFF7FEFF 		bl	CyIntEnable
 1124              	.LVL95:
 250:Generated_Source\PSoC4/I2C_MPU6050_I2C_MASTER.c **** 
 1125              		.loc 1 250 0
 1126 00c2 3000     		movs	r0, r6
 1127 00c4 03B0     		add	sp, sp, #12
 1128              		@ sp needed
 1129              	.LVL96:
 1130              	.LVL97:
 1131              	.LVL98:
 1132 00c6 F0BD     		pop	{r4, r5, r6, r7, pc}
 1133              	.L89:
 1134              		.align	2
 1135              	.L88:
 1136 00c8 00000000 		.word	I2C_MPU6050_state
 1137 00cc 64002540 		.word	1076166756
 1138 00d0 00000000 		.word	I2C_MPU6050_mstrStatus
 1139 00d4 00000000 		.word	I2C_MPU6050_mstrRdBufIndex
 1140 00d8 00000000 		.word	I2C_MPU6050_mstrRdBufSize
 1141 00dc 00000000 		.word	I2C_MPU6050_mstrRdBufPtr
 1142 00e0 00000000 		.word	I2C_MPU6050_mstrControl
 1143 00e4 17030000 		.word	791
 1144 00e8 000F2540 		.word	1076170496
 1145 00ec 40022540 		.word	1076167232
 1146 00f0 68002540 		.word	1076166760
 1147 00f4 C80F2540 		.word	1076170696
 1148 00f8 60002540 		.word	1076166752
 1149              		.cfi_endproc
 1150              	.LFE3:
 1151              		.size	I2C_MPU6050_I2CMasterReadBuf, .-I2C_MPU6050_I2CMasterReadBuf
 1152              		.section	.text.I2C_MPU6050_I2CMasterSendRestart,"ax",%progbits
 1153              		.align	2
 1154              		.global	I2C_MPU6050_I2CMasterSendRestart
 1155              		.code	16
 1156              		.thumb_func
 1157              		.type	I2C_MPU6050_I2CMasterSendRestart, %function
 1158              	I2C_MPU6050_I2CMasterSendRestart:
 1159              	.LFB5:
ARM GAS  C:\Users\Asus\AppData\Local\Temp\ccaf8y9d.s 			page 40


 388:Generated_Source\PSoC4/I2C_MPU6050_I2C_MASTER.c ****     uint32 resetIp;
 1160              		.loc 1 388 0
 1161              		.cfi_startproc
 1162              		@ args = 0, pretend = 0, frame = 0
 1163              		@ frame_needed = 0, uses_anonymous_args = 0
 1164              	.LVL99:
 1165 0000 10B5     		push	{r4, lr}
 1166              		.cfi_def_cfa_offset 8
 1167              		.cfi_offset 4, -8
 1168              		.cfi_offset 14, -4
 1169              	.LVL100:
 396:Generated_Source\PSoC4/I2C_MPU6050_I2C_MASTER.c ****     {
 1170              		.loc 1 396 0
 1171 0002 264B     		ldr	r3, .L101
 1172 0004 1B78     		ldrb	r3, [r3]
 1173 0006 9B06     		lsls	r3, r3, #26
 1174 0008 45D5     		bpl	.L98
 398:Generated_Source\PSoC4/I2C_MPU6050_I2C_MASTER.c **** 
 1175              		.loc 1 398 0
 1176 000a 4000     		lsls	r0, r0, #1
 1177              	.LVL101:
 1178 000c FF24     		movs	r4, #255
 1179 000e 0440     		ands	r4, r0
 1180              	.LVL102:
 400:Generated_Source\PSoC4/I2C_MPU6050_I2C_MASTER.c ****         {
 1181              		.loc 1 400 0
 1182 0010 0029     		cmp	r1, #0
 1183 0012 03D1     		bne	.L92
 402:Generated_Source\PSoC4/I2C_MPU6050_I2C_MASTER.c ****         }
 1184              		.loc 1 402 0
 1185 0014 2422     		movs	r2, #36
 1186 0016 214B     		ldr	r3, .L101
 1187 0018 1A70     		strb	r2, [r3]
 1188 001a 04E0     		b	.L93
 1189              	.L92:
 406:Generated_Source\PSoC4/I2C_MPU6050_I2C_MASTER.c ****                       slaveAddress |= I2C_MPU6050_I2C_READ_FLAG;
 1190              		.loc 1 406 0
 1191 001c 2522     		movs	r2, #37
 1192 001e 1F4B     		ldr	r3, .L101
 1193 0020 1A70     		strb	r2, [r3]
 407:Generated_Source\PSoC4/I2C_MPU6050_I2C_MASTER.c ****         }
 1194              		.loc 1 407 0
 1195 0022 0123     		movs	r3, #1
 1196 0024 1C43     		orrs	r4, r3
 1197              	.LVL103:
 1198              	.L93:
 413:Generated_Source\PSoC4/I2C_MPU6050_I2C_MASTER.c **** 
 1199              		.loc 1 413 0
 1200 0026 1E4A     		ldr	r2, .L101+4
 1201 0028 1E4B     		ldr	r3, .L101+8
 1202 002a 1A60     		str	r2, [r3]
 419:Generated_Source\PSoC4/I2C_MPU6050_I2C_MASTER.c **** 
 1203              		.loc 1 419 0
 1204 002c FFF7FEFF 		bl	I2C_MPU6050_I2CReStartGeneration
 1205              	.LVL104:
 1206              	.L94:
 421:Generated_Source\PSoC4/I2C_MPU6050_I2C_MASTER.c ****         {
ARM GAS  C:\Users\Asus\AppData\Local\Temp\ccaf8y9d.s 			page 41


 1207              		.loc 1 421 0 discriminator 1
 1208 0030 1D4B     		ldr	r3, .L101+12
 1209 0032 1B68     		ldr	r3, [r3]
 1210 0034 DB07     		lsls	r3, r3, #31
 1211 0036 FBD4     		bmi	.L94
 427:Generated_Source\PSoC4/I2C_MPU6050_I2C_MASTER.c **** 
 1212              		.loc 1 427 0
 1213 0038 1C4B     		ldr	r3, .L101+16
 1214 003a 1C60     		str	r4, [r3]
 1215              	.L95:
 430:Generated_Source\PSoC4/I2C_MPU6050_I2C_MASTER.c ****                                                   I2C_MPU6050_INTR_MASTER_I2C_NACK     |
 1216              		.loc 1 430 0 discriminator 1
 1217 003c 194B     		ldr	r3, .L101+8
 1218 003e 1A68     		ldr	r2, [r3]
 1219 0040 0823     		movs	r3, #8
 1220 0042 FF33     		adds	r3, r3, #255
 1221 0044 1A42     		tst	r2, r3
 1222 0046 F9D0     		beq	.L95
 439:Generated_Source\PSoC4/I2C_MPU6050_I2C_MASTER.c ****         {
 1223              		.loc 1 439 0
 1224 0048 164B     		ldr	r3, .L101+8
 1225 004a 1B68     		ldr	r3, [r3]
 1226 004c 5B07     		lsls	r3, r3, #29
 1227 004e 14D4     		bmi	.L99
 443:Generated_Source\PSoC4/I2C_MPU6050_I2C_MASTER.c ****         {
 1228              		.loc 1 443 0
 1229 0050 144B     		ldr	r3, .L101+8
 1230 0052 1B68     		ldr	r3, [r3]
 1231 0054 9B07     		lsls	r3, r3, #30
 1232 0056 13D4     		bmi	.L100
 447:Generated_Source\PSoC4/I2C_MPU6050_I2C_MASTER.c ****         {
 1233              		.loc 1 447 0
 1234 0058 124B     		ldr	r3, .L101+8
 1235 005a 1B68     		ldr	r3, [r3]
 1236 005c DB07     		lsls	r3, r3, #31
 1237 005e 05D5     		bpl	.L97
 449:Generated_Source\PSoC4/I2C_MPU6050_I2C_MASTER.c ****                          errStatus = I2C_MPU6050_I2C_MSTR_ERR_ARB_LOST;
 1238              		.loc 1 449 0
 1239 0060 1022     		movs	r2, #16
 1240 0062 0E4B     		ldr	r3, .L101
 1241 0064 1A70     		strb	r2, [r3]
 1242              	.LVL105:
 450:Generated_Source\PSoC4/I2C_MPU6050_I2C_MASTER.c ****                          resetIp   = I2C_MPU6050_I2C_RESET_ERROR;
 1243              		.loc 1 450 0
 1244 0066 0124     		movs	r4, #1
 1245              	.LVL106:
 451:Generated_Source\PSoC4/I2C_MPU6050_I2C_MASTER.c ****         }
 1246              		.loc 1 451 0
 1247 0068 0121     		movs	r1, #1
 1248 006a 0BE0     		b	.L96
 1249              	.LVL107:
 1250              	.L97:
 455:Generated_Source\PSoC4/I2C_MPU6050_I2C_MASTER.c ****                          errStatus = I2C_MPU6050_I2C_MSTR_ERR_BUS_ERR;
 1251              		.loc 1 455 0
 1252 006c 1022     		movs	r2, #16
 1253 006e 0B4B     		ldr	r3, .L101
 1254 0070 1A70     		strb	r2, [r3]
ARM GAS  C:\Users\Asus\AppData\Local\Temp\ccaf8y9d.s 			page 42


 1255              	.LVL108:
 456:Generated_Source\PSoC4/I2C_MPU6050_I2C_MASTER.c ****                          resetIp   = I2C_MPU6050_I2C_RESET_ERROR;
 1256              		.loc 1 456 0
 1257 0072 8024     		movs	r4, #128
 1258              	.LVL109:
 1259 0074 6400     		lsls	r4, r4, #1
 457:Generated_Source\PSoC4/I2C_MPU6050_I2C_MASTER.c ****         }
 1260              		.loc 1 457 0
 1261 0076 0121     		movs	r1, #1
 1262 0078 04E0     		b	.L96
 1263              	.LVL110:
 1264              	.L99:
 441:Generated_Source\PSoC4/I2C_MPU6050_I2C_MASTER.c ****         }
 1265              		.loc 1 441 0
 1266 007a 0024     		movs	r4, #0
 1267              	.LVL111:
 392:Generated_Source\PSoC4/I2C_MPU6050_I2C_MASTER.c ****     errStatus = I2C_MPU6050_I2C_MSTR_NOT_READY;
 1268              		.loc 1 392 0
 1269 007c 0021     		movs	r1, #0
 1270 007e 01E0     		b	.L96
 1271              	.LVL112:
 1272              	.L100:
 445:Generated_Source\PSoC4/I2C_MPU6050_I2C_MASTER.c ****         }
 1273              		.loc 1 445 0
 1274 0080 0224     		movs	r4, #2
 1275              	.LVL113:
 392:Generated_Source\PSoC4/I2C_MPU6050_I2C_MASTER.c ****     errStatus = I2C_MPU6050_I2C_MSTR_NOT_READY;
 1276              		.loc 1 392 0
 1277 0082 0021     		movs	r1, #0
 1278              	.LVL114:
 1279              	.L96:
 460:Generated_Source\PSoC4/I2C_MPU6050_I2C_MASTER.c ****                                                     I2C_MPU6050_INTR_MASTER_I2C_NACK     |
 1280              		.loc 1 460 0
 1281 0084 0822     		movs	r2, #8
 1282 0086 FF32     		adds	r2, r2, #255
 1283 0088 064B     		ldr	r3, .L101+8
 1284 008a 1A60     		str	r2, [r3]
 466:Generated_Source\PSoC4/I2C_MPU6050_I2C_MASTER.c ****         {
 1285              		.loc 1 466 0
 1286 008c 0029     		cmp	r1, #0
 1287 008e 03D0     		beq	.L91
 468:Generated_Source\PSoC4/I2C_MPU6050_I2C_MASTER.c ****         }
 1288              		.loc 1 468 0
 1289 0090 FFF7FEFF 		bl	I2C_MPU6050_I2CFwBlockReset
 1290              	.LVL115:
 1291 0094 00E0     		b	.L91
 1292              	.LVL116:
 1293              	.L98:
 393:Generated_Source\PSoC4/I2C_MPU6050_I2C_MASTER.c **** 
 1294              		.loc 1 393 0
 1295 0096 0424     		movs	r4, #4
 1296              	.LVL117:
 1297              	.L91:
 473:Generated_Source\PSoC4/I2C_MPU6050_I2C_MASTER.c **** 
 1298              		.loc 1 473 0
 1299 0098 2000     		movs	r0, r4
 1300              		@ sp needed
ARM GAS  C:\Users\Asus\AppData\Local\Temp\ccaf8y9d.s 			page 43


 1301              	.LVL118:
 1302 009a 10BD     		pop	{r4, pc}
 1303              	.L102:
 1304              		.align	2
 1305              	.L101:
 1306 009c 00000000 		.word	I2C_MPU6050_state
 1307 00a0 17030000 		.word	791
 1308 00a4 000F2540 		.word	1076170496
 1309 00a8 68002540 		.word	1076166760
 1310 00ac 40022540 		.word	1076167232
 1311              		.cfi_endproc
 1312              	.LFE5:
 1313              		.size	I2C_MPU6050_I2CMasterSendRestart, .-I2C_MPU6050_I2CMasterSendRestart
 1314              		.comm	I2C_MPU6050_mstrWrBufIndexTmp,4,4
 1315              		.comm	I2C_MPU6050_mstrWrBufIndex,4,4
 1316              		.comm	I2C_MPU6050_mstrWrBufSize,4,4
 1317              		.comm	I2C_MPU6050_mstrWrBufPtr,4,4
 1318              		.comm	I2C_MPU6050_mstrRdBufIndex,4,4
 1319              		.comm	I2C_MPU6050_mstrRdBufSize,4,4
 1320              		.comm	I2C_MPU6050_mstrRdBufPtr,4,4
 1321              		.comm	I2C_MPU6050_mstrControl,1,1
 1322              		.comm	I2C_MPU6050_mstrStatus,2,2
 1323              		.text
 1324              	.Letext0:
 1325              		.file 2 "Generated_Source\\PSoC4/cytypes.h"
 1326              		.file 3 "Generated_Source\\PSoC4\\I2C_MPU6050_I2C_PVT.h"
 1327              		.file 4 "Generated_Source\\PSoC4/CyLib.h"
 1328              		.section	.debug_info,"",%progbits
 1329              	.Ldebug_info0:
 1330 0000 44050000 		.4byte	0x544
 1331 0004 0400     		.2byte	0x4
 1332 0006 00000000 		.4byte	.Ldebug_abbrev0
 1333 000a 04       		.byte	0x4
 1334 000b 01       		.uleb128 0x1
 1335 000c 27030000 		.4byte	.LASF54
 1336 0010 0C       		.byte	0xc
 1337 0011 21040000 		.4byte	.LASF55
 1338 0015 63040000 		.4byte	.LASF56
 1339 0019 00000000 		.4byte	.Ldebug_ranges0+0
 1340 001d 00000000 		.4byte	0
 1341 0021 00000000 		.4byte	.Ldebug_line0
 1342 0025 02       		.uleb128 0x2
 1343 0026 01       		.byte	0x1
 1344 0027 06       		.byte	0x6
 1345 0028 CC040000 		.4byte	.LASF0
 1346 002c 02       		.uleb128 0x2
 1347 002d 01       		.byte	0x1
 1348 002e 08       		.byte	0x8
 1349 002f 3A020000 		.4byte	.LASF1
 1350 0033 02       		.uleb128 0x2
 1351 0034 02       		.byte	0x2
 1352 0035 05       		.byte	0x5
 1353 0036 51040000 		.4byte	.LASF2
 1354 003a 02       		.uleb128 0x2
 1355 003b 02       		.byte	0x2
 1356 003c 07       		.byte	0x7
 1357 003d E9000000 		.4byte	.LASF3
ARM GAS  C:\Users\Asus\AppData\Local\Temp\ccaf8y9d.s 			page 44


 1358 0041 02       		.uleb128 0x2
 1359 0042 04       		.byte	0x4
 1360 0043 05       		.byte	0x5
 1361 0044 B7040000 		.4byte	.LASF4
 1362 0048 02       		.uleb128 0x2
 1363 0049 04       		.byte	0x4
 1364 004a 07       		.byte	0x7
 1365 004b F6010000 		.4byte	.LASF5
 1366 004f 02       		.uleb128 0x2
 1367 0050 08       		.byte	0x8
 1368 0051 05       		.byte	0x5
 1369 0052 D7030000 		.4byte	.LASF6
 1370 0056 02       		.uleb128 0x2
 1371 0057 08       		.byte	0x8
 1372 0058 07       		.byte	0x7
 1373 0059 C4020000 		.4byte	.LASF7
 1374 005d 03       		.uleb128 0x3
 1375 005e 04       		.byte	0x4
 1376 005f 05       		.byte	0x5
 1377 0060 696E7400 		.ascii	"int\000"
 1378 0064 02       		.uleb128 0x2
 1379 0065 04       		.byte	0x4
 1380 0066 07       		.byte	0x7
 1381 0067 93020000 		.4byte	.LASF8
 1382 006b 04       		.uleb128 0x4
 1383 006c 08020000 		.4byte	.LASF9
 1384 0070 02       		.byte	0x2
 1385 0071 FB01     		.2byte	0x1fb
 1386 0073 2C000000 		.4byte	0x2c
 1387 0077 04       		.uleb128 0x4
 1388 0078 7E020000 		.4byte	.LASF10
 1389 007c 02       		.byte	0x2
 1390 007d FC01     		.2byte	0x1fc
 1391 007f 3A000000 		.4byte	0x3a
 1392 0083 04       		.uleb128 0x4
 1393 0084 8C020000 		.4byte	.LASF11
 1394 0088 02       		.byte	0x2
 1395 0089 FD01     		.2byte	0x1fd
 1396 008b 48000000 		.4byte	0x48
 1397 008f 02       		.uleb128 0x2
 1398 0090 04       		.byte	0x4
 1399 0091 04       		.byte	0x4
 1400 0092 95010000 		.4byte	.LASF12
 1401 0096 02       		.uleb128 0x2
 1402 0097 08       		.byte	0x8
 1403 0098 04       		.byte	0x4
 1404 0099 41010000 		.4byte	.LASF13
 1405 009d 02       		.uleb128 0x2
 1406 009e 01       		.byte	0x1
 1407 009f 08       		.byte	0x8
 1408 00a0 F7030000 		.4byte	.LASF14
 1409 00a4 05       		.uleb128 0x5
 1410 00a5 6B000000 		.4byte	0x6b
 1411 00a9 05       		.uleb128 0x5
 1412 00aa 77000000 		.4byte	0x77
 1413 00ae 04       		.uleb128 0x4
 1414 00af 00000000 		.4byte	.LASF15
ARM GAS  C:\Users\Asus\AppData\Local\Temp\ccaf8y9d.s 			page 45


 1415 00b3 02       		.byte	0x2
 1416 00b4 A702     		.2byte	0x2a7
 1417 00b6 BA000000 		.4byte	0xba
 1418 00ba 05       		.uleb128 0x5
 1419 00bb 83000000 		.4byte	0x83
 1420 00bf 02       		.uleb128 0x2
 1421 00c0 08       		.byte	0x8
 1422 00c1 04       		.byte	0x4
 1423 00c2 C0040000 		.4byte	.LASF16
 1424 00c6 02       		.uleb128 0x2
 1425 00c7 04       		.byte	0x4
 1426 00c8 07       		.byte	0x7
 1427 00c9 B5030000 		.4byte	.LASF17
 1428 00cd 06       		.uleb128 0x6
 1429 00ce 9B010000 		.4byte	.LASF22
 1430 00d2 01       		.byte	0x1
 1431 00d3 1301     		.2byte	0x113
 1432 00d5 83000000 		.4byte	0x83
 1433 00d9 00000000 		.4byte	.LFB4
 1434 00dd C4000000 		.4byte	.LFE4-.LFB4
 1435 00e1 01       		.uleb128 0x1
 1436 00e2 9C       		.byte	0x9c
 1437 00e3 44010000 		.4byte	0x144
 1438 00e7 07       		.uleb128 0x7
 1439 00e8 1A030000 		.4byte	.LASF18
 1440 00ec 01       		.byte	0x1
 1441 00ed 1301     		.2byte	0x113
 1442 00ef 83000000 		.4byte	0x83
 1443 00f3 00000000 		.4byte	.LLST0
 1444 00f7 07       		.uleb128 0x7
 1445 00f8 6B020000 		.4byte	.LASF19
 1446 00fc 01       		.byte	0x1
 1447 00fd 1301     		.2byte	0x113
 1448 00ff 83000000 		.4byte	0x83
 1449 0103 63000000 		.4byte	.LLST1
 1450 0107 08       		.uleb128 0x8
 1451 0108 4F010000 		.4byte	.LASF20
 1452 010c 01       		.byte	0x1
 1453 010d 1501     		.2byte	0x115
 1454 010f 83000000 		.4byte	0x83
 1455 0113 A5000000 		.4byte	.LLST2
 1456 0117 08       		.uleb128 0x8
 1457 0118 30020000 		.4byte	.LASF21
 1458 011c 01       		.byte	0x1
 1459 011d 1601     		.2byte	0x116
 1460 011f 83000000 		.4byte	0x83
 1461 0123 00010000 		.4byte	.LLST3
 1462 0127 09       		.uleb128 0x9
 1463 0128 1C000000 		.4byte	.LVL3
 1464 012c 26050000 		.4byte	0x526
 1465 0130 3A010000 		.4byte	0x13a
 1466 0134 0A       		.uleb128 0xa
 1467 0135 01       		.uleb128 0x1
 1468 0136 50       		.byte	0x50
 1469 0137 01       		.uleb128 0x1
 1470 0138 3A       		.byte	0x3a
 1471 0139 00       		.byte	0
ARM GAS  C:\Users\Asus\AppData\Local\Temp\ccaf8y9d.s 			page 46


 1472 013a 0B       		.uleb128 0xb
 1473 013b A0000000 		.4byte	.LVL17
 1474 013f 31050000 		.4byte	0x531
 1475 0143 00       		.byte	0
 1476 0144 06       		.uleb128 0x6
 1477 0145 5C000000 		.4byte	.LASF23
 1478 0149 01       		.byte	0x1
 1479 014a F701     		.2byte	0x1f7
 1480 014c 83000000 		.4byte	0x83
 1481 0150 00000000 		.4byte	.LFB6
 1482 0154 7C000000 		.4byte	.LFE6-.LFB6
 1483 0158 01       		.uleb128 0x1
 1484 0159 9C       		.byte	0x9c
 1485 015a 88010000 		.4byte	0x188
 1486 015e 08       		.uleb128 0x8
 1487 015f 4F010000 		.4byte	.LASF20
 1488 0163 01       		.byte	0x1
 1489 0164 F901     		.2byte	0x1f9
 1490 0166 83000000 		.4byte	0x83
 1491 016a 73010000 		.4byte	.LLST4
 1492 016e 08       		.uleb128 0x8
 1493 016f 30020000 		.4byte	.LASF21
 1494 0173 01       		.byte	0x1
 1495 0174 FA01     		.2byte	0x1fa
 1496 0176 83000000 		.4byte	0x83
 1497 017a 9E010000 		.4byte	.LLST5
 1498 017e 0B       		.uleb128 0xb
 1499 017f 62000000 		.4byte	.LVL24
 1500 0183 31050000 		.4byte	0x531
 1501 0187 00       		.byte	0
 1502 0188 06       		.uleb128 0x6
 1503 0189 06000000 		.4byte	.LASF24
 1504 018d 01       		.byte	0x1
 1505 018e 4802     		.2byte	0x248
 1506 0190 83000000 		.4byte	0x83
 1507 0194 00000000 		.4byte	.LFB7
 1508 0198 88000000 		.4byte	.LFE7-.LFB7
 1509 019c 01       		.uleb128 0x1
 1510 019d 9C       		.byte	0x9c
 1511 019e DC010000 		.4byte	0x1dc
 1512 01a2 07       		.uleb128 0x7
 1513 01a3 5B040000 		.4byte	.LASF25
 1514 01a7 01       		.byte	0x1
 1515 01a8 4802     		.2byte	0x248
 1516 01aa 83000000 		.4byte	0x83
 1517 01ae DF010000 		.4byte	.LLST6
 1518 01b2 08       		.uleb128 0x8
 1519 01b3 4F010000 		.4byte	.LASF20
 1520 01b7 01       		.byte	0x1
 1521 01b8 4A02     		.2byte	0x24a
 1522 01ba 83000000 		.4byte	0x83
 1523 01be 19020000 		.4byte	.LLST7
 1524 01c2 08       		.uleb128 0x8
 1525 01c3 30020000 		.4byte	.LASF21
 1526 01c7 01       		.byte	0x1
 1527 01c8 4B02     		.2byte	0x24b
 1528 01ca 83000000 		.4byte	0x83
ARM GAS  C:\Users\Asus\AppData\Local\Temp\ccaf8y9d.s 			page 47


 1529 01ce 68020000 		.4byte	.LLST8
 1530 01d2 0B       		.uleb128 0xb
 1531 01d3 72000000 		.4byte	.LVL38
 1532 01d7 31050000 		.4byte	0x531
 1533 01db 00       		.byte	0
 1534 01dc 06       		.uleb128 0x6
 1535 01dd 94040000 		.4byte	.LASF26
 1536 01e1 01       		.byte	0x1
 1537 01e2 A102     		.2byte	0x2a1
 1538 01e4 83000000 		.4byte	0x83
 1539 01e8 00000000 		.4byte	.LFB8
 1540 01ec 74000000 		.4byte	.LFE8-.LFB8
 1541 01f0 01       		.uleb128 0x1
 1542 01f1 9C       		.byte	0x9c
 1543 01f2 20020000 		.4byte	0x220
 1544 01f6 07       		.uleb128 0x7
 1545 01f7 28020000 		.4byte	.LASF27
 1546 01fb 01       		.byte	0x1
 1547 01fc A102     		.2byte	0x2a1
 1548 01fe 83000000 		.4byte	0x83
 1549 0202 FF020000 		.4byte	.LLST9
 1550 0206 08       		.uleb128 0x8
 1551 0207 5B040000 		.4byte	.LASF25
 1552 020b 01       		.byte	0x1
 1553 020c A302     		.2byte	0x2a3
 1554 020e 83000000 		.4byte	0x83
 1555 0212 5A030000 		.4byte	.LLST10
 1556 0216 0B       		.uleb128 0xb
 1557 0217 4E000000 		.4byte	.LVL46
 1558 021b 31050000 		.4byte	0x531
 1559 021f 00       		.byte	0
 1560 0220 0C       		.uleb128 0xc
 1561 0221 FC000000 		.4byte	.LASF28
 1562 0225 01       		.byte	0x1
 1563 0226 E802     		.2byte	0x2e8
 1564 0228 83000000 		.4byte	0x83
 1565 022c 00000000 		.4byte	.LFB9
 1566 0230 0C000000 		.4byte	.LFE9-.LFB9
 1567 0234 01       		.uleb128 0x1
 1568 0235 9C       		.byte	0x9c
 1569 0236 0C       		.uleb128 0xc
 1570 0237 70010000 		.4byte	.LASF29
 1571 023b 01       		.byte	0x1
 1572 023c 0603     		.2byte	0x306
 1573 023e 83000000 		.4byte	0x83
 1574 0242 00000000 		.4byte	.LFB10
 1575 0246 0C000000 		.4byte	.LFE10-.LFB10
 1576 024a 01       		.uleb128 0x1
 1577 024b 9C       		.byte	0x9c
 1578 024c 0D       		.uleb128 0xd
 1579 024d 96000000 		.4byte	.LASF30
 1580 0251 01       		.byte	0x1
 1581 0252 1F03     		.2byte	0x31f
 1582 0254 00000000 		.4byte	.LFB11
 1583 0258 1C000000 		.4byte	.LFE11-.LFB11
 1584 025c 01       		.uleb128 0x1
 1585 025d 9C       		.byte	0x9c
ARM GAS  C:\Users\Asus\AppData\Local\Temp\ccaf8y9d.s 			page 48


 1586 025e 0D       		.uleb128 0xd
 1587 025f 48020000 		.4byte	.LASF31
 1588 0263 01       		.byte	0x1
 1589 0264 3903     		.2byte	0x339
 1590 0266 00000000 		.4byte	.LFB12
 1591 026a 1C000000 		.4byte	.LFE12-.LFB12
 1592 026e 01       		.uleb128 0x1
 1593 026f 9C       		.byte	0x9c
 1594 0270 06       		.uleb128 0x6
 1595 0271 25000000 		.4byte	.LASF32
 1596 0275 01       		.byte	0x1
 1597 0276 5103     		.2byte	0x351
 1598 0278 83000000 		.4byte	0x83
 1599 027c 00000000 		.4byte	.LFB13
 1600 0280 20000000 		.4byte	.LFE13-.LFB13
 1601 0284 01       		.uleb128 0x1
 1602 0285 9C       		.byte	0x9c
 1603 0286 99020000 		.4byte	0x299
 1604 028a 0E       		.uleb128 0xe
 1605 028b 48010000 		.4byte	.LASF33
 1606 028f 01       		.byte	0x1
 1607 0290 5303     		.2byte	0x353
 1608 0292 83000000 		.4byte	0x83
 1609 0296 01       		.uleb128 0x1
 1610 0297 50       		.byte	0x50
 1611 0298 00       		.byte	0
 1612 0299 06       		.uleb128 0x6
 1613 029a 20010000 		.4byte	.LASF34
 1614 029e 01       		.byte	0x1
 1615 029f 7203     		.2byte	0x372
 1616 02a1 83000000 		.4byte	0x83
 1617 02a5 00000000 		.4byte	.LFB14
 1618 02a9 10000000 		.4byte	.LFE14-.LFB14
 1619 02ad 01       		.uleb128 0x1
 1620 02ae 9C       		.byte	0x9c
 1621 02af C2020000 		.4byte	0x2c2
 1622 02b3 0E       		.uleb128 0xe
 1623 02b4 48010000 		.4byte	.LASF33
 1624 02b8 01       		.byte	0x1
 1625 02b9 7403     		.2byte	0x374
 1626 02bb 83000000 		.4byte	0x83
 1627 02bf 01       		.uleb128 0x1
 1628 02c0 50       		.byte	0x50
 1629 02c1 00       		.byte	0
 1630 02c2 0F       		.uleb128 0xf
 1631 02c3 BA010000 		.4byte	.LASF57
 1632 02c7 01       		.byte	0x1
 1633 02c8 A003     		.2byte	0x3a0
 1634 02ca 00000000 		.4byte	.LFB15
 1635 02ce 20000000 		.4byte	.LFE15-.LFB15
 1636 02d2 01       		.uleb128 0x1
 1637 02d3 9C       		.byte	0x9c
 1638 02d4 E9020000 		.4byte	0x2e9
 1639 02d8 10       		.uleb128 0x10
 1640 02d9 636D6400 		.ascii	"cmd\000"
 1641 02dd 01       		.byte	0x1
 1642 02de D303     		.2byte	0x3d3
ARM GAS  C:\Users\Asus\AppData\Local\Temp\ccaf8y9d.s 			page 49


 1643 02e0 83000000 		.4byte	0x83
 1644 02e4 92030000 		.4byte	.LLST11
 1645 02e8 00       		.byte	0
 1646 02e9 11       		.uleb128 0x11
 1647 02ea FC020000 		.4byte	.LASF35
 1648 02ee 01       		.byte	0x1
 1649 02ef 4B       		.byte	0x4b
 1650 02f0 83000000 		.4byte	0x83
 1651 02f4 00000000 		.4byte	.LFB2
 1652 02f8 EC000000 		.4byte	.LFE2-.LFB2
 1653 02fc 01       		.uleb128 0x1
 1654 02fd 9C       		.byte	0x9c
 1655 02fe 79030000 		.4byte	0x379
 1656 0302 12       		.uleb128 0x12
 1657 0303 1A030000 		.4byte	.LASF18
 1658 0307 01       		.byte	0x1
 1659 0308 4B       		.byte	0x4b
 1660 0309 83000000 		.4byte	0x83
 1661 030d B1030000 		.4byte	.LLST12
 1662 0311 12       		.uleb128 0x12
 1663 0312 BD020000 		.4byte	.LASF36
 1664 0316 01       		.byte	0x1
 1665 0317 4B       		.byte	0x4b
 1666 0318 79030000 		.4byte	0x379
 1667 031c 09040000 		.4byte	.LLST13
 1668 0320 13       		.uleb128 0x13
 1669 0321 636E7400 		.ascii	"cnt\000"
 1670 0325 01       		.byte	0x1
 1671 0326 4B       		.byte	0x4b
 1672 0327 83000000 		.4byte	0x83
 1673 032b 86040000 		.4byte	.LLST14
 1674 032f 12       		.uleb128 0x12
 1675 0330 B2040000 		.4byte	.LASF37
 1676 0334 01       		.byte	0x1
 1677 0335 4B       		.byte	0x4b
 1678 0336 83000000 		.4byte	0x83
 1679 033a F4040000 		.4byte	.LLST15
 1680 033e 14       		.uleb128 0x14
 1681 033f 30020000 		.4byte	.LASF21
 1682 0343 01       		.byte	0x1
 1683 0344 4D       		.byte	0x4d
 1684 0345 83000000 		.4byte	0x83
 1685 0349 36050000 		.4byte	.LLST16
 1686 034d 09       		.uleb128 0x9
 1687 034e 1E000000 		.4byte	.LVL59
 1688 0352 26050000 		.4byte	0x526
 1689 0356 60030000 		.4byte	0x360
 1690 035a 0A       		.uleb128 0xa
 1691 035b 01       		.uleb128 0x1
 1692 035c 50       		.byte	0x50
 1693 035d 01       		.uleb128 0x1
 1694 035e 3A       		.byte	0x3a
 1695 035f 00       		.byte	0
 1696 0360 0B       		.uleb128 0xb
 1697 0361 92000000 		.4byte	.LVL71
 1698 0365 C2020000 		.4byte	0x2c2
 1699 0369 15       		.uleb128 0x15
ARM GAS  C:\Users\Asus\AppData\Local\Temp\ccaf8y9d.s 			page 50


 1700 036a AE000000 		.4byte	.LVL73
 1701 036e 3C050000 		.4byte	0x53c
 1702 0372 0A       		.uleb128 0xa
 1703 0373 01       		.uleb128 0x1
 1704 0374 50       		.byte	0x50
 1705 0375 01       		.uleb128 0x1
 1706 0376 3A       		.byte	0x3a
 1707 0377 00       		.byte	0
 1708 0378 00       		.byte	0
 1709 0379 16       		.uleb128 0x16
 1710 037a 04       		.byte	0x4
 1711 037b 6B000000 		.4byte	0x6b
 1712 037f 11       		.uleb128 0x11
 1713 0380 A0020000 		.4byte	.LASF38
 1714 0384 01       		.byte	0x1
 1715 0385 B1       		.byte	0xb1
 1716 0386 83000000 		.4byte	0x83
 1717 038a 00000000 		.4byte	.LFB3
 1718 038e FC000000 		.4byte	.LFE3-.LFB3
 1719 0392 01       		.uleb128 0x1
 1720 0393 9C       		.byte	0x9c
 1721 0394 0F040000 		.4byte	0x40f
 1722 0398 12       		.uleb128 0x12
 1723 0399 1A030000 		.4byte	.LASF18
 1724 039d 01       		.byte	0x1
 1725 039e B1       		.byte	0xb1
 1726 039f 83000000 		.4byte	0x83
 1727 03a3 78050000 		.4byte	.LLST17
 1728 03a7 12       		.uleb128 0x12
 1729 03a8 85020000 		.4byte	.LASF39
 1730 03ac 01       		.byte	0x1
 1731 03ad B1       		.byte	0xb1
 1732 03ae 79030000 		.4byte	0x379
 1733 03b2 D0050000 		.4byte	.LLST18
 1734 03b6 13       		.uleb128 0x13
 1735 03b7 636E7400 		.ascii	"cnt\000"
 1736 03bb 01       		.byte	0x1
 1737 03bc B1       		.byte	0xb1
 1738 03bd 83000000 		.4byte	0x83
 1739 03c1 4D060000 		.4byte	.LLST19
 1740 03c5 12       		.uleb128 0x12
 1741 03c6 B2040000 		.4byte	.LASF37
 1742 03ca 01       		.byte	0x1
 1743 03cb B1       		.byte	0xb1
 1744 03cc 83000000 		.4byte	0x83
 1745 03d0 BB060000 		.4byte	.LLST20
 1746 03d4 14       		.uleb128 0x14
 1747 03d5 30020000 		.4byte	.LASF21
 1748 03d9 01       		.byte	0x1
 1749 03da B3       		.byte	0xb3
 1750 03db 83000000 		.4byte	0x83
 1751 03df FD060000 		.4byte	.LLST21
 1752 03e3 09       		.uleb128 0x9
 1753 03e4 1E000000 		.4byte	.LVL81
 1754 03e8 26050000 		.4byte	0x526
 1755 03ec F6030000 		.4byte	0x3f6
 1756 03f0 0A       		.uleb128 0xa
ARM GAS  C:\Users\Asus\AppData\Local\Temp\ccaf8y9d.s 			page 51


 1757 03f1 01       		.uleb128 0x1
 1758 03f2 50       		.byte	0x50
 1759 03f3 01       		.uleb128 0x1
 1760 03f4 3A       		.byte	0x3a
 1761 03f5 00       		.byte	0
 1762 03f6 0B       		.uleb128 0xb
 1763 03f7 8A000000 		.4byte	.LVL93
 1764 03fb C2020000 		.4byte	0x2c2
 1765 03ff 15       		.uleb128 0x15
 1766 0400 C2000000 		.4byte	.LVL95
 1767 0404 3C050000 		.4byte	0x53c
 1768 0408 0A       		.uleb128 0xa
 1769 0409 01       		.uleb128 0x1
 1770 040a 50       		.byte	0x50
 1771 040b 01       		.uleb128 0x1
 1772 040c 3A       		.byte	0x3a
 1773 040d 00       		.byte	0
 1774 040e 00       		.byte	0
 1775 040f 06       		.uleb128 0x6
 1776 0410 DB020000 		.4byte	.LASF40
 1777 0414 01       		.byte	0x1
 1778 0415 8301     		.2byte	0x183
 1779 0417 83000000 		.4byte	0x83
 1780 041b 00000000 		.4byte	.LFB5
 1781 041f B0000000 		.4byte	.LFE5-.LFB5
 1782 0423 01       		.uleb128 0x1
 1783 0424 9C       		.byte	0x9c
 1784 0425 7C040000 		.4byte	0x47c
 1785 0429 07       		.uleb128 0x7
 1786 042a 1A030000 		.4byte	.LASF18
 1787 042e 01       		.byte	0x1
 1788 042f 8301     		.2byte	0x183
 1789 0431 83000000 		.4byte	0x83
 1790 0435 3F070000 		.4byte	.LLST22
 1791 0439 07       		.uleb128 0x7
 1792 043a 6B020000 		.4byte	.LASF19
 1793 043e 01       		.byte	0x1
 1794 043f 8301     		.2byte	0x183
 1795 0441 83000000 		.4byte	0x83
 1796 0445 B5070000 		.4byte	.LLST23
 1797 0449 08       		.uleb128 0x8
 1798 044a 4F010000 		.4byte	.LASF20
 1799 044e 01       		.byte	0x1
 1800 044f 8501     		.2byte	0x185
 1801 0451 83000000 		.4byte	0x83
 1802 0455 EF070000 		.4byte	.LLST24
 1803 0459 08       		.uleb128 0x8
 1804 045a 30020000 		.4byte	.LASF21
 1805 045e 01       		.byte	0x1
 1806 045f 8601     		.2byte	0x186
 1807 0461 83000000 		.4byte	0x83
 1808 0465 4A080000 		.4byte	.LLST25
 1809 0469 0B       		.uleb128 0xb
 1810 046a 30000000 		.4byte	.LVL104
 1811 046e C2020000 		.4byte	0x2c2
 1812 0472 0B       		.uleb128 0xb
 1813 0473 94000000 		.4byte	.LVL115
ARM GAS  C:\Users\Asus\AppData\Local\Temp\ccaf8y9d.s 			page 52


 1814 0477 31050000 		.4byte	0x531
 1815 047b 00       		.byte	0
 1816 047c 17       		.uleb128 0x17
 1817 047d E5030000 		.4byte	.LASF41
 1818 0481 03       		.byte	0x3
 1819 0482 1E       		.byte	0x1e
 1820 0483 A4000000 		.4byte	0xa4
 1821 0487 18       		.uleb128 0x18
 1822 0488 D2000000 		.4byte	.LASF42
 1823 048c 01       		.byte	0x1
 1824 048d 1C       		.byte	0x1c
 1825 048e A9000000 		.4byte	0xa9
 1826 0492 05       		.uleb128 0x5
 1827 0493 03       		.byte	0x3
 1828 0494 00000000 		.4byte	I2C_MPU6050_mstrStatus
 1829 0498 18       		.uleb128 0x18
 1830 0499 FC030000 		.4byte	.LASF43
 1831 049d 01       		.byte	0x1
 1832 049e 1D       		.byte	0x1d
 1833 049f A4000000 		.4byte	0xa4
 1834 04a3 05       		.uleb128 0x5
 1835 04a4 03       		.byte	0x3
 1836 04a5 00000000 		.4byte	I2C_MPU6050_mstrControl
 1837 04a9 18       		.uleb128 0x18
 1838 04aa BE030000 		.4byte	.LASF44
 1839 04ae 01       		.byte	0x1
 1840 04af 20       		.byte	0x20
 1841 04b0 BA040000 		.4byte	0x4ba
 1842 04b4 05       		.uleb128 0x5
 1843 04b5 03       		.byte	0x3
 1844 04b6 00000000 		.4byte	I2C_MPU6050_mstrRdBufPtr
 1845 04ba 16       		.uleb128 0x16
 1846 04bb 04       		.byte	0x4
 1847 04bc A4000000 		.4byte	0xa4
 1848 04c0 18       		.uleb128 0x18
 1849 04c1 B8000000 		.4byte	.LASF45
 1850 04c5 01       		.byte	0x1
 1851 04c6 21       		.byte	0x21
 1852 04c7 BA000000 		.4byte	0xba
 1853 04cb 05       		.uleb128 0x5
 1854 04cc 03       		.byte	0x3
 1855 04cd 00000000 		.4byte	I2C_MPU6050_mstrRdBufSize
 1856 04d1 18       		.uleb128 0x18
 1857 04d2 DB010000 		.4byte	.LASF46
 1858 04d6 01       		.byte	0x1
 1859 04d7 22       		.byte	0x22
 1860 04d8 BA000000 		.4byte	0xba
 1861 04dc 05       		.uleb128 0x5
 1862 04dd 03       		.byte	0x3
 1863 04de 00000000 		.4byte	I2C_MPU6050_mstrRdBufIndex
 1864 04e2 18       		.uleb128 0x18
 1865 04e3 57010000 		.4byte	.LASF47
 1866 04e7 01       		.byte	0x1
 1867 04e8 25       		.byte	0x25
 1868 04e9 BA040000 		.4byte	0x4ba
 1869 04ed 05       		.uleb128 0x5
 1870 04ee 03       		.byte	0x3
ARM GAS  C:\Users\Asus\AppData\Local\Temp\ccaf8y9d.s 			page 53


 1871 04ef 00000000 		.4byte	I2C_MPU6050_mstrWrBufPtr
 1872 04f3 18       		.uleb128 0x18
 1873 04f4 0E020000 		.4byte	.LASF48
 1874 04f8 01       		.byte	0x1
 1875 04f9 26       		.byte	0x26
 1876 04fa BA000000 		.4byte	0xba
 1877 04fe 05       		.uleb128 0x5
 1878 04ff 03       		.byte	0x3
 1879 0500 00000000 		.4byte	I2C_MPU6050_mstrWrBufSize
 1880 0504 18       		.uleb128 0x18
 1881 0505 41000000 		.4byte	.LASF49
 1882 0509 01       		.byte	0x1
 1883 050a 27       		.byte	0x27
 1884 050b BA000000 		.4byte	0xba
 1885 050f 05       		.uleb128 0x5
 1886 0510 03       		.byte	0x3
 1887 0511 00000000 		.4byte	I2C_MPU6050_mstrWrBufIndex
 1888 0515 18       		.uleb128 0x18
 1889 0516 D8040000 		.4byte	.LASF50
 1890 051a 01       		.byte	0x1
 1891 051b 28       		.byte	0x28
 1892 051c BA000000 		.4byte	0xba
 1893 0520 05       		.uleb128 0x5
 1894 0521 03       		.byte	0x3
 1895 0522 00000000 		.4byte	I2C_MPU6050_mstrWrBufIndexTmp
 1896 0526 19       		.uleb128 0x19
 1897 0527 14040000 		.4byte	.LASF51
 1898 052b 14040000 		.4byte	.LASF51
 1899 052f 04       		.byte	0x4
 1900 0530 D8       		.byte	0xd8
 1901 0531 19       		.uleb128 0x19
 1902 0532 7A000000 		.4byte	.LASF52
 1903 0536 7A000000 		.4byte	.LASF52
 1904 053a 03       		.byte	0x3
 1905 053b 4D       		.byte	0x4d
 1906 053c 19       		.uleb128 0x19
 1907 053d 72020000 		.4byte	.LASF53
 1908 0541 72020000 		.4byte	.LASF53
 1909 0545 04       		.byte	0x4
 1910 0546 D6       		.byte	0xd6
 1911 0547 00       		.byte	0
 1912              		.section	.debug_abbrev,"",%progbits
 1913              	.Ldebug_abbrev0:
 1914 0000 01       		.uleb128 0x1
 1915 0001 11       		.uleb128 0x11
 1916 0002 01       		.byte	0x1
 1917 0003 25       		.uleb128 0x25
 1918 0004 0E       		.uleb128 0xe
 1919 0005 13       		.uleb128 0x13
 1920 0006 0B       		.uleb128 0xb
 1921 0007 03       		.uleb128 0x3
 1922 0008 0E       		.uleb128 0xe
 1923 0009 1B       		.uleb128 0x1b
 1924 000a 0E       		.uleb128 0xe
 1925 000b 55       		.uleb128 0x55
 1926 000c 17       		.uleb128 0x17
 1927 000d 11       		.uleb128 0x11
ARM GAS  C:\Users\Asus\AppData\Local\Temp\ccaf8y9d.s 			page 54


 1928 000e 01       		.uleb128 0x1
 1929 000f 10       		.uleb128 0x10
 1930 0010 17       		.uleb128 0x17
 1931 0011 00       		.byte	0
 1932 0012 00       		.byte	0
 1933 0013 02       		.uleb128 0x2
 1934 0014 24       		.uleb128 0x24
 1935 0015 00       		.byte	0
 1936 0016 0B       		.uleb128 0xb
 1937 0017 0B       		.uleb128 0xb
 1938 0018 3E       		.uleb128 0x3e
 1939 0019 0B       		.uleb128 0xb
 1940 001a 03       		.uleb128 0x3
 1941 001b 0E       		.uleb128 0xe
 1942 001c 00       		.byte	0
 1943 001d 00       		.byte	0
 1944 001e 03       		.uleb128 0x3
 1945 001f 24       		.uleb128 0x24
 1946 0020 00       		.byte	0
 1947 0021 0B       		.uleb128 0xb
 1948 0022 0B       		.uleb128 0xb
 1949 0023 3E       		.uleb128 0x3e
 1950 0024 0B       		.uleb128 0xb
 1951 0025 03       		.uleb128 0x3
 1952 0026 08       		.uleb128 0x8
 1953 0027 00       		.byte	0
 1954 0028 00       		.byte	0
 1955 0029 04       		.uleb128 0x4
 1956 002a 16       		.uleb128 0x16
 1957 002b 00       		.byte	0
 1958 002c 03       		.uleb128 0x3
 1959 002d 0E       		.uleb128 0xe
 1960 002e 3A       		.uleb128 0x3a
 1961 002f 0B       		.uleb128 0xb
 1962 0030 3B       		.uleb128 0x3b
 1963 0031 05       		.uleb128 0x5
 1964 0032 49       		.uleb128 0x49
 1965 0033 13       		.uleb128 0x13
 1966 0034 00       		.byte	0
 1967 0035 00       		.byte	0
 1968 0036 05       		.uleb128 0x5
 1969 0037 35       		.uleb128 0x35
 1970 0038 00       		.byte	0
 1971 0039 49       		.uleb128 0x49
 1972 003a 13       		.uleb128 0x13
 1973 003b 00       		.byte	0
 1974 003c 00       		.byte	0
 1975 003d 06       		.uleb128 0x6
 1976 003e 2E       		.uleb128 0x2e
 1977 003f 01       		.byte	0x1
 1978 0040 3F       		.uleb128 0x3f
 1979 0041 19       		.uleb128 0x19
 1980 0042 03       		.uleb128 0x3
 1981 0043 0E       		.uleb128 0xe
 1982 0044 3A       		.uleb128 0x3a
 1983 0045 0B       		.uleb128 0xb
 1984 0046 3B       		.uleb128 0x3b
ARM GAS  C:\Users\Asus\AppData\Local\Temp\ccaf8y9d.s 			page 55


 1985 0047 05       		.uleb128 0x5
 1986 0048 27       		.uleb128 0x27
 1987 0049 19       		.uleb128 0x19
 1988 004a 49       		.uleb128 0x49
 1989 004b 13       		.uleb128 0x13
 1990 004c 11       		.uleb128 0x11
 1991 004d 01       		.uleb128 0x1
 1992 004e 12       		.uleb128 0x12
 1993 004f 06       		.uleb128 0x6
 1994 0050 40       		.uleb128 0x40
 1995 0051 18       		.uleb128 0x18
 1996 0052 9742     		.uleb128 0x2117
 1997 0054 19       		.uleb128 0x19
 1998 0055 01       		.uleb128 0x1
 1999 0056 13       		.uleb128 0x13
 2000 0057 00       		.byte	0
 2001 0058 00       		.byte	0
 2002 0059 07       		.uleb128 0x7
 2003 005a 05       		.uleb128 0x5
 2004 005b 00       		.byte	0
 2005 005c 03       		.uleb128 0x3
 2006 005d 0E       		.uleb128 0xe
 2007 005e 3A       		.uleb128 0x3a
 2008 005f 0B       		.uleb128 0xb
 2009 0060 3B       		.uleb128 0x3b
 2010 0061 05       		.uleb128 0x5
 2011 0062 49       		.uleb128 0x49
 2012 0063 13       		.uleb128 0x13
 2013 0064 02       		.uleb128 0x2
 2014 0065 17       		.uleb128 0x17
 2015 0066 00       		.byte	0
 2016 0067 00       		.byte	0
 2017 0068 08       		.uleb128 0x8
 2018 0069 34       		.uleb128 0x34
 2019 006a 00       		.byte	0
 2020 006b 03       		.uleb128 0x3
 2021 006c 0E       		.uleb128 0xe
 2022 006d 3A       		.uleb128 0x3a
 2023 006e 0B       		.uleb128 0xb
 2024 006f 3B       		.uleb128 0x3b
 2025 0070 05       		.uleb128 0x5
 2026 0071 49       		.uleb128 0x49
 2027 0072 13       		.uleb128 0x13
 2028 0073 02       		.uleb128 0x2
 2029 0074 17       		.uleb128 0x17
 2030 0075 00       		.byte	0
 2031 0076 00       		.byte	0
 2032 0077 09       		.uleb128 0x9
 2033 0078 898201   		.uleb128 0x4109
 2034 007b 01       		.byte	0x1
 2035 007c 11       		.uleb128 0x11
 2036 007d 01       		.uleb128 0x1
 2037 007e 31       		.uleb128 0x31
 2038 007f 13       		.uleb128 0x13
 2039 0080 01       		.uleb128 0x1
 2040 0081 13       		.uleb128 0x13
 2041 0082 00       		.byte	0
ARM GAS  C:\Users\Asus\AppData\Local\Temp\ccaf8y9d.s 			page 56


 2042 0083 00       		.byte	0
 2043 0084 0A       		.uleb128 0xa
 2044 0085 8A8201   		.uleb128 0x410a
 2045 0088 00       		.byte	0
 2046 0089 02       		.uleb128 0x2
 2047 008a 18       		.uleb128 0x18
 2048 008b 9142     		.uleb128 0x2111
 2049 008d 18       		.uleb128 0x18
 2050 008e 00       		.byte	0
 2051 008f 00       		.byte	0
 2052 0090 0B       		.uleb128 0xb
 2053 0091 898201   		.uleb128 0x4109
 2054 0094 00       		.byte	0
 2055 0095 11       		.uleb128 0x11
 2056 0096 01       		.uleb128 0x1
 2057 0097 31       		.uleb128 0x31
 2058 0098 13       		.uleb128 0x13
 2059 0099 00       		.byte	0
 2060 009a 00       		.byte	0
 2061 009b 0C       		.uleb128 0xc
 2062 009c 2E       		.uleb128 0x2e
 2063 009d 00       		.byte	0
 2064 009e 3F       		.uleb128 0x3f
 2065 009f 19       		.uleb128 0x19
 2066 00a0 03       		.uleb128 0x3
 2067 00a1 0E       		.uleb128 0xe
 2068 00a2 3A       		.uleb128 0x3a
 2069 00a3 0B       		.uleb128 0xb
 2070 00a4 3B       		.uleb128 0x3b
 2071 00a5 05       		.uleb128 0x5
 2072 00a6 27       		.uleb128 0x27
 2073 00a7 19       		.uleb128 0x19
 2074 00a8 49       		.uleb128 0x49
 2075 00a9 13       		.uleb128 0x13
 2076 00aa 11       		.uleb128 0x11
 2077 00ab 01       		.uleb128 0x1
 2078 00ac 12       		.uleb128 0x12
 2079 00ad 06       		.uleb128 0x6
 2080 00ae 40       		.uleb128 0x40
 2081 00af 18       		.uleb128 0x18
 2082 00b0 9742     		.uleb128 0x2117
 2083 00b2 19       		.uleb128 0x19
 2084 00b3 00       		.byte	0
 2085 00b4 00       		.byte	0
 2086 00b5 0D       		.uleb128 0xd
 2087 00b6 2E       		.uleb128 0x2e
 2088 00b7 00       		.byte	0
 2089 00b8 3F       		.uleb128 0x3f
 2090 00b9 19       		.uleb128 0x19
 2091 00ba 03       		.uleb128 0x3
 2092 00bb 0E       		.uleb128 0xe
 2093 00bc 3A       		.uleb128 0x3a
 2094 00bd 0B       		.uleb128 0xb
 2095 00be 3B       		.uleb128 0x3b
 2096 00bf 05       		.uleb128 0x5
 2097 00c0 27       		.uleb128 0x27
 2098 00c1 19       		.uleb128 0x19
ARM GAS  C:\Users\Asus\AppData\Local\Temp\ccaf8y9d.s 			page 57


 2099 00c2 11       		.uleb128 0x11
 2100 00c3 01       		.uleb128 0x1
 2101 00c4 12       		.uleb128 0x12
 2102 00c5 06       		.uleb128 0x6
 2103 00c6 40       		.uleb128 0x40
 2104 00c7 18       		.uleb128 0x18
 2105 00c8 9742     		.uleb128 0x2117
 2106 00ca 19       		.uleb128 0x19
 2107 00cb 00       		.byte	0
 2108 00cc 00       		.byte	0
 2109 00cd 0E       		.uleb128 0xe
 2110 00ce 34       		.uleb128 0x34
 2111 00cf 00       		.byte	0
 2112 00d0 03       		.uleb128 0x3
 2113 00d1 0E       		.uleb128 0xe
 2114 00d2 3A       		.uleb128 0x3a
 2115 00d3 0B       		.uleb128 0xb
 2116 00d4 3B       		.uleb128 0x3b
 2117 00d5 05       		.uleb128 0x5
 2118 00d6 49       		.uleb128 0x49
 2119 00d7 13       		.uleb128 0x13
 2120 00d8 02       		.uleb128 0x2
 2121 00d9 18       		.uleb128 0x18
 2122 00da 00       		.byte	0
 2123 00db 00       		.byte	0
 2124 00dc 0F       		.uleb128 0xf
 2125 00dd 2E       		.uleb128 0x2e
 2126 00de 01       		.byte	0x1
 2127 00df 3F       		.uleb128 0x3f
 2128 00e0 19       		.uleb128 0x19
 2129 00e1 03       		.uleb128 0x3
 2130 00e2 0E       		.uleb128 0xe
 2131 00e3 3A       		.uleb128 0x3a
 2132 00e4 0B       		.uleb128 0xb
 2133 00e5 3B       		.uleb128 0x3b
 2134 00e6 05       		.uleb128 0x5
 2135 00e7 27       		.uleb128 0x27
 2136 00e8 19       		.uleb128 0x19
 2137 00e9 11       		.uleb128 0x11
 2138 00ea 01       		.uleb128 0x1
 2139 00eb 12       		.uleb128 0x12
 2140 00ec 06       		.uleb128 0x6
 2141 00ed 40       		.uleb128 0x40
 2142 00ee 18       		.uleb128 0x18
 2143 00ef 9742     		.uleb128 0x2117
 2144 00f1 19       		.uleb128 0x19
 2145 00f2 01       		.uleb128 0x1
 2146 00f3 13       		.uleb128 0x13
 2147 00f4 00       		.byte	0
 2148 00f5 00       		.byte	0
 2149 00f6 10       		.uleb128 0x10
 2150 00f7 34       		.uleb128 0x34
 2151 00f8 00       		.byte	0
 2152 00f9 03       		.uleb128 0x3
 2153 00fa 08       		.uleb128 0x8
 2154 00fb 3A       		.uleb128 0x3a
 2155 00fc 0B       		.uleb128 0xb
ARM GAS  C:\Users\Asus\AppData\Local\Temp\ccaf8y9d.s 			page 58


 2156 00fd 3B       		.uleb128 0x3b
 2157 00fe 05       		.uleb128 0x5
 2158 00ff 49       		.uleb128 0x49
 2159 0100 13       		.uleb128 0x13
 2160 0101 02       		.uleb128 0x2
 2161 0102 17       		.uleb128 0x17
 2162 0103 00       		.byte	0
 2163 0104 00       		.byte	0
 2164 0105 11       		.uleb128 0x11
 2165 0106 2E       		.uleb128 0x2e
 2166 0107 01       		.byte	0x1
 2167 0108 3F       		.uleb128 0x3f
 2168 0109 19       		.uleb128 0x19
 2169 010a 03       		.uleb128 0x3
 2170 010b 0E       		.uleb128 0xe
 2171 010c 3A       		.uleb128 0x3a
 2172 010d 0B       		.uleb128 0xb
 2173 010e 3B       		.uleb128 0x3b
 2174 010f 0B       		.uleb128 0xb
 2175 0110 27       		.uleb128 0x27
 2176 0111 19       		.uleb128 0x19
 2177 0112 49       		.uleb128 0x49
 2178 0113 13       		.uleb128 0x13
 2179 0114 11       		.uleb128 0x11
 2180 0115 01       		.uleb128 0x1
 2181 0116 12       		.uleb128 0x12
 2182 0117 06       		.uleb128 0x6
 2183 0118 40       		.uleb128 0x40
 2184 0119 18       		.uleb128 0x18
 2185 011a 9742     		.uleb128 0x2117
 2186 011c 19       		.uleb128 0x19
 2187 011d 01       		.uleb128 0x1
 2188 011e 13       		.uleb128 0x13
 2189 011f 00       		.byte	0
 2190 0120 00       		.byte	0
 2191 0121 12       		.uleb128 0x12
 2192 0122 05       		.uleb128 0x5
 2193 0123 00       		.byte	0
 2194 0124 03       		.uleb128 0x3
 2195 0125 0E       		.uleb128 0xe
 2196 0126 3A       		.uleb128 0x3a
 2197 0127 0B       		.uleb128 0xb
 2198 0128 3B       		.uleb128 0x3b
 2199 0129 0B       		.uleb128 0xb
 2200 012a 49       		.uleb128 0x49
 2201 012b 13       		.uleb128 0x13
 2202 012c 02       		.uleb128 0x2
 2203 012d 17       		.uleb128 0x17
 2204 012e 00       		.byte	0
 2205 012f 00       		.byte	0
 2206 0130 13       		.uleb128 0x13
 2207 0131 05       		.uleb128 0x5
 2208 0132 00       		.byte	0
 2209 0133 03       		.uleb128 0x3
 2210 0134 08       		.uleb128 0x8
 2211 0135 3A       		.uleb128 0x3a
 2212 0136 0B       		.uleb128 0xb
ARM GAS  C:\Users\Asus\AppData\Local\Temp\ccaf8y9d.s 			page 59


 2213 0137 3B       		.uleb128 0x3b
 2214 0138 0B       		.uleb128 0xb
 2215 0139 49       		.uleb128 0x49
 2216 013a 13       		.uleb128 0x13
 2217 013b 02       		.uleb128 0x2
 2218 013c 17       		.uleb128 0x17
 2219 013d 00       		.byte	0
 2220 013e 00       		.byte	0
 2221 013f 14       		.uleb128 0x14
 2222 0140 34       		.uleb128 0x34
 2223 0141 00       		.byte	0
 2224 0142 03       		.uleb128 0x3
 2225 0143 0E       		.uleb128 0xe
 2226 0144 3A       		.uleb128 0x3a
 2227 0145 0B       		.uleb128 0xb
 2228 0146 3B       		.uleb128 0x3b
 2229 0147 0B       		.uleb128 0xb
 2230 0148 49       		.uleb128 0x49
 2231 0149 13       		.uleb128 0x13
 2232 014a 02       		.uleb128 0x2
 2233 014b 17       		.uleb128 0x17
 2234 014c 00       		.byte	0
 2235 014d 00       		.byte	0
 2236 014e 15       		.uleb128 0x15
 2237 014f 898201   		.uleb128 0x4109
 2238 0152 01       		.byte	0x1
 2239 0153 11       		.uleb128 0x11
 2240 0154 01       		.uleb128 0x1
 2241 0155 31       		.uleb128 0x31
 2242 0156 13       		.uleb128 0x13
 2243 0157 00       		.byte	0
 2244 0158 00       		.byte	0
 2245 0159 16       		.uleb128 0x16
 2246 015a 0F       		.uleb128 0xf
 2247 015b 00       		.byte	0
 2248 015c 0B       		.uleb128 0xb
 2249 015d 0B       		.uleb128 0xb
 2250 015e 49       		.uleb128 0x49
 2251 015f 13       		.uleb128 0x13
 2252 0160 00       		.byte	0
 2253 0161 00       		.byte	0
 2254 0162 17       		.uleb128 0x17
 2255 0163 34       		.uleb128 0x34
 2256 0164 00       		.byte	0
 2257 0165 03       		.uleb128 0x3
 2258 0166 0E       		.uleb128 0xe
 2259 0167 3A       		.uleb128 0x3a
 2260 0168 0B       		.uleb128 0xb
 2261 0169 3B       		.uleb128 0x3b
 2262 016a 0B       		.uleb128 0xb
 2263 016b 49       		.uleb128 0x49
 2264 016c 13       		.uleb128 0x13
 2265 016d 3F       		.uleb128 0x3f
 2266 016e 19       		.uleb128 0x19
 2267 016f 3C       		.uleb128 0x3c
 2268 0170 19       		.uleb128 0x19
 2269 0171 00       		.byte	0
ARM GAS  C:\Users\Asus\AppData\Local\Temp\ccaf8y9d.s 			page 60


 2270 0172 00       		.byte	0
 2271 0173 18       		.uleb128 0x18
 2272 0174 34       		.uleb128 0x34
 2273 0175 00       		.byte	0
 2274 0176 03       		.uleb128 0x3
 2275 0177 0E       		.uleb128 0xe
 2276 0178 3A       		.uleb128 0x3a
 2277 0179 0B       		.uleb128 0xb
 2278 017a 3B       		.uleb128 0x3b
 2279 017b 0B       		.uleb128 0xb
 2280 017c 49       		.uleb128 0x49
 2281 017d 13       		.uleb128 0x13
 2282 017e 3F       		.uleb128 0x3f
 2283 017f 19       		.uleb128 0x19
 2284 0180 02       		.uleb128 0x2
 2285 0181 18       		.uleb128 0x18
 2286 0182 00       		.byte	0
 2287 0183 00       		.byte	0
 2288 0184 19       		.uleb128 0x19
 2289 0185 2E       		.uleb128 0x2e
 2290 0186 00       		.byte	0
 2291 0187 3F       		.uleb128 0x3f
 2292 0188 19       		.uleb128 0x19
 2293 0189 3C       		.uleb128 0x3c
 2294 018a 19       		.uleb128 0x19
 2295 018b 6E       		.uleb128 0x6e
 2296 018c 0E       		.uleb128 0xe
 2297 018d 03       		.uleb128 0x3
 2298 018e 0E       		.uleb128 0xe
 2299 018f 3A       		.uleb128 0x3a
 2300 0190 0B       		.uleb128 0xb
 2301 0191 3B       		.uleb128 0x3b
 2302 0192 0B       		.uleb128 0xb
 2303 0193 00       		.byte	0
 2304 0194 00       		.byte	0
 2305 0195 00       		.byte	0
 2306              		.section	.debug_loc,"",%progbits
 2307              	.Ldebug_loc0:
 2308              	.LLST0:
 2309 0000 00000000 		.4byte	.LVL0
 2310 0004 18000000 		.4byte	.LVL2
 2311 0008 0100     		.2byte	0x1
 2312 000a 50       		.byte	0x50
 2313 000b 18000000 		.4byte	.LVL2
 2314 000f 1E000000 		.4byte	.LVL4
 2315 0013 0100     		.2byte	0x1
 2316 0015 54       		.byte	0x54
 2317 0016 1E000000 		.4byte	.LVL4
 2318 001a 22000000 		.4byte	.LVL5
 2319 001e 0400     		.2byte	0x4
 2320 0020 F3       		.byte	0xf3
 2321 0021 01       		.uleb128 0x1
 2322 0022 50       		.byte	0x50
 2323 0023 9F       		.byte	0x9f
 2324 0024 22000000 		.4byte	.LVL5
 2325 0028 74000000 		.4byte	.LVL8
 2326 002c 0100     		.2byte	0x1
ARM GAS  C:\Users\Asus\AppData\Local\Temp\ccaf8y9d.s 			page 61


 2327 002e 54       		.byte	0x54
 2328 002f 78000000 		.4byte	.LVL9
 2329 0033 80000000 		.4byte	.LVL11
 2330 0037 0100     		.2byte	0x1
 2331 0039 54       		.byte	0x54
 2332 003a 86000000 		.4byte	.LVL12
 2333 003e 88000000 		.4byte	.LVL13
 2334 0042 0100     		.2byte	0x1
 2335 0044 54       		.byte	0x54
 2336 0045 8C000000 		.4byte	.LVL14
 2337 0049 8E000000 		.4byte	.LVL15
 2338 004d 0100     		.2byte	0x1
 2339 004f 54       		.byte	0x54
 2340 0050 A2000000 		.4byte	.LVL18
 2341 0054 A8000000 		.4byte	.LVL19
 2342 0058 0100     		.2byte	0x1
 2343 005a 50       		.byte	0x50
 2344 005b 00000000 		.4byte	0
 2345 005f 00000000 		.4byte	0
 2346              	.LLST1:
 2347 0063 00000000 		.4byte	.LVL0
 2348 0067 1B000000 		.4byte	.LVL3-1
 2349 006b 0100     		.2byte	0x1
 2350 006d 51       		.byte	0x51
 2351 006e 1B000000 		.4byte	.LVL3-1
 2352 0072 A2000000 		.4byte	.LVL18
 2353 0076 0100     		.2byte	0x1
 2354 0078 55       		.byte	0x55
 2355 0079 A2000000 		.4byte	.LVL18
 2356 007d A8000000 		.4byte	.LVL19
 2357 0081 0100     		.2byte	0x1
 2358 0083 51       		.byte	0x51
 2359 0084 A8000000 		.4byte	.LVL19
 2360 0088 AA000000 		.4byte	.LVL21
 2361 008c 0100     		.2byte	0x1
 2362 008e 55       		.byte	0x55
 2363 008f AA000000 		.4byte	.LVL21
 2364 0093 C4000000 		.4byte	.LFE4
 2365 0097 0400     		.2byte	0x4
 2366 0099 F3       		.byte	0xf3
 2367 009a 01       		.uleb128 0x1
 2368 009b 51       		.byte	0x51
 2369 009c 9F       		.byte	0x9f
 2370 009d 00000000 		.4byte	0
 2371 00a1 00000000 		.4byte	0
 2372              	.LLST2:
 2373 00a5 06000000 		.4byte	.LVL1
 2374 00a9 72000000 		.4byte	.LVL7
 2375 00ad 0200     		.2byte	0x2
 2376 00af 30       		.byte	0x30
 2377 00b0 9F       		.byte	0x9f
 2378 00b1 72000000 		.4byte	.LVL7
 2379 00b5 78000000 		.4byte	.LVL9
 2380 00b9 0200     		.2byte	0x2
 2381 00bb 31       		.byte	0x31
 2382 00bc 9F       		.byte	0x9f
 2383 00bd 78000000 		.4byte	.LVL9
ARM GAS  C:\Users\Asus\AppData\Local\Temp\ccaf8y9d.s 			page 62


 2384 00c1 7E000000 		.4byte	.LVL10
 2385 00c5 0200     		.2byte	0x2
 2386 00c7 30       		.byte	0x30
 2387 00c8 9F       		.byte	0x9f
 2388 00c9 7E000000 		.4byte	.LVL10
 2389 00cd 86000000 		.4byte	.LVL12
 2390 00d1 0200     		.2byte	0x2
 2391 00d3 31       		.byte	0x31
 2392 00d4 9F       		.byte	0x9f
 2393 00d5 86000000 		.4byte	.LVL12
 2394 00d9 90000000 		.4byte	.LVL16
 2395 00dd 0200     		.2byte	0x2
 2396 00df 30       		.byte	0x30
 2397 00e0 9F       		.byte	0x9f
 2398 00e1 90000000 		.4byte	.LVL16
 2399 00e5 9F000000 		.4byte	.LVL17-1
 2400 00e9 0100     		.2byte	0x1
 2401 00eb 51       		.byte	0x51
 2402 00ec A2000000 		.4byte	.LVL18
 2403 00f0 A8000000 		.4byte	.LVL19
 2404 00f4 0200     		.2byte	0x2
 2405 00f6 30       		.byte	0x30
 2406 00f7 9F       		.byte	0x9f
 2407 00f8 00000000 		.4byte	0
 2408 00fc 00000000 		.4byte	0
 2409              	.LLST3:
 2410 0100 06000000 		.4byte	.LVL1
 2411 0104 72000000 		.4byte	.LVL7
 2412 0108 0200     		.2byte	0x2
 2413 010a 34       		.byte	0x34
 2414 010b 9F       		.byte	0x9f
 2415 010c 72000000 		.4byte	.LVL7
 2416 0110 78000000 		.4byte	.LVL9
 2417 0114 0200     		.2byte	0x2
 2418 0116 31       		.byte	0x31
 2419 0117 9F       		.byte	0x9f
 2420 0118 78000000 		.4byte	.LVL9
 2421 011c 7E000000 		.4byte	.LVL10
 2422 0120 0200     		.2byte	0x2
 2423 0122 34       		.byte	0x34
 2424 0123 9F       		.byte	0x9f
 2425 0124 7E000000 		.4byte	.LVL10
 2426 0128 86000000 		.4byte	.LVL12
 2427 012c 0400     		.2byte	0x4
 2428 012e 0A       		.byte	0xa
 2429 012f 0001     		.2byte	0x100
 2430 0131 9F       		.byte	0x9f
 2431 0132 86000000 		.4byte	.LVL12
 2432 0136 90000000 		.4byte	.LVL16
 2433 013a 0200     		.2byte	0x2
 2434 013c 34       		.byte	0x34
 2435 013d 9F       		.byte	0x9f
 2436 013e 90000000 		.4byte	.LVL16
 2437 0142 A2000000 		.4byte	.LVL18
 2438 0146 0100     		.2byte	0x1
 2439 0148 54       		.byte	0x54
 2440 0149 A2000000 		.4byte	.LVL18
ARM GAS  C:\Users\Asus\AppData\Local\Temp\ccaf8y9d.s 			page 63


 2441 014d A8000000 		.4byte	.LVL19
 2442 0151 0200     		.2byte	0x2
 2443 0153 34       		.byte	0x34
 2444 0154 9F       		.byte	0x9f
 2445 0155 A8000000 		.4byte	.LVL19
 2446 0159 AA000000 		.4byte	.LVL20
 2447 015d 0100     		.2byte	0x1
 2448 015f 54       		.byte	0x54
 2449 0160 AA000000 		.4byte	.LVL20
 2450 0164 C4000000 		.4byte	.LFE4
 2451 0168 0100     		.2byte	0x1
 2452 016a 50       		.byte	0x50
 2453 016b 00000000 		.4byte	0
 2454 016f 00000000 		.4byte	0
 2455              	.LLST4:
 2456 0173 02000000 		.4byte	.LVL22
 2457 0177 4A000000 		.4byte	.LVL23
 2458 017b 0200     		.2byte	0x2
 2459 017d 30       		.byte	0x30
 2460 017e 9F       		.byte	0x9f
 2461 017f 4A000000 		.4byte	.LVL23
 2462 0183 61000000 		.4byte	.LVL24-1
 2463 0187 0100     		.2byte	0x1
 2464 0189 51       		.byte	0x51
 2465 018a 64000000 		.4byte	.LVL25
 2466 018e 66000000 		.4byte	.LVL26
 2467 0192 0200     		.2byte	0x2
 2468 0194 30       		.byte	0x30
 2469 0195 9F       		.byte	0x9f
 2470 0196 00000000 		.4byte	0
 2471 019a 00000000 		.4byte	0
 2472              	.LLST5:
 2473 019e 02000000 		.4byte	.LVL22
 2474 01a2 4A000000 		.4byte	.LVL23
 2475 01a6 0200     		.2byte	0x2
 2476 01a8 34       		.byte	0x34
 2477 01a9 9F       		.byte	0x9f
 2478 01aa 4A000000 		.4byte	.LVL23
 2479 01ae 64000000 		.4byte	.LVL25
 2480 01b2 0100     		.2byte	0x1
 2481 01b4 54       		.byte	0x54
 2482 01b5 64000000 		.4byte	.LVL25
 2483 01b9 66000000 		.4byte	.LVL26
 2484 01bd 0200     		.2byte	0x2
 2485 01bf 34       		.byte	0x34
 2486 01c0 9F       		.byte	0x9f
 2487 01c1 66000000 		.4byte	.LVL26
 2488 01c5 68000000 		.4byte	.LVL27
 2489 01c9 0100     		.2byte	0x1
 2490 01cb 54       		.byte	0x54
 2491 01cc 68000000 		.4byte	.LVL27
 2492 01d0 7C000000 		.4byte	.LFE6
 2493 01d4 0100     		.2byte	0x1
 2494 01d6 50       		.byte	0x50
 2495 01d7 00000000 		.4byte	0
 2496 01db 00000000 		.4byte	0
 2497              	.LLST6:
ARM GAS  C:\Users\Asus\AppData\Local\Temp\ccaf8y9d.s 			page 64


 2498 01df 00000000 		.4byte	.LVL28
 2499 01e3 71000000 		.4byte	.LVL38-1
 2500 01e7 0100     		.2byte	0x1
 2501 01e9 50       		.byte	0x50
 2502 01ea 71000000 		.4byte	.LVL38-1
 2503 01ee 74000000 		.4byte	.LVL39
 2504 01f2 0400     		.2byte	0x4
 2505 01f4 F3       		.byte	0xf3
 2506 01f5 01       		.uleb128 0x1
 2507 01f6 50       		.byte	0x50
 2508 01f7 9F       		.byte	0x9f
 2509 01f8 74000000 		.4byte	.LVL39
 2510 01fc 76000000 		.4byte	.LVL40
 2511 0200 0100     		.2byte	0x1
 2512 0202 50       		.byte	0x50
 2513 0203 76000000 		.4byte	.LVL40
 2514 0207 88000000 		.4byte	.LFE7
 2515 020b 0400     		.2byte	0x4
 2516 020d F3       		.byte	0xf3
 2517 020e 01       		.uleb128 0x1
 2518 020f 50       		.byte	0x50
 2519 0210 9F       		.byte	0x9f
 2520 0211 00000000 		.4byte	0
 2521 0215 00000000 		.4byte	0
 2522              	.LLST7:
 2523 0219 02000000 		.4byte	.LVL29
 2524 021d 50000000 		.4byte	.LVL34
 2525 0221 0200     		.2byte	0x2
 2526 0223 30       		.byte	0x30
 2527 0224 9F       		.byte	0x9f
 2528 0225 50000000 		.4byte	.LVL34
 2529 0229 56000000 		.4byte	.LVL35
 2530 022d 0200     		.2byte	0x2
 2531 022f 31       		.byte	0x31
 2532 0230 9F       		.byte	0x9f
 2533 0231 56000000 		.4byte	.LVL35
 2534 0235 5C000000 		.4byte	.LVL36
 2535 0239 0200     		.2byte	0x2
 2536 023b 30       		.byte	0x30
 2537 023c 9F       		.byte	0x9f
 2538 023d 5C000000 		.4byte	.LVL36
 2539 0241 62000000 		.4byte	.LVL37
 2540 0245 0200     		.2byte	0x2
 2541 0247 31       		.byte	0x31
 2542 0248 9F       		.byte	0x9f
 2543 0249 62000000 		.4byte	.LVL37
 2544 024d 71000000 		.4byte	.LVL38-1
 2545 0251 0100     		.2byte	0x1
 2546 0253 51       		.byte	0x51
 2547 0254 74000000 		.4byte	.LVL39
 2548 0258 76000000 		.4byte	.LVL40
 2549 025c 0200     		.2byte	0x2
 2550 025e 30       		.byte	0x30
 2551 025f 9F       		.byte	0x9f
 2552 0260 00000000 		.4byte	0
 2553 0264 00000000 		.4byte	0
 2554              	.LLST8:
ARM GAS  C:\Users\Asus\AppData\Local\Temp\ccaf8y9d.s 			page 65


 2555 0268 02000000 		.4byte	.LVL29
 2556 026c 28000000 		.4byte	.LVL30
 2557 0270 0200     		.2byte	0x2
 2558 0272 34       		.byte	0x34
 2559 0273 9F       		.byte	0x9f
 2560 0274 28000000 		.4byte	.LVL30
 2561 0278 2E000000 		.4byte	.LVL31
 2562 027c 0200     		.2byte	0x2
 2563 027e 30       		.byte	0x30
 2564 027f 9F       		.byte	0x9f
 2565 0280 2E000000 		.4byte	.LVL31
 2566 0284 3C000000 		.4byte	.LVL32
 2567 0288 0200     		.2byte	0x2
 2568 028a 34       		.byte	0x34
 2569 028b 9F       		.byte	0x9f
 2570 028c 3C000000 		.4byte	.LVL32
 2571 0290 42000000 		.4byte	.LVL33
 2572 0294 0200     		.2byte	0x2
 2573 0296 32       		.byte	0x32
 2574 0297 9F       		.byte	0x9f
 2575 0298 42000000 		.4byte	.LVL33
 2576 029c 50000000 		.4byte	.LVL34
 2577 02a0 0200     		.2byte	0x2
 2578 02a2 34       		.byte	0x34
 2579 02a3 9F       		.byte	0x9f
 2580 02a4 50000000 		.4byte	.LVL34
 2581 02a8 56000000 		.4byte	.LVL35
 2582 02ac 0200     		.2byte	0x2
 2583 02ae 31       		.byte	0x31
 2584 02af 9F       		.byte	0x9f
 2585 02b0 56000000 		.4byte	.LVL35
 2586 02b4 5C000000 		.4byte	.LVL36
 2587 02b8 0200     		.2byte	0x2
 2588 02ba 34       		.byte	0x34
 2589 02bb 9F       		.byte	0x9f
 2590 02bc 5C000000 		.4byte	.LVL36
 2591 02c0 62000000 		.4byte	.LVL37
 2592 02c4 0400     		.2byte	0x4
 2593 02c6 0A       		.byte	0xa
 2594 02c7 0001     		.2byte	0x100
 2595 02c9 9F       		.byte	0x9f
 2596 02ca 62000000 		.4byte	.LVL37
 2597 02ce 74000000 		.4byte	.LVL39
 2598 02d2 0100     		.2byte	0x1
 2599 02d4 54       		.byte	0x54
 2600 02d5 74000000 		.4byte	.LVL39
 2601 02d9 76000000 		.4byte	.LVL40
 2602 02dd 0200     		.2byte	0x2
 2603 02df 34       		.byte	0x34
 2604 02e0 9F       		.byte	0x9f
 2605 02e1 76000000 		.4byte	.LVL40
 2606 02e5 78000000 		.4byte	.LVL41
 2607 02e9 0100     		.2byte	0x1
 2608 02eb 54       		.byte	0x54
 2609 02ec 78000000 		.4byte	.LVL41
 2610 02f0 88000000 		.4byte	.LFE7
 2611 02f4 0100     		.2byte	0x1
ARM GAS  C:\Users\Asus\AppData\Local\Temp\ccaf8y9d.s 			page 66


 2612 02f6 50       		.byte	0x50
 2613 02f7 00000000 		.4byte	0
 2614 02fb 00000000 		.4byte	0
 2615              	.LLST9:
 2616 02ff 00000000 		.4byte	.LVL42
 2617 0303 2C000000 		.4byte	.LVL44
 2618 0307 0100     		.2byte	0x1
 2619 0309 50       		.byte	0x50
 2620 030a 2C000000 		.4byte	.LVL44
 2621 030e 44000000 		.4byte	.LVL45
 2622 0312 0100     		.2byte	0x1
 2623 0314 51       		.byte	0x51
 2624 0315 44000000 		.4byte	.LVL45
 2625 0319 4D000000 		.4byte	.LVL46-1
 2626 031d 0100     		.2byte	0x1
 2627 031f 50       		.byte	0x50
 2628 0320 4D000000 		.4byte	.LVL46-1
 2629 0324 54000000 		.4byte	.LVL47
 2630 0328 0400     		.2byte	0x4
 2631 032a F3       		.byte	0xf3
 2632 032b 01       		.uleb128 0x1
 2633 032c 50       		.byte	0x50
 2634 032d 9F       		.byte	0x9f
 2635 032e 54000000 		.4byte	.LVL47
 2636 0332 56000000 		.4byte	.LVL48
 2637 0336 0100     		.2byte	0x1
 2638 0338 50       		.byte	0x50
 2639 0339 56000000 		.4byte	.LVL48
 2640 033d 58000000 		.4byte	.LVL49
 2641 0341 0100     		.2byte	0x1
 2642 0343 51       		.byte	0x51
 2643 0344 58000000 		.4byte	.LVL49
 2644 0348 74000000 		.4byte	.LFE8
 2645 034c 0400     		.2byte	0x4
 2646 034e F3       		.byte	0xf3
 2647 034f 01       		.uleb128 0x1
 2648 0350 50       		.byte	0x50
 2649 0351 9F       		.byte	0x9f
 2650 0352 00000000 		.4byte	0
 2651 0356 00000000 		.4byte	0
 2652              	.LLST10:
 2653 035a 04000000 		.4byte	.LVL43
 2654 035e 2C000000 		.4byte	.LVL44
 2655 0362 0300     		.2byte	0x3
 2656 0364 09       		.byte	0x9
 2657 0365 FF       		.byte	0xff
 2658 0366 9F       		.byte	0x9f
 2659 0367 2C000000 		.4byte	.LVL44
 2660 036b 44000000 		.4byte	.LVL45
 2661 036f 0100     		.2byte	0x1
 2662 0371 50       		.byte	0x50
 2663 0372 44000000 		.4byte	.LVL45
 2664 0376 58000000 		.4byte	.LVL49
 2665 037a 0300     		.2byte	0x3
 2666 037c 09       		.byte	0x9
 2667 037d FF       		.byte	0xff
 2668 037e 9F       		.byte	0x9f
ARM GAS  C:\Users\Asus\AppData\Local\Temp\ccaf8y9d.s 			page 67


 2669 037f 58000000 		.4byte	.LVL49
 2670 0383 74000000 		.4byte	.LFE8
 2671 0387 0100     		.2byte	0x1
 2672 0389 50       		.byte	0x50
 2673 038a 00000000 		.4byte	0
 2674 038e 00000000 		.4byte	0
 2675              	.LLST11:
 2676 0392 00000000 		.4byte	.LVL53
 2677 0396 10000000 		.4byte	.LVL54
 2678 039a 0200     		.2byte	0x2
 2679 039c 31       		.byte	0x31
 2680 039d 9F       		.byte	0x9f
 2681 039e 10000000 		.4byte	.LVL54
 2682 03a2 20000000 		.4byte	.LFE15
 2683 03a6 0100     		.2byte	0x1
 2684 03a8 53       		.byte	0x53
 2685 03a9 00000000 		.4byte	0
 2686 03ad 00000000 		.4byte	0
 2687              	.LLST12:
 2688 03b1 00000000 		.4byte	.LVL55
 2689 03b5 1A000000 		.4byte	.LVL58
 2690 03b9 0100     		.2byte	0x1
 2691 03bb 50       		.byte	0x50
 2692 03bc 1A000000 		.4byte	.LVL58
 2693 03c0 2A000000 		.4byte	.LVL60
 2694 03c4 0200     		.2byte	0x2
 2695 03c6 91       		.byte	0x91
 2696 03c7 64       		.sleb128 -28
 2697 03c8 2A000000 		.4byte	.LVL60
 2698 03cc 44000000 		.4byte	.LVL65
 2699 03d0 0100     		.2byte	0x1
 2700 03d2 50       		.byte	0x50
 2701 03d3 44000000 		.4byte	.LVL65
 2702 03d7 48000000 		.4byte	.LVL66
 2703 03db 0200     		.2byte	0x2
 2704 03dd 91       		.byte	0x91
 2705 03de 64       		.sleb128 -28
 2706 03df 48000000 		.4byte	.LVL66
 2707 03e3 4A000000 		.4byte	.LVL67
 2708 03e7 0100     		.2byte	0x1
 2709 03e9 50       		.byte	0x50
 2710 03ea 4A000000 		.4byte	.LVL67
 2711 03ee 74000000 		.4byte	.LVL69
 2712 03f2 0200     		.2byte	0x2
 2713 03f4 91       		.byte	0x91
 2714 03f5 64       		.sleb128 -28
 2715 03f6 74000000 		.4byte	.LVL69
 2716 03fa A8000000 		.4byte	.LVL72
 2717 03fe 0100     		.2byte	0x1
 2718 0400 54       		.byte	0x54
 2719 0401 00000000 		.4byte	0
 2720 0405 00000000 		.4byte	0
 2721              	.LLST13:
 2722 0409 00000000 		.4byte	.LVL55
 2723 040d 1D000000 		.4byte	.LVL59-1
 2724 0411 0100     		.2byte	0x1
 2725 0413 51       		.byte	0x51
ARM GAS  C:\Users\Asus\AppData\Local\Temp\ccaf8y9d.s 			page 68


 2726 0414 1D000000 		.4byte	.LVL59-1
 2727 0418 2A000000 		.4byte	.LVL60
 2728 041c 0100     		.2byte	0x1
 2729 041e 54       		.byte	0x54
 2730 041f 2A000000 		.4byte	.LVL60
 2731 0423 38000000 		.4byte	.LVL62
 2732 0427 0100     		.2byte	0x1
 2733 0429 51       		.byte	0x51
 2734 042a 38000000 		.4byte	.LVL62
 2735 042e 40000000 		.4byte	.LVL64
 2736 0432 0100     		.2byte	0x1
 2737 0434 54       		.byte	0x54
 2738 0435 40000000 		.4byte	.LVL64
 2739 0439 44000000 		.4byte	.LVL65
 2740 043d 0100     		.2byte	0x1
 2741 043f 51       		.byte	0x51
 2742 0440 44000000 		.4byte	.LVL65
 2743 0444 48000000 		.4byte	.LVL66
 2744 0448 0100     		.2byte	0x1
 2745 044a 54       		.byte	0x54
 2746 044b 48000000 		.4byte	.LVL66
 2747 044f 4A000000 		.4byte	.LVL67
 2748 0453 0100     		.2byte	0x1
 2749 0455 51       		.byte	0x51
 2750 0456 4A000000 		.4byte	.LVL67
 2751 045a 70000000 		.4byte	.LVL68
 2752 045e 0100     		.2byte	0x1
 2753 0460 54       		.byte	0x54
 2754 0461 70000000 		.4byte	.LVL68
 2755 0465 84000000 		.4byte	.LVL70
 2756 0469 0500     		.2byte	0x5
 2757 046b 03       		.byte	0x3
 2758 046c 00000000 		.4byte	I2C_MPU6050_mstrWrBufPtr
 2759 0470 84000000 		.4byte	.LVL70
 2760 0474 EC000000 		.4byte	.LFE2
 2761 0478 0400     		.2byte	0x4
 2762 047a F3       		.byte	0xf3
 2763 047b 01       		.uleb128 0x1
 2764 047c 51       		.byte	0x51
 2765 047d 9F       		.byte	0x9f
 2766 047e 00000000 		.4byte	0
 2767 0482 00000000 		.4byte	0
 2768              	.LLST14:
 2769 0486 00000000 		.4byte	.LVL55
 2770 048a 1D000000 		.4byte	.LVL59-1
 2771 048e 0100     		.2byte	0x1
 2772 0490 52       		.byte	0x52
 2773 0491 1D000000 		.4byte	.LVL59-1
 2774 0495 2A000000 		.4byte	.LVL60
 2775 0499 0100     		.2byte	0x1
 2776 049b 57       		.byte	0x57
 2777 049c 2A000000 		.4byte	.LVL60
 2778 04a0 34000000 		.4byte	.LVL61
 2779 04a4 0100     		.2byte	0x1
 2780 04a6 52       		.byte	0x52
 2781 04a7 34000000 		.4byte	.LVL61
 2782 04ab 40000000 		.4byte	.LVL64
ARM GAS  C:\Users\Asus\AppData\Local\Temp\ccaf8y9d.s 			page 69


 2783 04af 0100     		.2byte	0x1
 2784 04b1 57       		.byte	0x57
 2785 04b2 40000000 		.4byte	.LVL64
 2786 04b6 44000000 		.4byte	.LVL65
 2787 04ba 0100     		.2byte	0x1
 2788 04bc 52       		.byte	0x52
 2789 04bd 44000000 		.4byte	.LVL65
 2790 04c1 48000000 		.4byte	.LVL66
 2791 04c5 0100     		.2byte	0x1
 2792 04c7 57       		.byte	0x57
 2793 04c8 48000000 		.4byte	.LVL66
 2794 04cc 4A000000 		.4byte	.LVL67
 2795 04d0 0100     		.2byte	0x1
 2796 04d2 52       		.byte	0x52
 2797 04d3 4A000000 		.4byte	.LVL67
 2798 04d7 B2000000 		.4byte	.LVL76
 2799 04db 0100     		.2byte	0x1
 2800 04dd 57       		.byte	0x57
 2801 04de B2000000 		.4byte	.LVL76
 2802 04e2 EC000000 		.4byte	.LFE2
 2803 04e6 0400     		.2byte	0x4
 2804 04e8 F3       		.byte	0xf3
 2805 04e9 01       		.uleb128 0x1
 2806 04ea 52       		.byte	0x52
 2807 04eb 9F       		.byte	0x9f
 2808 04ec 00000000 		.4byte	0
 2809 04f0 00000000 		.4byte	0
 2810              	.LLST15:
 2811 04f4 00000000 		.4byte	.LVL55
 2812 04f8 12000000 		.4byte	.LVL57
 2813 04fc 0100     		.2byte	0x1
 2814 04fe 53       		.byte	0x53
 2815 04ff 12000000 		.4byte	.LVL57
 2816 0503 40000000 		.4byte	.LVL64
 2817 0507 0100     		.2byte	0x1
 2818 0509 55       		.byte	0x55
 2819 050a 40000000 		.4byte	.LVL64
 2820 050e 44000000 		.4byte	.LVL65
 2821 0512 0100     		.2byte	0x1
 2822 0514 53       		.byte	0x53
 2823 0515 44000000 		.4byte	.LVL65
 2824 0519 B2000000 		.4byte	.LVL74
 2825 051d 0100     		.2byte	0x1
 2826 051f 55       		.byte	0x55
 2827 0520 B2000000 		.4byte	.LVL74
 2828 0524 EC000000 		.4byte	.LFE2
 2829 0528 0400     		.2byte	0x4
 2830 052a F3       		.byte	0xf3
 2831 052b 01       		.uleb128 0x1
 2832 052c 53       		.byte	0x53
 2833 052d 9F       		.byte	0x9f
 2834 052e 00000000 		.4byte	0
 2835 0532 00000000 		.4byte	0
 2836              	.LLST16:
 2837 0536 0C000000 		.4byte	.LVL56
 2838 053a 3C000000 		.4byte	.LVL63
 2839 053e 0200     		.2byte	0x2
ARM GAS  C:\Users\Asus\AppData\Local\Temp\ccaf8y9d.s 			page 70


 2840 0540 34       		.byte	0x34
 2841 0541 9F       		.byte	0x9f
 2842 0542 3C000000 		.4byte	.LVL63
 2843 0546 40000000 		.4byte	.LVL64
 2844 054a 0200     		.2byte	0x2
 2845 054c 30       		.byte	0x30
 2846 054d 9F       		.byte	0x9f
 2847 054e 40000000 		.4byte	.LVL64
 2848 0552 4A000000 		.4byte	.LVL67
 2849 0556 0200     		.2byte	0x2
 2850 0558 34       		.byte	0x34
 2851 0559 9F       		.byte	0x9f
 2852 055a 4A000000 		.4byte	.LVL67
 2853 055e B2000000 		.4byte	.LVL75
 2854 0562 0100     		.2byte	0x1
 2855 0564 56       		.byte	0x56
 2856 0565 B2000000 		.4byte	.LVL75
 2857 0569 EC000000 		.4byte	.LFE2
 2858 056d 0100     		.2byte	0x1
 2859 056f 50       		.byte	0x50
 2860 0570 00000000 		.4byte	0
 2861 0574 00000000 		.4byte	0
 2862              	.LLST17:
 2863 0578 00000000 		.4byte	.LVL77
 2864 057c 1A000000 		.4byte	.LVL80
 2865 0580 0100     		.2byte	0x1
 2866 0582 50       		.byte	0x50
 2867 0583 1A000000 		.4byte	.LVL80
 2868 0587 2A000000 		.4byte	.LVL82
 2869 058b 0200     		.2byte	0x2
 2870 058d 91       		.byte	0x91
 2871 058e 64       		.sleb128 -28
 2872 058f 2A000000 		.4byte	.LVL82
 2873 0593 44000000 		.4byte	.LVL87
 2874 0597 0100     		.2byte	0x1
 2875 0599 50       		.byte	0x50
 2876 059a 44000000 		.4byte	.LVL87
 2877 059e 48000000 		.4byte	.LVL88
 2878 05a2 0200     		.2byte	0x2
 2879 05a4 91       		.byte	0x91
 2880 05a5 64       		.sleb128 -28
 2881 05a6 48000000 		.4byte	.LVL88
 2882 05aa 4A000000 		.4byte	.LVL89
 2883 05ae 0100     		.2byte	0x1
 2884 05b0 50       		.byte	0x50
 2885 05b1 4A000000 		.4byte	.LVL89
 2886 05b5 74000000 		.4byte	.LVL91
 2887 05b9 0200     		.2byte	0x2
 2888 05bb 91       		.byte	0x91
 2889 05bc 64       		.sleb128 -28
 2890 05bd 74000000 		.4byte	.LVL91
 2891 05c1 BC000000 		.4byte	.LVL94
 2892 05c5 0100     		.2byte	0x1
 2893 05c7 54       		.byte	0x54
 2894 05c8 00000000 		.4byte	0
 2895 05cc 00000000 		.4byte	0
 2896              	.LLST18:
ARM GAS  C:\Users\Asus\AppData\Local\Temp\ccaf8y9d.s 			page 71


 2897 05d0 00000000 		.4byte	.LVL77
 2898 05d4 1D000000 		.4byte	.LVL81-1
 2899 05d8 0100     		.2byte	0x1
 2900 05da 51       		.byte	0x51
 2901 05db 1D000000 		.4byte	.LVL81-1
 2902 05df 2A000000 		.4byte	.LVL82
 2903 05e3 0100     		.2byte	0x1
 2904 05e5 54       		.byte	0x54
 2905 05e6 2A000000 		.4byte	.LVL82
 2906 05ea 38000000 		.4byte	.LVL84
 2907 05ee 0100     		.2byte	0x1
 2908 05f0 51       		.byte	0x51
 2909 05f1 38000000 		.4byte	.LVL84
 2910 05f5 40000000 		.4byte	.LVL86
 2911 05f9 0100     		.2byte	0x1
 2912 05fb 54       		.byte	0x54
 2913 05fc 40000000 		.4byte	.LVL86
 2914 0600 44000000 		.4byte	.LVL87
 2915 0604 0100     		.2byte	0x1
 2916 0606 51       		.byte	0x51
 2917 0607 44000000 		.4byte	.LVL87
 2918 060b 48000000 		.4byte	.LVL88
 2919 060f 0100     		.2byte	0x1
 2920 0611 54       		.byte	0x54
 2921 0612 48000000 		.4byte	.LVL88
 2922 0616 4A000000 		.4byte	.LVL89
 2923 061a 0100     		.2byte	0x1
 2924 061c 51       		.byte	0x51
 2925 061d 4A000000 		.4byte	.LVL89
 2926 0621 6C000000 		.4byte	.LVL90
 2927 0625 0100     		.2byte	0x1
 2928 0627 54       		.byte	0x54
 2929 0628 6C000000 		.4byte	.LVL90
 2930 062c 82000000 		.4byte	.LVL92
 2931 0630 0500     		.2byte	0x5
 2932 0632 03       		.byte	0x3
 2933 0633 00000000 		.4byte	I2C_MPU6050_mstrRdBufPtr
 2934 0637 82000000 		.4byte	.LVL92
 2935 063b FC000000 		.4byte	.LFE3
 2936 063f 0400     		.2byte	0x4
 2937 0641 F3       		.byte	0xf3
 2938 0642 01       		.uleb128 0x1
 2939 0643 51       		.byte	0x51
 2940 0644 9F       		.byte	0x9f
 2941 0645 00000000 		.4byte	0
 2942 0649 00000000 		.4byte	0
 2943              	.LLST19:
 2944 064d 00000000 		.4byte	.LVL77
 2945 0651 1D000000 		.4byte	.LVL81-1
 2946 0655 0100     		.2byte	0x1
 2947 0657 52       		.byte	0x52
 2948 0658 1D000000 		.4byte	.LVL81-1
 2949 065c 2A000000 		.4byte	.LVL82
 2950 0660 0100     		.2byte	0x1
 2951 0662 57       		.byte	0x57
 2952 0663 2A000000 		.4byte	.LVL82
 2953 0667 34000000 		.4byte	.LVL83
ARM GAS  C:\Users\Asus\AppData\Local\Temp\ccaf8y9d.s 			page 72


 2954 066b 0100     		.2byte	0x1
 2955 066d 52       		.byte	0x52
 2956 066e 34000000 		.4byte	.LVL83
 2957 0672 40000000 		.4byte	.LVL86
 2958 0676 0100     		.2byte	0x1
 2959 0678 57       		.byte	0x57
 2960 0679 40000000 		.4byte	.LVL86
 2961 067d 44000000 		.4byte	.LVL87
 2962 0681 0100     		.2byte	0x1
 2963 0683 52       		.byte	0x52
 2964 0684 44000000 		.4byte	.LVL87
 2965 0688 48000000 		.4byte	.LVL88
 2966 068c 0100     		.2byte	0x1
 2967 068e 57       		.byte	0x57
 2968 068f 48000000 		.4byte	.LVL88
 2969 0693 4A000000 		.4byte	.LVL89
 2970 0697 0100     		.2byte	0x1
 2971 0699 52       		.byte	0x52
 2972 069a 4A000000 		.4byte	.LVL89
 2973 069e C6000000 		.4byte	.LVL98
 2974 06a2 0100     		.2byte	0x1
 2975 06a4 57       		.byte	0x57
 2976 06a5 C6000000 		.4byte	.LVL98
 2977 06a9 FC000000 		.4byte	.LFE3
 2978 06ad 0400     		.2byte	0x4
 2979 06af F3       		.byte	0xf3
 2980 06b0 01       		.uleb128 0x1
 2981 06b1 52       		.byte	0x52
 2982 06b2 9F       		.byte	0x9f
 2983 06b3 00000000 		.4byte	0
 2984 06b7 00000000 		.4byte	0
 2985              	.LLST20:
 2986 06bb 00000000 		.4byte	.LVL77
 2987 06bf 12000000 		.4byte	.LVL79
 2988 06c3 0100     		.2byte	0x1
 2989 06c5 53       		.byte	0x53
 2990 06c6 12000000 		.4byte	.LVL79
 2991 06ca 40000000 		.4byte	.LVL86
 2992 06ce 0100     		.2byte	0x1
 2993 06d0 55       		.byte	0x55
 2994 06d1 40000000 		.4byte	.LVL86
 2995 06d5 44000000 		.4byte	.LVL87
 2996 06d9 0100     		.2byte	0x1
 2997 06db 53       		.byte	0x53
 2998 06dc 44000000 		.4byte	.LVL87
 2999 06e0 C6000000 		.4byte	.LVL96
 3000 06e4 0100     		.2byte	0x1
 3001 06e6 55       		.byte	0x55
 3002 06e7 C6000000 		.4byte	.LVL96
 3003 06eb FC000000 		.4byte	.LFE3
 3004 06ef 0400     		.2byte	0x4
 3005 06f1 F3       		.byte	0xf3
 3006 06f2 01       		.uleb128 0x1
 3007 06f3 53       		.byte	0x53
 3008 06f4 9F       		.byte	0x9f
 3009 06f5 00000000 		.4byte	0
 3010 06f9 00000000 		.4byte	0
ARM GAS  C:\Users\Asus\AppData\Local\Temp\ccaf8y9d.s 			page 73


 3011              	.LLST21:
 3012 06fd 0C000000 		.4byte	.LVL78
 3013 0701 3C000000 		.4byte	.LVL85
 3014 0705 0200     		.2byte	0x2
 3015 0707 34       		.byte	0x34
 3016 0708 9F       		.byte	0x9f
 3017 0709 3C000000 		.4byte	.LVL85
 3018 070d 40000000 		.4byte	.LVL86
 3019 0711 0200     		.2byte	0x2
 3020 0713 30       		.byte	0x30
 3021 0714 9F       		.byte	0x9f
 3022 0715 40000000 		.4byte	.LVL86
 3023 0719 4A000000 		.4byte	.LVL89
 3024 071d 0200     		.2byte	0x2
 3025 071f 34       		.byte	0x34
 3026 0720 9F       		.byte	0x9f
 3027 0721 4A000000 		.4byte	.LVL89
 3028 0725 C6000000 		.4byte	.LVL97
 3029 0729 0100     		.2byte	0x1
 3030 072b 56       		.byte	0x56
 3031 072c C6000000 		.4byte	.LVL97
 3032 0730 FC000000 		.4byte	.LFE3
 3033 0734 0100     		.2byte	0x1
 3034 0736 50       		.byte	0x50
 3035 0737 00000000 		.4byte	0
 3036 073b 00000000 		.4byte	0
 3037              	.LLST22:
 3038 073f 00000000 		.4byte	.LVL99
 3039 0743 0C000000 		.4byte	.LVL101
 3040 0747 0100     		.2byte	0x1
 3041 0749 50       		.byte	0x50
 3042 074a 0C000000 		.4byte	.LVL101
 3043 074e 10000000 		.4byte	.LVL102
 3044 0752 0400     		.2byte	0x4
 3045 0754 F3       		.byte	0xf3
 3046 0755 01       		.uleb128 0x1
 3047 0756 50       		.byte	0x50
 3048 0757 9F       		.byte	0x9f
 3049 0758 10000000 		.4byte	.LVL102
 3050 075c 68000000 		.4byte	.LVL106
 3051 0760 0100     		.2byte	0x1
 3052 0762 54       		.byte	0x54
 3053 0763 6C000000 		.4byte	.LVL107
 3054 0767 74000000 		.4byte	.LVL109
 3055 076b 0100     		.2byte	0x1
 3056 076d 54       		.byte	0x54
 3057 076e 7A000000 		.4byte	.LVL110
 3058 0772 7C000000 		.4byte	.LVL111
 3059 0776 0100     		.2byte	0x1
 3060 0778 54       		.byte	0x54
 3061 0779 7C000000 		.4byte	.LVL111
 3062 077d 80000000 		.4byte	.LVL112
 3063 0781 0500     		.2byte	0x5
 3064 0783 0C       		.byte	0xc
 3065 0784 40022540 		.4byte	0x40250240
 3066 0788 80000000 		.4byte	.LVL112
 3067 078c 82000000 		.4byte	.LVL113
ARM GAS  C:\Users\Asus\AppData\Local\Temp\ccaf8y9d.s 			page 74


 3068 0790 0100     		.2byte	0x1
 3069 0792 54       		.byte	0x54
 3070 0793 82000000 		.4byte	.LVL113
 3071 0797 84000000 		.4byte	.LVL114
 3072 079b 0500     		.2byte	0x5
 3073 079d 0C       		.byte	0xc
 3074 079e 40022540 		.4byte	0x40250240
 3075 07a2 96000000 		.4byte	.LVL116
 3076 07a6 98000000 		.4byte	.LVL117
 3077 07aa 0100     		.2byte	0x1
 3078 07ac 50       		.byte	0x50
 3079 07ad 00000000 		.4byte	0
 3080 07b1 00000000 		.4byte	0
 3081              	.LLST23:
 3082 07b5 00000000 		.4byte	.LVL99
 3083 07b9 2F000000 		.4byte	.LVL104-1
 3084 07bd 0100     		.2byte	0x1
 3085 07bf 51       		.byte	0x51
 3086 07c0 2F000000 		.4byte	.LVL104-1
 3087 07c4 96000000 		.4byte	.LVL116
 3088 07c8 0400     		.2byte	0x4
 3089 07ca F3       		.byte	0xf3
 3090 07cb 01       		.uleb128 0x1
 3091 07cc 51       		.byte	0x51
 3092 07cd 9F       		.byte	0x9f
 3093 07ce 96000000 		.4byte	.LVL116
 3094 07d2 98000000 		.4byte	.LVL117
 3095 07d6 0100     		.2byte	0x1
 3096 07d8 51       		.byte	0x51
 3097 07d9 98000000 		.4byte	.LVL117
 3098 07dd B0000000 		.4byte	.LFE5
 3099 07e1 0400     		.2byte	0x4
 3100 07e3 F3       		.byte	0xf3
 3101 07e4 01       		.uleb128 0x1
 3102 07e5 51       		.byte	0x51
 3103 07e6 9F       		.byte	0x9f
 3104 07e7 00000000 		.4byte	0
 3105 07eb 00000000 		.4byte	0
 3106              	.LLST24:
 3107 07ef 02000000 		.4byte	.LVL100
 3108 07f3 66000000 		.4byte	.LVL105
 3109 07f7 0200     		.2byte	0x2
 3110 07f9 30       		.byte	0x30
 3111 07fa 9F       		.byte	0x9f
 3112 07fb 66000000 		.4byte	.LVL105
 3113 07ff 6C000000 		.4byte	.LVL107
 3114 0803 0200     		.2byte	0x2
 3115 0805 31       		.byte	0x31
 3116 0806 9F       		.byte	0x9f
 3117 0807 6C000000 		.4byte	.LVL107
 3118 080b 72000000 		.4byte	.LVL108
 3119 080f 0200     		.2byte	0x2
 3120 0811 30       		.byte	0x30
 3121 0812 9F       		.byte	0x9f
 3122 0813 72000000 		.4byte	.LVL108
 3123 0817 7A000000 		.4byte	.LVL110
 3124 081b 0200     		.2byte	0x2
ARM GAS  C:\Users\Asus\AppData\Local\Temp\ccaf8y9d.s 			page 75


 3125 081d 31       		.byte	0x31
 3126 081e 9F       		.byte	0x9f
 3127 081f 7A000000 		.4byte	.LVL110
 3128 0823 84000000 		.4byte	.LVL114
 3129 0827 0200     		.2byte	0x2
 3130 0829 30       		.byte	0x30
 3131 082a 9F       		.byte	0x9f
 3132 082b 84000000 		.4byte	.LVL114
 3133 082f 93000000 		.4byte	.LVL115-1
 3134 0833 0100     		.2byte	0x1
 3135 0835 51       		.byte	0x51
 3136 0836 96000000 		.4byte	.LVL116
 3137 083a 98000000 		.4byte	.LVL117
 3138 083e 0200     		.2byte	0x2
 3139 0840 30       		.byte	0x30
 3140 0841 9F       		.byte	0x9f
 3141 0842 00000000 		.4byte	0
 3142 0846 00000000 		.4byte	0
 3143              	.LLST25:
 3144 084a 02000000 		.4byte	.LVL100
 3145 084e 66000000 		.4byte	.LVL105
 3146 0852 0200     		.2byte	0x2
 3147 0854 34       		.byte	0x34
 3148 0855 9F       		.byte	0x9f
 3149 0856 66000000 		.4byte	.LVL105
 3150 085a 6C000000 		.4byte	.LVL107
 3151 085e 0200     		.2byte	0x2
 3152 0860 31       		.byte	0x31
 3153 0861 9F       		.byte	0x9f
 3154 0862 6C000000 		.4byte	.LVL107
 3155 0866 72000000 		.4byte	.LVL108
 3156 086a 0200     		.2byte	0x2
 3157 086c 34       		.byte	0x34
 3158 086d 9F       		.byte	0x9f
 3159 086e 72000000 		.4byte	.LVL108
 3160 0872 7A000000 		.4byte	.LVL110
 3161 0876 0400     		.2byte	0x4
 3162 0878 0A       		.byte	0xa
 3163 0879 0001     		.2byte	0x100
 3164 087b 9F       		.byte	0x9f
 3165 087c 7A000000 		.4byte	.LVL110
 3166 0880 84000000 		.4byte	.LVL114
 3167 0884 0200     		.2byte	0x2
 3168 0886 34       		.byte	0x34
 3169 0887 9F       		.byte	0x9f
 3170 0888 84000000 		.4byte	.LVL114
 3171 088c 96000000 		.4byte	.LVL116
 3172 0890 0100     		.2byte	0x1
 3173 0892 54       		.byte	0x54
 3174 0893 96000000 		.4byte	.LVL116
 3175 0897 98000000 		.4byte	.LVL117
 3176 089b 0200     		.2byte	0x2
 3177 089d 34       		.byte	0x34
 3178 089e 9F       		.byte	0x9f
 3179 089f 98000000 		.4byte	.LVL117
 3180 08a3 9A000000 		.4byte	.LVL118
 3181 08a7 0100     		.2byte	0x1
ARM GAS  C:\Users\Asus\AppData\Local\Temp\ccaf8y9d.s 			page 76


 3182 08a9 54       		.byte	0x54
 3183 08aa 9A000000 		.4byte	.LVL118
 3184 08ae B0000000 		.4byte	.LFE5
 3185 08b2 0100     		.2byte	0x1
 3186 08b4 50       		.byte	0x50
 3187 08b5 00000000 		.4byte	0
 3188 08b9 00000000 		.4byte	0
 3189              		.section	.debug_aranges,"",%progbits
 3190 0000 84000000 		.4byte	0x84
 3191 0004 0200     		.2byte	0x2
 3192 0006 00000000 		.4byte	.Ldebug_info0
 3193 000a 04       		.byte	0x4
 3194 000b 00       		.byte	0
 3195 000c 0000     		.2byte	0
 3196 000e 0000     		.2byte	0
 3197 0010 00000000 		.4byte	.LFB4
 3198 0014 C4000000 		.4byte	.LFE4-.LFB4
 3199 0018 00000000 		.4byte	.LFB6
 3200 001c 7C000000 		.4byte	.LFE6-.LFB6
 3201 0020 00000000 		.4byte	.LFB7
 3202 0024 88000000 		.4byte	.LFE7-.LFB7
 3203 0028 00000000 		.4byte	.LFB8
 3204 002c 74000000 		.4byte	.LFE8-.LFB8
 3205 0030 00000000 		.4byte	.LFB9
 3206 0034 0C000000 		.4byte	.LFE9-.LFB9
 3207 0038 00000000 		.4byte	.LFB10
 3208 003c 0C000000 		.4byte	.LFE10-.LFB10
 3209 0040 00000000 		.4byte	.LFB11
 3210 0044 1C000000 		.4byte	.LFE11-.LFB11
 3211 0048 00000000 		.4byte	.LFB12
 3212 004c 1C000000 		.4byte	.LFE12-.LFB12
 3213 0050 00000000 		.4byte	.LFB13
 3214 0054 20000000 		.4byte	.LFE13-.LFB13
 3215 0058 00000000 		.4byte	.LFB14
 3216 005c 10000000 		.4byte	.LFE14-.LFB14
 3217 0060 00000000 		.4byte	.LFB15
 3218 0064 20000000 		.4byte	.LFE15-.LFB15
 3219 0068 00000000 		.4byte	.LFB2
 3220 006c EC000000 		.4byte	.LFE2-.LFB2
 3221 0070 00000000 		.4byte	.LFB3
 3222 0074 FC000000 		.4byte	.LFE3-.LFB3
 3223 0078 00000000 		.4byte	.LFB5
 3224 007c B0000000 		.4byte	.LFE5-.LFB5
 3225 0080 00000000 		.4byte	0
 3226 0084 00000000 		.4byte	0
 3227              		.section	.debug_ranges,"",%progbits
 3228              	.Ldebug_ranges0:
 3229 0000 00000000 		.4byte	.LFB4
 3230 0004 C4000000 		.4byte	.LFE4
 3231 0008 00000000 		.4byte	.LFB6
 3232 000c 7C000000 		.4byte	.LFE6
 3233 0010 00000000 		.4byte	.LFB7
 3234 0014 88000000 		.4byte	.LFE7
 3235 0018 00000000 		.4byte	.LFB8
 3236 001c 74000000 		.4byte	.LFE8
 3237 0020 00000000 		.4byte	.LFB9
 3238 0024 0C000000 		.4byte	.LFE9
ARM GAS  C:\Users\Asus\AppData\Local\Temp\ccaf8y9d.s 			page 77


 3239 0028 00000000 		.4byte	.LFB10
 3240 002c 0C000000 		.4byte	.LFE10
 3241 0030 00000000 		.4byte	.LFB11
 3242 0034 1C000000 		.4byte	.LFE11
 3243 0038 00000000 		.4byte	.LFB12
 3244 003c 1C000000 		.4byte	.LFE12
 3245 0040 00000000 		.4byte	.LFB13
 3246 0044 20000000 		.4byte	.LFE13
 3247 0048 00000000 		.4byte	.LFB14
 3248 004c 10000000 		.4byte	.LFE14
 3249 0050 00000000 		.4byte	.LFB15
 3250 0054 20000000 		.4byte	.LFE15
 3251 0058 00000000 		.4byte	.LFB2
 3252 005c EC000000 		.4byte	.LFE2
 3253 0060 00000000 		.4byte	.LFB3
 3254 0064 FC000000 		.4byte	.LFE3
 3255 0068 00000000 		.4byte	.LFB5
 3256 006c B0000000 		.4byte	.LFE5
 3257 0070 00000000 		.4byte	0
 3258 0074 00000000 		.4byte	0
 3259              		.section	.debug_line,"",%progbits
 3260              	.Ldebug_line0:
 3261 0000 A5020000 		.section	.debug_str,"MS",%progbits,1
 3261      02007700 
 3261      00000201 
 3261      FB0E0D00 
 3261      01010101 
 3262              	.LASF15:
 3263 0000 72656733 		.ascii	"reg32\000"
 3263      3200
 3264              	.LASF24:
 3265 0006 4932435F 		.ascii	"I2C_MPU6050_I2CMasterWriteByte\000"
 3265      4D505536 
 3265      3035305F 
 3265      4932434D 
 3265      61737465 
 3266              	.LASF32:
 3267 0025 4932435F 		.ascii	"I2C_MPU6050_I2CMasterStatus\000"
 3267      4D505536 
 3267      3035305F 
 3267      4932434D 
 3267      61737465 
 3268              	.LASF49:
 3269 0041 4932435F 		.ascii	"I2C_MPU6050_mstrWrBufIndex\000"
 3269      4D505536 
 3269      3035305F 
 3269      6D737472 
 3269      57724275 
 3270              	.LASF23:
 3271 005c 4932435F 		.ascii	"I2C_MPU6050_I2CMasterSendStop\000"
 3271      4D505536 
 3271      3035305F 
 3271      4932434D 
 3271      61737465 
 3272              	.LASF52:
 3273 007a 4932435F 		.ascii	"I2C_MPU6050_I2CFwBlockReset\000"
 3273      4D505536 
ARM GAS  C:\Users\Asus\AppData\Local\Temp\ccaf8y9d.s 			page 78


 3273      3035305F 
 3273      49324346 
 3273      77426C6F 
 3274              	.LASF30:
 3275 0096 4932435F 		.ascii	"I2C_MPU6050_I2CMasterClearReadBuf\000"
 3275      4D505536 
 3275      3035305F 
 3275      4932434D 
 3275      61737465 
 3276              	.LASF45:
 3277 00b8 4932435F 		.ascii	"I2C_MPU6050_mstrRdBufSize\000"
 3277      4D505536 
 3277      3035305F 
 3277      6D737472 
 3277      52644275 
 3278              	.LASF42:
 3279 00d2 4932435F 		.ascii	"I2C_MPU6050_mstrStatus\000"
 3279      4D505536 
 3279      3035305F 
 3279      6D737472 
 3279      53746174 
 3280              	.LASF3:
 3281 00e9 73686F72 		.ascii	"short unsigned int\000"
 3281      7420756E 
 3281      7369676E 
 3281      65642069 
 3281      6E7400
 3282              	.LASF28:
 3283 00fc 4932435F 		.ascii	"I2C_MPU6050_I2CMasterGetReadBufSize\000"
 3283      4D505536 
 3283      3035305F 
 3283      4932434D 
 3283      61737465 
 3284              	.LASF34:
 3285 0120 4932435F 		.ascii	"I2C_MPU6050_I2CMasterClearStatus\000"
 3285      4D505536 
 3285      3035305F 
 3285      4932434D 
 3285      61737465 
 3286              	.LASF13:
 3287 0141 646F7562 		.ascii	"double\000"
 3287      6C6500
 3288              	.LASF33:
 3289 0148 73746174 		.ascii	"status\000"
 3289      757300
 3290              	.LASF20:
 3291 014f 72657365 		.ascii	"resetIp\000"
 3291      74497000 
 3292              	.LASF47:
 3293 0157 4932435F 		.ascii	"I2C_MPU6050_mstrWrBufPtr\000"
 3293      4D505536 
 3293      3035305F 
 3293      6D737472 
 3293      57724275 
 3294              	.LASF29:
 3295 0170 4932435F 		.ascii	"I2C_MPU6050_I2CMasterGetWriteBufSize\000"
 3295      4D505536 
ARM GAS  C:\Users\Asus\AppData\Local\Temp\ccaf8y9d.s 			page 79


 3295      3035305F 
 3295      4932434D 
 3295      61737465 
 3296              	.LASF12:
 3297 0195 666C6F61 		.ascii	"float\000"
 3297      7400
 3298              	.LASF22:
 3299 019b 4932435F 		.ascii	"I2C_MPU6050_I2CMasterSendStart\000"
 3299      4D505536 
 3299      3035305F 
 3299      4932434D 
 3299      61737465 
 3300              	.LASF57:
 3301 01ba 4932435F 		.ascii	"I2C_MPU6050_I2CReStartGeneration\000"
 3301      4D505536 
 3301      3035305F 
 3301      49324352 
 3301      65537461 
 3302              	.LASF46:
 3303 01db 4932435F 		.ascii	"I2C_MPU6050_mstrRdBufIndex\000"
 3303      4D505536 
 3303      3035305F 
 3303      6D737472 
 3303      52644275 
 3304              	.LASF5:
 3305 01f6 6C6F6E67 		.ascii	"long unsigned int\000"
 3305      20756E73 
 3305      69676E65 
 3305      6420696E 
 3305      7400
 3306              	.LASF9:
 3307 0208 75696E74 		.ascii	"uint8\000"
 3307      3800
 3308              	.LASF48:
 3309 020e 4932435F 		.ascii	"I2C_MPU6050_mstrWrBufSize\000"
 3309      4D505536 
 3309      3035305F 
 3309      6D737472 
 3309      57724275 
 3310              	.LASF27:
 3311 0228 61636B4E 		.ascii	"ackNack\000"
 3311      61636B00 
 3312              	.LASF21:
 3313 0230 65727253 		.ascii	"errStatus\000"
 3313      74617475 
 3313      7300
 3314              	.LASF1:
 3315 023a 756E7369 		.ascii	"unsigned char\000"
 3315      676E6564 
 3315      20636861 
 3315      7200
 3316              	.LASF31:
 3317 0248 4932435F 		.ascii	"I2C_MPU6050_I2CMasterClearWriteBuf\000"
 3317      4D505536 
 3317      3035305F 
 3317      4932434D 
 3317      61737465 
ARM GAS  C:\Users\Asus\AppData\Local\Temp\ccaf8y9d.s 			page 80


 3318              	.LASF19:
 3319 026b 62697452 		.ascii	"bitRnW\000"
 3319      6E5700
 3320              	.LASF53:
 3321 0272 4379496E 		.ascii	"CyIntEnable\000"
 3321      74456E61 
 3321      626C6500 
 3322              	.LASF10:
 3323 027e 75696E74 		.ascii	"uint16\000"
 3323      313600
 3324              	.LASF39:
 3325 0285 72644461 		.ascii	"rdData\000"
 3325      746100
 3326              	.LASF11:
 3327 028c 75696E74 		.ascii	"uint32\000"
 3327      333200
 3328              	.LASF8:
 3329 0293 756E7369 		.ascii	"unsigned int\000"
 3329      676E6564 
 3329      20696E74 
 3329      00
 3330              	.LASF38:
 3331 02a0 4932435F 		.ascii	"I2C_MPU6050_I2CMasterReadBuf\000"
 3331      4D505536 
 3331      3035305F 
 3331      4932434D 
 3331      61737465 
 3332              	.LASF36:
 3333 02bd 77724461 		.ascii	"wrData\000"
 3333      746100
 3334              	.LASF7:
 3335 02c4 6C6F6E67 		.ascii	"long long unsigned int\000"
 3335      206C6F6E 
 3335      6720756E 
 3335      7369676E 
 3335      65642069 
 3336              	.LASF40:
 3337 02db 4932435F 		.ascii	"I2C_MPU6050_I2CMasterSendRestart\000"
 3337      4D505536 
 3337      3035305F 
 3337      4932434D 
 3337      61737465 
 3338              	.LASF35:
 3339 02fc 4932435F 		.ascii	"I2C_MPU6050_I2CMasterWriteBuf\000"
 3339      4D505536 
 3339      3035305F 
 3339      4932434D 
 3339      61737465 
 3340              	.LASF18:
 3341 031a 736C6176 		.ascii	"slaveAddress\000"
 3341      65416464 
 3341      72657373 
 3341      00
 3342              	.LASF54:
 3343 0327 474E5520 		.ascii	"GNU C11 5.4.1 20160609 (release) [ARM/embedded-5-br"
 3343      43313120 
 3343      352E342E 
ARM GAS  C:\Users\Asus\AppData\Local\Temp\ccaf8y9d.s 			page 81


 3343      31203230 
 3343      31363036 
 3344 035a 616E6368 		.ascii	"anch revision 237715] -mcpu=cortex-m0 -mthumb -g -O"
 3344      20726576 
 3344      6973696F 
 3344      6E203233 
 3344      37373135 
 3345 038d 67202D66 		.ascii	"g -ffunction-sections -ffat-lto-objects\000"
 3345      66756E63 
 3345      74696F6E 
 3345      2D736563 
 3345      74696F6E 
 3346              	.LASF17:
 3347 03b5 73697A65 		.ascii	"sizetype\000"
 3347      74797065 
 3347      00
 3348              	.LASF44:
 3349 03be 4932435F 		.ascii	"I2C_MPU6050_mstrRdBufPtr\000"
 3349      4D505536 
 3349      3035305F 
 3349      6D737472 
 3349      52644275 
 3350              	.LASF6:
 3351 03d7 6C6F6E67 		.ascii	"long long int\000"
 3351      206C6F6E 
 3351      6720696E 
 3351      7400
 3352              	.LASF41:
 3353 03e5 4932435F 		.ascii	"I2C_MPU6050_state\000"
 3353      4D505536 
 3353      3035305F 
 3353      73746174 
 3353      6500
 3354              	.LASF14:
 3355 03f7 63686172 		.ascii	"char\000"
 3355      00
 3356              	.LASF43:
 3357 03fc 4932435F 		.ascii	"I2C_MPU6050_mstrControl\000"
 3357      4D505536 
 3357      3035305F 
 3357      6D737472 
 3357      436F6E74 
 3358              	.LASF51:
 3359 0414 4379496E 		.ascii	"CyIntDisable\000"
 3359      74446973 
 3359      61626C65 
 3359      00
 3360              	.LASF55:
 3361 0421 47656E65 		.ascii	"Generated_Source\\PSoC4\\I2C_MPU6050_I2C_MASTER.c\000"
 3361      72617465 
 3361      645F536F 
 3361      75726365 
 3361      5C50536F 
 3362              	.LASF2:
 3363 0451 73686F72 		.ascii	"short int\000"
 3363      7420696E 
 3363      7400
ARM GAS  C:\Users\Asus\AppData\Local\Temp\ccaf8y9d.s 			page 82


 3364              	.LASF25:
 3365 045b 74686542 		.ascii	"theByte\000"
 3365      79746500 
 3366              	.LASF56:
 3367 0463 443A5C55 		.ascii	"D:\\UCU\\POC\\cycling_glove\\Read_gyroscope1.1.cyds"
 3367      43555C50 
 3367      4F435C63 
 3367      79636C69 
 3367      6E675F67 
 3368 0492 6E00     		.ascii	"n\000"
 3369              	.LASF26:
 3370 0494 4932435F 		.ascii	"I2C_MPU6050_I2CMasterReadByte\000"
 3370      4D505536 
 3370      3035305F 
 3370      4932434D 
 3370      61737465 
 3371              	.LASF37:
 3372 04b2 6D6F6465 		.ascii	"mode\000"
 3372      00
 3373              	.LASF4:
 3374 04b7 6C6F6E67 		.ascii	"long int\000"
 3374      20696E74 
 3374      00
 3375              	.LASF16:
 3376 04c0 6C6F6E67 		.ascii	"long double\000"
 3376      20646F75 
 3376      626C6500 
 3377              	.LASF0:
 3378 04cc 7369676E 		.ascii	"signed char\000"
 3378      65642063 
 3378      68617200 
 3379              	.LASF50:
 3380 04d8 4932435F 		.ascii	"I2C_MPU6050_mstrWrBufIndexTmp\000"
 3380      4D505536 
 3380      3035305F 
 3380      6D737472 
 3380      57724275 
 3381              		.ident	"GCC: (GNU Tools for ARM Embedded Processors) 5.4.1 20160609 (release) [ARM/embedded-5-bran
