ARM GAS  C:\Users\Asus\AppData\Local\Temp\ccaf8y9d.s 			page 1


   1              		.syntax unified
   2              		.cpu cortex-m0
   3              		.fpu softvfp
   4              		.eabi_attribute 20, 1
   5              		.eabi_attribute 21, 1
   6              		.eabi_attribute 23, 3
   7              		.eabi_attribute 24, 1
   8              		.eabi_attribute 25, 1
   9              		.eabi_attribute 26, 1
  10              		.eabi_attribute 30, 1
  11              		.eabi_attribute 34, 0
  12              		.eabi_attribute 18, 4
  13              		.thumb
  14              		.syntax unified
  15              		.file	"I2C_MPU6050_I2C_MASTER.c"
  16              		.text
  17              	.Ltext0:
  18              		.cfi_sections	.debug_frame
  19              		.section	.text.I2C_MPU6050_I2CMasterSendStart,"ax",%progbits
  20              		.align	2
  21              		.global	I2C_MPU6050_I2CMasterSendStart
  22              		.code	16
  23              		.thumb_func
  24              		.type	I2C_MPU6050_I2CMasterSendStart, %function
  25              	I2C_MPU6050_I2CMasterSendStart:
  26              	.LFB4:
  27              		.file 1 "Generated_Source\\PSoC4\\I2C_MPU6050_I2C_MASTER.c"
   1:Generated_Source\PSoC4/I2C_MPU6050_I2C_MASTER.c **** /*******************************************************************************
   2:Generated_Source\PSoC4/I2C_MPU6050_I2C_MASTER.c **** * File Name: I2C_MPU6050_I2C_MASTER.c
   3:Generated_Source\PSoC4/I2C_MPU6050_I2C_MASTER.c **** * Version 1.20
   4:Generated_Source\PSoC4/I2C_MPU6050_I2C_MASTER.c **** *
   5:Generated_Source\PSoC4/I2C_MPU6050_I2C_MASTER.c **** * Description:
   6:Generated_Source\PSoC4/I2C_MPU6050_I2C_MASTER.c **** *  This file provides the source code to the API for the SCB Component in
   7:Generated_Source\PSoC4/I2C_MPU6050_I2C_MASTER.c **** *  I2C Master mode.
   8:Generated_Source\PSoC4/I2C_MPU6050_I2C_MASTER.c **** *
   9:Generated_Source\PSoC4/I2C_MPU6050_I2C_MASTER.c **** * Note:
  10:Generated_Source\PSoC4/I2C_MPU6050_I2C_MASTER.c **** *
  11:Generated_Source\PSoC4/I2C_MPU6050_I2C_MASTER.c **** *******************************************************************************
  12:Generated_Source\PSoC4/I2C_MPU6050_I2C_MASTER.c **** * Copyright 2013-2014, Cypress Semiconductor Corporation.  All rights reserved.
  13:Generated_Source\PSoC4/I2C_MPU6050_I2C_MASTER.c **** * You may use this file only in accordance with the license, terms, conditions,
  14:Generated_Source\PSoC4/I2C_MPU6050_I2C_MASTER.c **** * disclaimers, and limitations in the end user license agreement accompanying
  15:Generated_Source\PSoC4/I2C_MPU6050_I2C_MASTER.c **** * the software package with which this file was provided.
  16:Generated_Source\PSoC4/I2C_MPU6050_I2C_MASTER.c **** *******************************************************************************/
  17:Generated_Source\PSoC4/I2C_MPU6050_I2C_MASTER.c **** 
  18:Generated_Source\PSoC4/I2C_MPU6050_I2C_MASTER.c **** #include "I2C_MPU6050_PVT.h"
  19:Generated_Source\PSoC4/I2C_MPU6050_I2C_MASTER.c **** #include "I2C_MPU6050_I2C_PVT.h"
  20:Generated_Source\PSoC4/I2C_MPU6050_I2C_MASTER.c **** 
  21:Generated_Source\PSoC4/I2C_MPU6050_I2C_MASTER.c **** #if(I2C_MPU6050_I2C_MASTER_CONST)
  22:Generated_Source\PSoC4/I2C_MPU6050_I2C_MASTER.c **** 
  23:Generated_Source\PSoC4/I2C_MPU6050_I2C_MASTER.c **** /***************************************
  24:Generated_Source\PSoC4/I2C_MPU6050_I2C_MASTER.c **** *      I2C Master Private Vars
  25:Generated_Source\PSoC4/I2C_MPU6050_I2C_MASTER.c **** ***************************************/
  26:Generated_Source\PSoC4/I2C_MPU6050_I2C_MASTER.c **** 
  27:Generated_Source\PSoC4/I2C_MPU6050_I2C_MASTER.c **** /* Master variables */
  28:Generated_Source\PSoC4/I2C_MPU6050_I2C_MASTER.c **** volatile uint16 I2C_MPU6050_mstrStatus;      /* Master Status byte  */
  29:Generated_Source\PSoC4/I2C_MPU6050_I2C_MASTER.c **** volatile uint8  I2C_MPU6050_mstrControl;     /* Master Control byte */
  30:Generated_Source\PSoC4/I2C_MPU6050_I2C_MASTER.c **** 
ARM GAS  C:\Users\Asus\AppData\Local\Temp\ccaf8y9d.s 			page 2


  31:Generated_Source\PSoC4/I2C_MPU6050_I2C_MASTER.c **** /* Receive buffer variables */
  32:Generated_Source\PSoC4/I2C_MPU6050_I2C_MASTER.c **** volatile uint8 * I2C_MPU6050_mstrRdBufPtr;   /* Pointer to Master Read buffer */
  33:Generated_Source\PSoC4/I2C_MPU6050_I2C_MASTER.c **** volatile uint32  I2C_MPU6050_mstrRdBufSize;  /* Master Read buffer size       */
  34:Generated_Source\PSoC4/I2C_MPU6050_I2C_MASTER.c **** volatile uint32  I2C_MPU6050_mstrRdBufIndex; /* Master Read buffer Index      */
  35:Generated_Source\PSoC4/I2C_MPU6050_I2C_MASTER.c **** 
  36:Generated_Source\PSoC4/I2C_MPU6050_I2C_MASTER.c **** /* Transmit buffer variables */
  37:Generated_Source\PSoC4/I2C_MPU6050_I2C_MASTER.c **** volatile uint8 * I2C_MPU6050_mstrWrBufPtr;   /* Pointer to Master Write buffer */
  38:Generated_Source\PSoC4/I2C_MPU6050_I2C_MASTER.c **** volatile uint32  I2C_MPU6050_mstrWrBufSize;  /* Master Write buffer size       */
  39:Generated_Source\PSoC4/I2C_MPU6050_I2C_MASTER.c **** volatile uint32  I2C_MPU6050_mstrWrBufIndex; /* Master Write buffer Index      */
  40:Generated_Source\PSoC4/I2C_MPU6050_I2C_MASTER.c **** volatile uint32  I2C_MPU6050_mstrWrBufIndexTmp; /* Master Write buffer Index Tmp */
  41:Generated_Source\PSoC4/I2C_MPU6050_I2C_MASTER.c **** 
  42:Generated_Source\PSoC4/I2C_MPU6050_I2C_MASTER.c **** 
  43:Generated_Source\PSoC4/I2C_MPU6050_I2C_MASTER.c **** /*******************************************************************************
  44:Generated_Source\PSoC4/I2C_MPU6050_I2C_MASTER.c **** * Function Name: I2C_MPU6050_I2CMasterWriteBuf
  45:Generated_Source\PSoC4/I2C_MPU6050_I2C_MASTER.c **** ********************************************************************************
  46:Generated_Source\PSoC4/I2C_MPU6050_I2C_MASTER.c **** *
  47:Generated_Source\PSoC4/I2C_MPU6050_I2C_MASTER.c **** * Summary:
  48:Generated_Source\PSoC4/I2C_MPU6050_I2C_MASTER.c **** * Automatically writes an entire buffer of data to a slave device.
  49:Generated_Source\PSoC4/I2C_MPU6050_I2C_MASTER.c **** * Once the data transfer is initiated by this function, further data transfer
  50:Generated_Source\PSoC4/I2C_MPU6050_I2C_MASTER.c **** * is handled by the included ISR.
  51:Generated_Source\PSoC4/I2C_MPU6050_I2C_MASTER.c **** * Enables the I2C interrupt and clears SCB_ I2C_MSTAT_WR_CMPLT status.
  52:Generated_Source\PSoC4/I2C_MPU6050_I2C_MASTER.c **** *
  53:Generated_Source\PSoC4/I2C_MPU6050_I2C_MASTER.c **** * Parameters:
  54:Generated_Source\PSoC4/I2C_MPU6050_I2C_MASTER.c **** *  slaveAddr: 7-bit slave address.
  55:Generated_Source\PSoC4/I2C_MPU6050_I2C_MASTER.c **** *  xferData:  Pointer to buffer of data to be sent.
  56:Generated_Source\PSoC4/I2C_MPU6050_I2C_MASTER.c **** *  cnt:       Size of buffer to send.
  57:Generated_Source\PSoC4/I2C_MPU6050_I2C_MASTER.c **** *  mode:      Transfer mode defines: start or restart condition generation at
  58:Generated_Source\PSoC4/I2C_MPU6050_I2C_MASTER.c **** *             begin of the transfer and complete the transfer or halt before
  59:Generated_Source\PSoC4/I2C_MPU6050_I2C_MASTER.c **** *             generating a stop.
  60:Generated_Source\PSoC4/I2C_MPU6050_I2C_MASTER.c **** *
  61:Generated_Source\PSoC4/I2C_MPU6050_I2C_MASTER.c **** * Return:
  62:Generated_Source\PSoC4/I2C_MPU6050_I2C_MASTER.c **** *  Error status.
  63:Generated_Source\PSoC4/I2C_MPU6050_I2C_MASTER.c **** *
  64:Generated_Source\PSoC4/I2C_MPU6050_I2C_MASTER.c **** * Global variables:
  65:Generated_Source\PSoC4/I2C_MPU6050_I2C_MASTER.c **** *  I2C_MPU6050_mstrStatus  - used to store current status of I2C Master.
  66:Generated_Source\PSoC4/I2C_MPU6050_I2C_MASTER.c **** *  I2C_MPU6050_state       - used to store current state of software FSM.
  67:Generated_Source\PSoC4/I2C_MPU6050_I2C_MASTER.c **** *  I2C_MPU6050_mstrControl - used to control master end of transaction with
  68:Generated_Source\PSoC4/I2C_MPU6050_I2C_MASTER.c **** *  or without the Stop generation.
  69:Generated_Source\PSoC4/I2C_MPU6050_I2C_MASTER.c **** *  I2C_MPU6050_mstrWrBufPtr - used to store pointer to master write buffer.
  70:Generated_Source\PSoC4/I2C_MPU6050_I2C_MASTER.c **** *  I2C_MPU6050_mstrWrBufIndex - used to current index within master write
  71:Generated_Source\PSoC4/I2C_MPU6050_I2C_MASTER.c **** *  buffer.
  72:Generated_Source\PSoC4/I2C_MPU6050_I2C_MASTER.c **** *  I2C_MPU6050_mstrWrBufSize - used to store master write buffer size.
  73:Generated_Source\PSoC4/I2C_MPU6050_I2C_MASTER.c **** *
  74:Generated_Source\PSoC4/I2C_MPU6050_I2C_MASTER.c **** *******************************************************************************/
  75:Generated_Source\PSoC4/I2C_MPU6050_I2C_MASTER.c **** uint32 I2C_MPU6050_I2CMasterWriteBuf(uint32 slaveAddress, uint8 * wrData, uint32 cnt, uint32 mode)
  76:Generated_Source\PSoC4/I2C_MPU6050_I2C_MASTER.c **** {
  77:Generated_Source\PSoC4/I2C_MPU6050_I2C_MASTER.c ****     uint32 errStatus;
  78:Generated_Source\PSoC4/I2C_MPU6050_I2C_MASTER.c **** 
  79:Generated_Source\PSoC4/I2C_MPU6050_I2C_MASTER.c ****     errStatus = I2C_MPU6050_I2C_MSTR_NOT_READY;
  80:Generated_Source\PSoC4/I2C_MPU6050_I2C_MASTER.c **** 
  81:Generated_Source\PSoC4/I2C_MPU6050_I2C_MASTER.c ****     if(NULL != wrData)  /* Check buffer pointer */
  82:Generated_Source\PSoC4/I2C_MPU6050_I2C_MASTER.c ****     {
  83:Generated_Source\PSoC4/I2C_MPU6050_I2C_MASTER.c ****         /* Check FSM state and bus before generating Start/ReStart condition */
  84:Generated_Source\PSoC4/I2C_MPU6050_I2C_MASTER.c ****         if(I2C_MPU6050_CHECK_I2C_FSM_IDLE)
  85:Generated_Source\PSoC4/I2C_MPU6050_I2C_MASTER.c ****         {
  86:Generated_Source\PSoC4/I2C_MPU6050_I2C_MASTER.c ****             I2C_MPU6050_DisableInt();
  87:Generated_Source\PSoC4/I2C_MPU6050_I2C_MASTER.c **** 
ARM GAS  C:\Users\Asus\AppData\Local\Temp\ccaf8y9d.s 			page 3


  88:Generated_Source\PSoC4/I2C_MPU6050_I2C_MASTER.c ****             /* Check bus state */
  89:Generated_Source\PSoC4/I2C_MPU6050_I2C_MASTER.c ****             errStatus = I2C_MPU6050_CHECK_I2C_STATUS(I2C_MPU6050_I2C_STATUS_BUS_BUSY) ?
  90:Generated_Source\PSoC4/I2C_MPU6050_I2C_MASTER.c ****                             I2C_MPU6050_I2C_MSTR_BUS_BUSY : I2C_MPU6050_I2C_MSTR_NO_ERROR;
  91:Generated_Source\PSoC4/I2C_MPU6050_I2C_MASTER.c ****         }
  92:Generated_Source\PSoC4/I2C_MPU6050_I2C_MASTER.c ****         else if(I2C_MPU6050_CHECK_I2C_FSM_HALT)
  93:Generated_Source\PSoC4/I2C_MPU6050_I2C_MASTER.c ****         {
  94:Generated_Source\PSoC4/I2C_MPU6050_I2C_MASTER.c ****             I2C_MPU6050_mstrStatus &= (uint16) ~I2C_MPU6050_I2C_MSTAT_XFER_HALT;
  95:Generated_Source\PSoC4/I2C_MPU6050_I2C_MASTER.c ****                               errStatus  = I2C_MPU6050_I2C_MSTR_NO_ERROR;
  96:Generated_Source\PSoC4/I2C_MPU6050_I2C_MASTER.c ****         }
  97:Generated_Source\PSoC4/I2C_MPU6050_I2C_MASTER.c ****         else
  98:Generated_Source\PSoC4/I2C_MPU6050_I2C_MASTER.c ****         {
  99:Generated_Source\PSoC4/I2C_MPU6050_I2C_MASTER.c ****             /* Unexpected FSM state: exit */
 100:Generated_Source\PSoC4/I2C_MPU6050_I2C_MASTER.c ****         }
 101:Generated_Source\PSoC4/I2C_MPU6050_I2C_MASTER.c ****     }
 102:Generated_Source\PSoC4/I2C_MPU6050_I2C_MASTER.c **** 
 103:Generated_Source\PSoC4/I2C_MPU6050_I2C_MASTER.c **** 
 104:Generated_Source\PSoC4/I2C_MPU6050_I2C_MASTER.c ****     /* Check if master is ready to start  */
 105:Generated_Source\PSoC4/I2C_MPU6050_I2C_MASTER.c ****     if(I2C_MPU6050_I2C_MSTR_NO_ERROR == errStatus) /* No error proceed */
 106:Generated_Source\PSoC4/I2C_MPU6050_I2C_MASTER.c ****     {
 107:Generated_Source\PSoC4/I2C_MPU6050_I2C_MASTER.c ****         /* Set up write transaction */
 108:Generated_Source\PSoC4/I2C_MPU6050_I2C_MASTER.c ****         I2C_MPU6050_state = I2C_MPU6050_I2C_FSM_MSTR_WR_ADDR;
 109:Generated_Source\PSoC4/I2C_MPU6050_I2C_MASTER.c ****         I2C_MPU6050_mstrWrBufIndexTmp = 0u;
 110:Generated_Source\PSoC4/I2C_MPU6050_I2C_MASTER.c ****         I2C_MPU6050_mstrWrBufIndex    = 0u;
 111:Generated_Source\PSoC4/I2C_MPU6050_I2C_MASTER.c ****         I2C_MPU6050_mstrWrBufSize     = cnt;
 112:Generated_Source\PSoC4/I2C_MPU6050_I2C_MASTER.c ****         I2C_MPU6050_mstrWrBufPtr      = (volatile uint8 *) wrData;
 113:Generated_Source\PSoC4/I2C_MPU6050_I2C_MASTER.c ****         I2C_MPU6050_mstrControl       = (uint8) mode;
 114:Generated_Source\PSoC4/I2C_MPU6050_I2C_MASTER.c **** 
 115:Generated_Source\PSoC4/I2C_MPU6050_I2C_MASTER.c ****         slaveAddress = I2C_MPU6050_GET_I2C_8BIT_ADDRESS(slaveAddress);
 116:Generated_Source\PSoC4/I2C_MPU6050_I2C_MASTER.c **** 
 117:Generated_Source\PSoC4/I2C_MPU6050_I2C_MASTER.c ****         I2C_MPU6050_mstrStatus &= (uint16) ~I2C_MPU6050_I2C_MSTAT_WR_CMPLT;
 118:Generated_Source\PSoC4/I2C_MPU6050_I2C_MASTER.c **** 
 119:Generated_Source\PSoC4/I2C_MPU6050_I2C_MASTER.c ****         I2C_MPU6050_ClearMasterInterruptSource(I2C_MPU6050_INTR_MASTER_ALL);
 120:Generated_Source\PSoC4/I2C_MPU6050_I2C_MASTER.c ****         I2C_MPU6050_ClearTxInterruptSource(I2C_MPU6050_INTR_TX_UNDERFLOW);
 121:Generated_Source\PSoC4/I2C_MPU6050_I2C_MASTER.c ****         /* The TX and RX FIFO have to be EMPTY */
 122:Generated_Source\PSoC4/I2C_MPU6050_I2C_MASTER.c **** 
 123:Generated_Source\PSoC4/I2C_MPU6050_I2C_MASTER.c ****         /* Generate Start or ReStart */
 124:Generated_Source\PSoC4/I2C_MPU6050_I2C_MASTER.c ****         if(I2C_MPU6050_CHECK_I2C_MODE_RESTART(mode))
 125:Generated_Source\PSoC4/I2C_MPU6050_I2C_MASTER.c ****         {
 126:Generated_Source\PSoC4/I2C_MPU6050_I2C_MASTER.c ****             I2C_MPU6050_I2C_MASTER_GENERATE_RESTART;
 127:Generated_Source\PSoC4/I2C_MPU6050_I2C_MASTER.c ****             I2C_MPU6050_TX_FIFO_WR_REG = slaveAddress;
 128:Generated_Source\PSoC4/I2C_MPU6050_I2C_MASTER.c ****         }
 129:Generated_Source\PSoC4/I2C_MPU6050_I2C_MASTER.c ****         else
 130:Generated_Source\PSoC4/I2C_MPU6050_I2C_MASTER.c ****         {
 131:Generated_Source\PSoC4/I2C_MPU6050_I2C_MASTER.c ****             I2C_MPU6050_TX_FIFO_WR_REG = slaveAddress;
 132:Generated_Source\PSoC4/I2C_MPU6050_I2C_MASTER.c ****             I2C_MPU6050_I2C_MASTER_GENERATE_START;
 133:Generated_Source\PSoC4/I2C_MPU6050_I2C_MASTER.c ****         }
 134:Generated_Source\PSoC4/I2C_MPU6050_I2C_MASTER.c **** 
 135:Generated_Source\PSoC4/I2C_MPU6050_I2C_MASTER.c ****          /* Catch when address is sent */
 136:Generated_Source\PSoC4/I2C_MPU6050_I2C_MASTER.c ****         I2C_MPU6050_SetTxInterruptMode(I2C_MPU6050_INTR_TX_UNDERFLOW);
 137:Generated_Source\PSoC4/I2C_MPU6050_I2C_MASTER.c ****     }
 138:Generated_Source\PSoC4/I2C_MPU6050_I2C_MASTER.c **** 
 139:Generated_Source\PSoC4/I2C_MPU6050_I2C_MASTER.c ****     I2C_MPU6050_EnableInt();
 140:Generated_Source\PSoC4/I2C_MPU6050_I2C_MASTER.c **** 
 141:Generated_Source\PSoC4/I2C_MPU6050_I2C_MASTER.c ****     return(errStatus);
 142:Generated_Source\PSoC4/I2C_MPU6050_I2C_MASTER.c **** }
 143:Generated_Source\PSoC4/I2C_MPU6050_I2C_MASTER.c **** 
 144:Generated_Source\PSoC4/I2C_MPU6050_I2C_MASTER.c **** 
ARM GAS  C:\Users\Asus\AppData\Local\Temp\ccaf8y9d.s 			page 4


 145:Generated_Source\PSoC4/I2C_MPU6050_I2C_MASTER.c **** /*******************************************************************************
 146:Generated_Source\PSoC4/I2C_MPU6050_I2C_MASTER.c **** * Function Name: I2C_MPU6050_I2CMasterReadBuf
 147:Generated_Source\PSoC4/I2C_MPU6050_I2C_MASTER.c **** ********************************************************************************
 148:Generated_Source\PSoC4/I2C_MPU6050_I2C_MASTER.c **** *
 149:Generated_Source\PSoC4/I2C_MPU6050_I2C_MASTER.c **** * Summary:
 150:Generated_Source\PSoC4/I2C_MPU6050_I2C_MASTER.c **** *  Automatically reads an entire buffer of data from a slave device.
 151:Generated_Source\PSoC4/I2C_MPU6050_I2C_MASTER.c **** *  Once the data transfer is initiated by this function, further data transfer
 152:Generated_Source\PSoC4/I2C_MPU6050_I2C_MASTER.c **** *  is handled by the included ISR.
 153:Generated_Source\PSoC4/I2C_MPU6050_I2C_MASTER.c **** * Enables the I2C interrupt and clears SCB_ I2C_MSTAT_RD_CMPLT status.
 154:Generated_Source\PSoC4/I2C_MPU6050_I2C_MASTER.c **** *
 155:Generated_Source\PSoC4/I2C_MPU6050_I2C_MASTER.c **** * Parameters:
 156:Generated_Source\PSoC4/I2C_MPU6050_I2C_MASTER.c **** *  slaveAddr: 7-bit slave address.
 157:Generated_Source\PSoC4/I2C_MPU6050_I2C_MASTER.c **** *  xferData:  Pointer to buffer where to put data from slave.
 158:Generated_Source\PSoC4/I2C_MPU6050_I2C_MASTER.c **** *  cnt:       Size of buffer to read.
 159:Generated_Source\PSoC4/I2C_MPU6050_I2C_MASTER.c **** *  mode:      Transfer mode defines: start or restart condition generation at
 160:Generated_Source\PSoC4/I2C_MPU6050_I2C_MASTER.c **** *             begin of the transfer and complete the transfer or halt before
 161:Generated_Source\PSoC4/I2C_MPU6050_I2C_MASTER.c **** *             generating a stop.
 162:Generated_Source\PSoC4/I2C_MPU6050_I2C_MASTER.c **** *
 163:Generated_Source\PSoC4/I2C_MPU6050_I2C_MASTER.c **** * Return:
 164:Generated_Source\PSoC4/I2C_MPU6050_I2C_MASTER.c **** *  Error status.
 165:Generated_Source\PSoC4/I2C_MPU6050_I2C_MASTER.c **** *
 166:Generated_Source\PSoC4/I2C_MPU6050_I2C_MASTER.c **** * Global variables:
 167:Generated_Source\PSoC4/I2C_MPU6050_I2C_MASTER.c **** *  I2C_MPU6050_mstrStatus  - used to store current status of I2C Master.
 168:Generated_Source\PSoC4/I2C_MPU6050_I2C_MASTER.c **** *  I2C_MPU6050_state       - used to store current state of software FSM.
 169:Generated_Source\PSoC4/I2C_MPU6050_I2C_MASTER.c **** *  I2C_MPU6050_mstrControl - used to control master end of transaction with
 170:Generated_Source\PSoC4/I2C_MPU6050_I2C_MASTER.c **** *  or without the Stop generation.
 171:Generated_Source\PSoC4/I2C_MPU6050_I2C_MASTER.c **** *  I2C_MPU6050_mstrRdBufPtr - used to store pointer to master write buffer.
 172:Generated_Source\PSoC4/I2C_MPU6050_I2C_MASTER.c **** *  I2C_MPU6050_mstrRdBufIndex - used to current index within master write
 173:Generated_Source\PSoC4/I2C_MPU6050_I2C_MASTER.c **** *  buffer.
 174:Generated_Source\PSoC4/I2C_MPU6050_I2C_MASTER.c **** *  I2C_MPU6050_mstrRdBufSize - used to store master write buffer size.
 175:Generated_Source\PSoC4/I2C_MPU6050_I2C_MASTER.c **** *
 176:Generated_Source\PSoC4/I2C_MPU6050_I2C_MASTER.c **** *******************************************************************************/
 177:Generated_Source\PSoC4/I2C_MPU6050_I2C_MASTER.c **** uint32 I2C_MPU6050_I2CMasterReadBuf(uint32 slaveAddress, uint8 * rdData, uint32 cnt, uint32 mode)
 178:Generated_Source\PSoC4/I2C_MPU6050_I2C_MASTER.c **** {
 179:Generated_Source\PSoC4/I2C_MPU6050_I2C_MASTER.c ****     uint32 errStatus;
 180:Generated_Source\PSoC4/I2C_MPU6050_I2C_MASTER.c **** 
 181:Generated_Source\PSoC4/I2C_MPU6050_I2C_MASTER.c ****     errStatus = I2C_MPU6050_I2C_MSTR_NOT_READY;
 182:Generated_Source\PSoC4/I2C_MPU6050_I2C_MASTER.c **** 
 183:Generated_Source\PSoC4/I2C_MPU6050_I2C_MASTER.c ****     if(NULL != rdData)
 184:Generated_Source\PSoC4/I2C_MPU6050_I2C_MASTER.c ****     {
 185:Generated_Source\PSoC4/I2C_MPU6050_I2C_MASTER.c ****         /* Check FSM state and bus before generating Start/ReStart condition */
 186:Generated_Source\PSoC4/I2C_MPU6050_I2C_MASTER.c ****         if(I2C_MPU6050_CHECK_I2C_FSM_IDLE)
 187:Generated_Source\PSoC4/I2C_MPU6050_I2C_MASTER.c ****         {
 188:Generated_Source\PSoC4/I2C_MPU6050_I2C_MASTER.c ****             I2C_MPU6050_DisableInt();
 189:Generated_Source\PSoC4/I2C_MPU6050_I2C_MASTER.c **** 
 190:Generated_Source\PSoC4/I2C_MPU6050_I2C_MASTER.c ****             /* Check bus state */
 191:Generated_Source\PSoC4/I2C_MPU6050_I2C_MASTER.c ****             errStatus = I2C_MPU6050_CHECK_I2C_STATUS(I2C_MPU6050_I2C_STATUS_BUS_BUSY) ?
 192:Generated_Source\PSoC4/I2C_MPU6050_I2C_MASTER.c ****                             I2C_MPU6050_I2C_MSTR_BUS_BUSY : I2C_MPU6050_I2C_MSTR_NO_ERROR;
 193:Generated_Source\PSoC4/I2C_MPU6050_I2C_MASTER.c ****         }
 194:Generated_Source\PSoC4/I2C_MPU6050_I2C_MASTER.c ****         else if(I2C_MPU6050_CHECK_I2C_FSM_HALT)
 195:Generated_Source\PSoC4/I2C_MPU6050_I2C_MASTER.c ****         {
 196:Generated_Source\PSoC4/I2C_MPU6050_I2C_MASTER.c ****             I2C_MPU6050_mstrStatus &= (uint16) ~I2C_MPU6050_I2C_MSTAT_XFER_HALT;
 197:Generated_Source\PSoC4/I2C_MPU6050_I2C_MASTER.c ****                               errStatus  =  I2C_MPU6050_I2C_MSTR_NO_ERROR;
 198:Generated_Source\PSoC4/I2C_MPU6050_I2C_MASTER.c ****         }
 199:Generated_Source\PSoC4/I2C_MPU6050_I2C_MASTER.c ****         else
 200:Generated_Source\PSoC4/I2C_MPU6050_I2C_MASTER.c ****         {
 201:Generated_Source\PSoC4/I2C_MPU6050_I2C_MASTER.c ****             /* Unexpected FSM state: exit */
ARM GAS  C:\Users\Asus\AppData\Local\Temp\ccaf8y9d.s 			page 5


 202:Generated_Source\PSoC4/I2C_MPU6050_I2C_MASTER.c ****         }
 203:Generated_Source\PSoC4/I2C_MPU6050_I2C_MASTER.c ****     }
 204:Generated_Source\PSoC4/I2C_MPU6050_I2C_MASTER.c **** 
 205:Generated_Source\PSoC4/I2C_MPU6050_I2C_MASTER.c ****     /* Check master ready to proceed */
 206:Generated_Source\PSoC4/I2C_MPU6050_I2C_MASTER.c ****     if(I2C_MPU6050_I2C_MSTR_NO_ERROR == errStatus) /* No error proceed */
 207:Generated_Source\PSoC4/I2C_MPU6050_I2C_MASTER.c ****     {
 208:Generated_Source\PSoC4/I2C_MPU6050_I2C_MASTER.c ****         /* Set up read transaction */
 209:Generated_Source\PSoC4/I2C_MPU6050_I2C_MASTER.c ****         I2C_MPU6050_state = I2C_MPU6050_I2C_FSM_MSTR_RD_ADDR;
 210:Generated_Source\PSoC4/I2C_MPU6050_I2C_MASTER.c ****         I2C_MPU6050_mstrRdBufIndex = 0u;
 211:Generated_Source\PSoC4/I2C_MPU6050_I2C_MASTER.c ****         I2C_MPU6050_mstrRdBufSize  = cnt;
 212:Generated_Source\PSoC4/I2C_MPU6050_I2C_MASTER.c ****         I2C_MPU6050_mstrRdBufPtr   = (volatile uint8 *) rdData;
 213:Generated_Source\PSoC4/I2C_MPU6050_I2C_MASTER.c ****         I2C_MPU6050_mstrControl    = (uint8) mode;
 214:Generated_Source\PSoC4/I2C_MPU6050_I2C_MASTER.c **** 
 215:Generated_Source\PSoC4/I2C_MPU6050_I2C_MASTER.c ****         slaveAddress = (I2C_MPU6050_GET_I2C_8BIT_ADDRESS(slaveAddress) | I2C_MPU6050_I2C_READ_FLAG)
 216:Generated_Source\PSoC4/I2C_MPU6050_I2C_MASTER.c **** 
 217:Generated_Source\PSoC4/I2C_MPU6050_I2C_MASTER.c ****         I2C_MPU6050_mstrStatus &= (uint16) ~I2C_MPU6050_I2C_MSTAT_RD_CMPLT;
 218:Generated_Source\PSoC4/I2C_MPU6050_I2C_MASTER.c **** 
 219:Generated_Source\PSoC4/I2C_MPU6050_I2C_MASTER.c ****         I2C_MPU6050_ClearMasterInterruptSource(I2C_MPU6050_INTR_MASTER_ALL);
 220:Generated_Source\PSoC4/I2C_MPU6050_I2C_MASTER.c **** 
 221:Generated_Source\PSoC4/I2C_MPU6050_I2C_MASTER.c ****         /* The TX and RX FIFO have to be EMPTY */
 222:Generated_Source\PSoC4/I2C_MPU6050_I2C_MASTER.c **** 
 223:Generated_Source\PSoC4/I2C_MPU6050_I2C_MASTER.c ****         /* Generate Start or ReStart */
 224:Generated_Source\PSoC4/I2C_MPU6050_I2C_MASTER.c ****         if(I2C_MPU6050_CHECK_I2C_MODE_RESTART(mode))
 225:Generated_Source\PSoC4/I2C_MPU6050_I2C_MASTER.c ****         {
 226:Generated_Source\PSoC4/I2C_MPU6050_I2C_MASTER.c ****             I2C_MPU6050_I2C_MASTER_GENERATE_RESTART;
 227:Generated_Source\PSoC4/I2C_MPU6050_I2C_MASTER.c ****             I2C_MPU6050_TX_FIFO_WR_REG = (slaveAddress);
 228:Generated_Source\PSoC4/I2C_MPU6050_I2C_MASTER.c ****         }
 229:Generated_Source\PSoC4/I2C_MPU6050_I2C_MASTER.c ****         else
 230:Generated_Source\PSoC4/I2C_MPU6050_I2C_MASTER.c ****         {
 231:Generated_Source\PSoC4/I2C_MPU6050_I2C_MASTER.c ****             I2C_MPU6050_TX_FIFO_WR_REG = (slaveAddress);
 232:Generated_Source\PSoC4/I2C_MPU6050_I2C_MASTER.c ****             I2C_MPU6050_I2C_MASTER_GENERATE_START;
 233:Generated_Source\PSoC4/I2C_MPU6050_I2C_MASTER.c ****         }
 234:Generated_Source\PSoC4/I2C_MPU6050_I2C_MASTER.c **** 
 235:Generated_Source\PSoC4/I2C_MPU6050_I2C_MASTER.c ****         /* Prepare reading */
 236:Generated_Source\PSoC4/I2C_MPU6050_I2C_MASTER.c ****         if(I2C_MPU6050_mstrRdBufSize < I2C_MPU6050_I2C_FIFO_SIZE) /* Reading byte-by-byte */
 237:Generated_Source\PSoC4/I2C_MPU6050_I2C_MASTER.c ****         {
 238:Generated_Source\PSoC4/I2C_MPU6050_I2C_MASTER.c ****             I2C_MPU6050_SetRxInterruptMode(I2C_MPU6050_INTR_RX_NOT_EMPTY);
 239:Generated_Source\PSoC4/I2C_MPU6050_I2C_MASTER.c ****         }
 240:Generated_Source\PSoC4/I2C_MPU6050_I2C_MASTER.c ****         else /* Reading use RX FIFO */
 241:Generated_Source\PSoC4/I2C_MPU6050_I2C_MASTER.c ****         {
 242:Generated_Source\PSoC4/I2C_MPU6050_I2C_MASTER.c ****             I2C_MPU6050_ENABLE_MASTER_AUTO_DATA_ACK;
 243:Generated_Source\PSoC4/I2C_MPU6050_I2C_MASTER.c ****             I2C_MPU6050_SetRxInterruptMode(I2C_MPU6050_INTR_RX_FULL);
 244:Generated_Source\PSoC4/I2C_MPU6050_I2C_MASTER.c ****         }
 245:Generated_Source\PSoC4/I2C_MPU6050_I2C_MASTER.c ****     }
 246:Generated_Source\PSoC4/I2C_MPU6050_I2C_MASTER.c **** 
 247:Generated_Source\PSoC4/I2C_MPU6050_I2C_MASTER.c ****     I2C_MPU6050_EnableInt();
 248:Generated_Source\PSoC4/I2C_MPU6050_I2C_MASTER.c **** 
 249:Generated_Source\PSoC4/I2C_MPU6050_I2C_MASTER.c ****     return(errStatus);
 250:Generated_Source\PSoC4/I2C_MPU6050_I2C_MASTER.c **** }
 251:Generated_Source\PSoC4/I2C_MPU6050_I2C_MASTER.c **** 
 252:Generated_Source\PSoC4/I2C_MPU6050_I2C_MASTER.c **** 
 253:Generated_Source\PSoC4/I2C_MPU6050_I2C_MASTER.c **** /*******************************************************************************
 254:Generated_Source\PSoC4/I2C_MPU6050_I2C_MASTER.c **** * Function Name: I2C_MPU6050_I2CMasterSendStart
 255:Generated_Source\PSoC4/I2C_MPU6050_I2C_MASTER.c **** ********************************************************************************
 256:Generated_Source\PSoC4/I2C_MPU6050_I2C_MASTER.c **** *
 257:Generated_Source\PSoC4/I2C_MPU6050_I2C_MASTER.c **** * Summary:
 258:Generated_Source\PSoC4/I2C_MPU6050_I2C_MASTER.c **** *  Generates Start condition and sends slave address with read/write bit.
ARM GAS  C:\Users\Asus\AppData\Local\Temp\ccaf8y9d.s 			page 6


 259:Generated_Source\PSoC4/I2C_MPU6050_I2C_MASTER.c **** *  Disables the I2C interrupt.
 260:Generated_Source\PSoC4/I2C_MPU6050_I2C_MASTER.c **** *  This function is blocking and does not return until start condition and
 261:Generated_Source\PSoC4/I2C_MPU6050_I2C_MASTER.c **** *  address byte are sent and ACK/NACK response is received or errors occurred.
 262:Generated_Source\PSoC4/I2C_MPU6050_I2C_MASTER.c **** *
 263:Generated_Source\PSoC4/I2C_MPU6050_I2C_MASTER.c **** * Parameters:
 264:Generated_Source\PSoC4/I2C_MPU6050_I2C_MASTER.c **** *  slaveAddress: Right justified 7-bit Slave address (valid range 8 to 120).
 265:Generated_Source\PSoC4/I2C_MPU6050_I2C_MASTER.c **** *  bitRnW:       Direction of the following transfer. It is defined by
 266:Generated_Source\PSoC4/I2C_MPU6050_I2C_MASTER.c **** *                read/write bit within address byte.
 267:Generated_Source\PSoC4/I2C_MPU6050_I2C_MASTER.c **** *
 268:Generated_Source\PSoC4/I2C_MPU6050_I2C_MASTER.c **** * Return:
 269:Generated_Source\PSoC4/I2C_MPU6050_I2C_MASTER.c **** *  Erorr status.
 270:Generated_Source\PSoC4/I2C_MPU6050_I2C_MASTER.c **** *
 271:Generated_Source\PSoC4/I2C_MPU6050_I2C_MASTER.c **** * Global variables:
 272:Generated_Source\PSoC4/I2C_MPU6050_I2C_MASTER.c **** *  I2C_MPU6050_state - used to store current state of software FSM.
 273:Generated_Source\PSoC4/I2C_MPU6050_I2C_MASTER.c **** *
 274:Generated_Source\PSoC4/I2C_MPU6050_I2C_MASTER.c **** *******************************************************************************/
 275:Generated_Source\PSoC4/I2C_MPU6050_I2C_MASTER.c **** uint32 I2C_MPU6050_I2CMasterSendStart(uint32 slaveAddress, uint32 bitRnW)
 276:Generated_Source\PSoC4/I2C_MPU6050_I2C_MASTER.c **** {
  28              		.loc 1 276 0
  29              		.cfi_startproc
  30              		@ args = 0, pretend = 0, frame = 0
  31              		@ frame_needed = 0, uses_anonymous_args = 0
  32              	.LVL0:
  33 0000 70B5     		push	{r4, r5, r6, lr}
  34              		.cfi_def_cfa_offset 16
  35              		.cfi_offset 4, -16
  36              		.cfi_offset 5, -12
  37              		.cfi_offset 6, -8
  38              		.cfi_offset 14, -4
  39 0002 0400     		movs	r4, r0
  40 0004 0D00     		movs	r5, r1
  41              	.LVL1:
 277:Generated_Source\PSoC4/I2C_MPU6050_I2C_MASTER.c ****     uint32  resetIp;
 278:Generated_Source\PSoC4/I2C_MPU6050_I2C_MASTER.c ****     uint32 errStatus;
 279:Generated_Source\PSoC4/I2C_MPU6050_I2C_MASTER.c **** 
 280:Generated_Source\PSoC4/I2C_MPU6050_I2C_MASTER.c ****     resetIp   = 0u;
 281:Generated_Source\PSoC4/I2C_MPU6050_I2C_MASTER.c ****     errStatus = I2C_MPU6050_I2C_MSTR_NOT_READY;
 282:Generated_Source\PSoC4/I2C_MPU6050_I2C_MASTER.c **** 
 283:Generated_Source\PSoC4/I2C_MPU6050_I2C_MASTER.c ****     /* Check FSM state before generating Start condition */
 284:Generated_Source\PSoC4/I2C_MPU6050_I2C_MASTER.c ****     if(I2C_MPU6050_CHECK_I2C_FSM_IDLE)
  42              		.loc 1 284 0
  43 0006 294B     		ldr	r3, .L12
  44 0008 1B78     		ldrb	r3, [r3]
  45 000a 102B     		cmp	r3, #16
  46 000c 49D1     		bne	.L8
 285:Generated_Source\PSoC4/I2C_MPU6050_I2C_MASTER.c ****     {
 286:Generated_Source\PSoC4/I2C_MPU6050_I2C_MASTER.c ****         /* If bus is free, generate Start condition */
 287:Generated_Source\PSoC4/I2C_MPU6050_I2C_MASTER.c ****         if(I2C_MPU6050_CHECK_I2C_STATUS(I2C_MPU6050_I2C_STATUS_BUS_BUSY))
  47              		.loc 1 287 0
  48 000e 284B     		ldr	r3, .L12+4
  49 0010 1B68     		ldr	r3, [r3]
  50 0012 DB07     		lsls	r3, r3, #31
  51 0014 47D4     		bmi	.L9
 288:Generated_Source\PSoC4/I2C_MPU6050_I2C_MASTER.c ****         {
 289:Generated_Source\PSoC4/I2C_MPU6050_I2C_MASTER.c ****             errStatus = I2C_MPU6050_I2C_MSTR_BUS_BUSY;
 290:Generated_Source\PSoC4/I2C_MPU6050_I2C_MASTER.c ****         }
 291:Generated_Source\PSoC4/I2C_MPU6050_I2C_MASTER.c ****         else
ARM GAS  C:\Users\Asus\AppData\Local\Temp\ccaf8y9d.s 			page 7


 292:Generated_Source\PSoC4/I2C_MPU6050_I2C_MASTER.c ****         {
 293:Generated_Source\PSoC4/I2C_MPU6050_I2C_MASTER.c ****             I2C_MPU6050_DisableInt();
  52              		.loc 1 293 0
  53 0016 0A20     		movs	r0, #10
  54              	.LVL2:
  55 0018 FFF7FEFF 		bl	CyIntDisable
  56              	.LVL3:
 294:Generated_Source\PSoC4/I2C_MPU6050_I2C_MASTER.c **** 
 295:Generated_Source\PSoC4/I2C_MPU6050_I2C_MASTER.c ****             slaveAddress = I2C_MPU6050_GET_I2C_8BIT_ADDRESS(slaveAddress);
  57              		.loc 1 295 0
  58 001c 6400     		lsls	r4, r4, #1
  59              	.LVL4:
  60 001e FF23     		movs	r3, #255
  61 0020 1C40     		ands	r4, r3
  62              	.LVL5:
 296:Generated_Source\PSoC4/I2C_MPU6050_I2C_MASTER.c **** 
 297:Generated_Source\PSoC4/I2C_MPU6050_I2C_MASTER.c ****             if(0u == bitRnW) /* Write direction */
  63              		.loc 1 297 0
  64 0022 002D     		cmp	r5, #0
  65 0024 03D1     		bne	.L3
 298:Generated_Source\PSoC4/I2C_MPU6050_I2C_MASTER.c ****             {
 299:Generated_Source\PSoC4/I2C_MPU6050_I2C_MASTER.c ****                 I2C_MPU6050_state = I2C_MPU6050_I2C_FSM_MSTR_WR_DATA;
  66              		.loc 1 299 0
  67 0026 2422     		movs	r2, #36
  68 0028 204B     		ldr	r3, .L12
  69 002a 1A70     		strb	r2, [r3]
  70 002c 04E0     		b	.L4
  71              	.L3:
 300:Generated_Source\PSoC4/I2C_MPU6050_I2C_MASTER.c ****             }
 301:Generated_Source\PSoC4/I2C_MPU6050_I2C_MASTER.c ****             else /* Read direction */
 302:Generated_Source\PSoC4/I2C_MPU6050_I2C_MASTER.c ****             {
 303:Generated_Source\PSoC4/I2C_MPU6050_I2C_MASTER.c ****                 I2C_MPU6050_state = I2C_MPU6050_I2C_FSM_MSTR_RD_DATA;
  72              		.loc 1 303 0
  73 002e 2522     		movs	r2, #37
  74 0030 1E4B     		ldr	r3, .L12
  75 0032 1A70     		strb	r2, [r3]
 304:Generated_Source\PSoC4/I2C_MPU6050_I2C_MASTER.c ****                          slaveAddress |= I2C_MPU6050_I2C_READ_FLAG;
  76              		.loc 1 304 0
  77 0034 0123     		movs	r3, #1
  78 0036 1C43     		orrs	r4, r3
  79              	.LVL6:
  80              	.L4:
 305:Generated_Source\PSoC4/I2C_MPU6050_I2C_MASTER.c ****             }
 306:Generated_Source\PSoC4/I2C_MPU6050_I2C_MASTER.c **** 
 307:Generated_Source\PSoC4/I2C_MPU6050_I2C_MASTER.c ****             /* The TX and RX FIFO have to be EMPTY */
 308:Generated_Source\PSoC4/I2C_MPU6050_I2C_MASTER.c **** 
 309:Generated_Source\PSoC4/I2C_MPU6050_I2C_MASTER.c ****             I2C_MPU6050_TX_FIFO_WR_REG = slaveAddress; /* Put address in TX FIFO */
  81              		.loc 1 309 0
  82 0038 1E4B     		ldr	r3, .L12+8
  83 003a 1C60     		str	r4, [r3]
 310:Generated_Source\PSoC4/I2C_MPU6050_I2C_MASTER.c ****             I2C_MPU6050_ClearMasterInterruptSource(I2C_MPU6050_INTR_MASTER_ALL);
  84              		.loc 1 310 0
  85 003c 1E4A     		ldr	r2, .L12+12
  86 003e 1F4B     		ldr	r3, .L12+16
  87 0040 1A60     		str	r2, [r3]
 311:Generated_Source\PSoC4/I2C_MPU6050_I2C_MASTER.c **** 
 312:Generated_Source\PSoC4/I2C_MPU6050_I2C_MASTER.c ****             I2C_MPU6050_I2C_MASTER_GENERATE_START;
ARM GAS  C:\Users\Asus\AppData\Local\Temp\ccaf8y9d.s 			page 8


  88              		.loc 1 312 0
  89 0042 0222     		movs	r2, #2
  90 0044 1E4B     		ldr	r3, .L12+20
  91 0046 1A60     		str	r2, [r3]
  92              	.L5:
 313:Generated_Source\PSoC4/I2C_MPU6050_I2C_MASTER.c **** 
 314:Generated_Source\PSoC4/I2C_MPU6050_I2C_MASTER.c **** 
 315:Generated_Source\PSoC4/I2C_MPU6050_I2C_MASTER.c ****             while(!I2C_MPU6050_CHECK_INTR_MASTER(I2C_MPU6050_INTR_MASTER_I2C_ACK      |
  93              		.loc 1 315 0 discriminator 1
  94 0048 1C4B     		ldr	r3, .L12+16
  95 004a 1A68     		ldr	r2, [r3]
  96 004c 0823     		movs	r3, #8
  97 004e FF33     		adds	r3, r3, #255
  98 0050 1A42     		tst	r2, r3
  99 0052 F9D0     		beq	.L5
 316:Generated_Source\PSoC4/I2C_MPU6050_I2C_MASTER.c ****                                                       I2C_MPU6050_INTR_MASTER_I2C_NACK     |
 317:Generated_Source\PSoC4/I2C_MPU6050_I2C_MASTER.c ****                                                       I2C_MPU6050_INTR_MASTER_I2C_ARB_LOST |
 318:Generated_Source\PSoC4/I2C_MPU6050_I2C_MASTER.c ****                                                       I2C_MPU6050_INTR_MASTER_I2C_BUS_ERROR))
 319:Generated_Source\PSoC4/I2C_MPU6050_I2C_MASTER.c ****             {
 320:Generated_Source\PSoC4/I2C_MPU6050_I2C_MASTER.c ****                 /*
 321:Generated_Source\PSoC4/I2C_MPU6050_I2C_MASTER.c ****                 * Write: wait until address has been transferred
 322:Generated_Source\PSoC4/I2C_MPU6050_I2C_MASTER.c ****                 * Read : wait until address has been transferred, data byte is going to RX FIFO as 
 323:Generated_Source\PSoC4/I2C_MPU6050_I2C_MASTER.c ****                 */
 324:Generated_Source\PSoC4/I2C_MPU6050_I2C_MASTER.c ****             }
 325:Generated_Source\PSoC4/I2C_MPU6050_I2C_MASTER.c **** 
 326:Generated_Source\PSoC4/I2C_MPU6050_I2C_MASTER.c ****             /* Check the results of the address phase */
 327:Generated_Source\PSoC4/I2C_MPU6050_I2C_MASTER.c ****             if(I2C_MPU6050_CHECK_INTR_MASTER(I2C_MPU6050_INTR_MASTER_I2C_ACK))
 100              		.loc 1 327 0
 101 0054 194B     		ldr	r3, .L12+16
 102 0056 1B68     		ldr	r3, [r3]
 103 0058 5B07     		lsls	r3, r3, #29
 104 005a 14D4     		bmi	.L10
 328:Generated_Source\PSoC4/I2C_MPU6050_I2C_MASTER.c ****             {
 329:Generated_Source\PSoC4/I2C_MPU6050_I2C_MASTER.c ****                 errStatus = I2C_MPU6050_I2C_MSTR_NO_ERROR;
 330:Generated_Source\PSoC4/I2C_MPU6050_I2C_MASTER.c ****             }
 331:Generated_Source\PSoC4/I2C_MPU6050_I2C_MASTER.c ****             else if(I2C_MPU6050_CHECK_INTR_MASTER(I2C_MPU6050_INTR_MASTER_I2C_NACK))
 105              		.loc 1 331 0
 106 005c 174B     		ldr	r3, .L12+16
 107 005e 1B68     		ldr	r3, [r3]
 108 0060 9B07     		lsls	r3, r3, #30
 109 0062 13D4     		bmi	.L11
 332:Generated_Source\PSoC4/I2C_MPU6050_I2C_MASTER.c ****             {
 333:Generated_Source\PSoC4/I2C_MPU6050_I2C_MASTER.c ****                 errStatus = I2C_MPU6050_I2C_MSTR_ERR_LB_NAK;
 334:Generated_Source\PSoC4/I2C_MPU6050_I2C_MASTER.c ****             }
 335:Generated_Source\PSoC4/I2C_MPU6050_I2C_MASTER.c ****             else if(I2C_MPU6050_CHECK_INTR_MASTER(I2C_MPU6050_INTR_MASTER_I2C_ARB_LOST))
 110              		.loc 1 335 0
 111 0064 154B     		ldr	r3, .L12+16
 112 0066 1B68     		ldr	r3, [r3]
 113 0068 DB07     		lsls	r3, r3, #31
 114 006a 05D5     		bpl	.L7
 336:Generated_Source\PSoC4/I2C_MPU6050_I2C_MASTER.c ****             {
 337:Generated_Source\PSoC4/I2C_MPU6050_I2C_MASTER.c ****                 I2C_MPU6050_state = I2C_MPU6050_I2C_FSM_IDLE;
 115              		.loc 1 337 0
 116 006c 1022     		movs	r2, #16
 117 006e 0F4B     		ldr	r3, .L12
 118 0070 1A70     		strb	r2, [r3]
 119              	.LVL7:
ARM GAS  C:\Users\Asus\AppData\Local\Temp\ccaf8y9d.s 			page 9


 338:Generated_Source\PSoC4/I2C_MPU6050_I2C_MASTER.c ****                              errStatus = I2C_MPU6050_I2C_MSTR_ERR_ARB_LOST;
 120              		.loc 1 338 0
 121 0072 0124     		movs	r4, #1
 122              	.LVL8:
 339:Generated_Source\PSoC4/I2C_MPU6050_I2C_MASTER.c ****                              resetIp   = I2C_MPU6050_I2C_RESET_ERROR;
 123              		.loc 1 339 0
 124 0074 0121     		movs	r1, #1
 125 0076 0BE0     		b	.L6
 126              	.LVL9:
 127              	.L7:
 340:Generated_Source\PSoC4/I2C_MPU6050_I2C_MASTER.c ****             }
 341:Generated_Source\PSoC4/I2C_MPU6050_I2C_MASTER.c ****             else /* I2C_MPU6050_INTR_MASTER_I2C_BUS_ERROR set is else condition */
 342:Generated_Source\PSoC4/I2C_MPU6050_I2C_MASTER.c ****             {
 343:Generated_Source\PSoC4/I2C_MPU6050_I2C_MASTER.c ****                 I2C_MPU6050_state = I2C_MPU6050_I2C_FSM_IDLE;
 128              		.loc 1 343 0
 129 0078 1022     		movs	r2, #16
 130 007a 0C4B     		ldr	r3, .L12
 131 007c 1A70     		strb	r2, [r3]
 132              	.LVL10:
 344:Generated_Source\PSoC4/I2C_MPU6050_I2C_MASTER.c ****                              errStatus = I2C_MPU6050_I2C_MSTR_ERR_BUS_ERR;
 133              		.loc 1 344 0
 134 007e 8024     		movs	r4, #128
 135              	.LVL11:
 136 0080 6400     		lsls	r4, r4, #1
 345:Generated_Source\PSoC4/I2C_MPU6050_I2C_MASTER.c ****                              resetIp   = I2C_MPU6050_I2C_RESET_ERROR;
 137              		.loc 1 345 0
 138 0082 0121     		movs	r1, #1
 139 0084 04E0     		b	.L6
 140              	.LVL12:
 141              	.L10:
 329:Generated_Source\PSoC4/I2C_MPU6050_I2C_MASTER.c ****             }
 142              		.loc 1 329 0
 143 0086 0024     		movs	r4, #0
 144              	.LVL13:
 280:Generated_Source\PSoC4/I2C_MPU6050_I2C_MASTER.c ****     errStatus = I2C_MPU6050_I2C_MSTR_NOT_READY;
 145              		.loc 1 280 0
 146 0088 0021     		movs	r1, #0
 147 008a 01E0     		b	.L6
 148              	.LVL14:
 149              	.L11:
 333:Generated_Source\PSoC4/I2C_MPU6050_I2C_MASTER.c ****             }
 150              		.loc 1 333 0
 151 008c 0224     		movs	r4, #2
 152              	.LVL15:
 280:Generated_Source\PSoC4/I2C_MPU6050_I2C_MASTER.c ****     errStatus = I2C_MPU6050_I2C_MSTR_NOT_READY;
 153              		.loc 1 280 0
 154 008e 0021     		movs	r1, #0
 155              	.LVL16:
 156              	.L6:
 346:Generated_Source\PSoC4/I2C_MPU6050_I2C_MASTER.c ****             }
 347:Generated_Source\PSoC4/I2C_MPU6050_I2C_MASTER.c **** 
 348:Generated_Source\PSoC4/I2C_MPU6050_I2C_MASTER.c ****             I2C_MPU6050_ClearMasterInterruptSource(I2C_MPU6050_INTR_MASTER_I2C_ACK      |
 157              		.loc 1 348 0
 158 0090 0822     		movs	r2, #8
 159 0092 FF32     		adds	r2, r2, #255
 160 0094 094B     		ldr	r3, .L12+16
 161 0096 1A60     		str	r2, [r3]
ARM GAS  C:\Users\Asus\AppData\Local\Temp\ccaf8y9d.s 			page 10


 349:Generated_Source\PSoC4/I2C_MPU6050_I2C_MASTER.c ****                                                         I2C_MPU6050_INTR_MASTER_I2C_NACK     |
 350:Generated_Source\PSoC4/I2C_MPU6050_I2C_MASTER.c ****                                                         I2C_MPU6050_INTR_MASTER_I2C_ARB_LOST |
 351:Generated_Source\PSoC4/I2C_MPU6050_I2C_MASTER.c ****                                                         I2C_MPU6050_INTR_MASTER_I2C_BUS_ERROR);
 352:Generated_Source\PSoC4/I2C_MPU6050_I2C_MASTER.c **** 
 353:Generated_Source\PSoC4/I2C_MPU6050_I2C_MASTER.c ****             /* Reset block in case of: LOST_ARB or BUS_ERR */
 354:Generated_Source\PSoC4/I2C_MPU6050_I2C_MASTER.c ****             if(0u != resetIp)
 162              		.loc 1 354 0
 163 0098 0029     		cmp	r1, #0
 164 009a 05D0     		beq	.L2
 355:Generated_Source\PSoC4/I2C_MPU6050_I2C_MASTER.c ****             {
 356:Generated_Source\PSoC4/I2C_MPU6050_I2C_MASTER.c ****                 I2C_MPU6050_SCB_SW_RESET;
 165              		.loc 1 356 0
 166 009c FFF7FEFF 		bl	I2C_MPU6050_I2CFwBlockReset
 167              	.LVL17:
 168 00a0 02E0     		b	.L2
 169              	.LVL18:
 170              	.L8:
 281:Generated_Source\PSoC4/I2C_MPU6050_I2C_MASTER.c **** 
 171              		.loc 1 281 0
 172 00a2 0424     		movs	r4, #4
 173 00a4 00E0     		b	.L2
 174              	.L9:
 289:Generated_Source\PSoC4/I2C_MPU6050_I2C_MASTER.c ****         }
 175              		.loc 1 289 0
 176 00a6 0824     		movs	r4, #8
 177              	.LVL19:
 178              	.L2:
 357:Generated_Source\PSoC4/I2C_MPU6050_I2C_MASTER.c ****             }
 358:Generated_Source\PSoC4/I2C_MPU6050_I2C_MASTER.c ****         }
 359:Generated_Source\PSoC4/I2C_MPU6050_I2C_MASTER.c ****     }
 360:Generated_Source\PSoC4/I2C_MPU6050_I2C_MASTER.c **** 
 361:Generated_Source\PSoC4/I2C_MPU6050_I2C_MASTER.c ****     return(errStatus);
 362:Generated_Source\PSoC4/I2C_MPU6050_I2C_MASTER.c **** }
 179              		.loc 1 362 0
 180 00a8 2000     		movs	r0, r4
 181              		@ sp needed
 182              	.LVL20:
 183              	.LVL21:
 184 00aa 70BD     		pop	{r4, r5, r6, pc}
 185              	.L13:
 186              		.align	2
 187              	.L12:
 188 00ac 00000000 		.word	I2C_MPU6050_state
 189 00b0 64002540 		.word	1076166756
 190 00b4 40022540 		.word	1076167232
 191 00b8 17030000 		.word	791
 192 00bc 000F2540 		.word	1076170496
 193 00c0 68002540 		.word	1076166760
 194              		.cfi_endproc
 195              	.LFE4:
 196              		.size	I2C_MPU6050_I2CMasterSendStart, .-I2C_MPU6050_I2CMasterSendStart
 197              		.section	.text.I2C_MPU6050_I2CMasterSendStop,"ax",%progbits
 198              		.align	2
 199              		.global	I2C_MPU6050_I2CMasterSendStop
 200              		.code	16
 201              		.thumb_func
 202              		.type	I2C_MPU6050_I2CMasterSendStop, %function
ARM GAS  C:\Users\Asus\AppData\Local\Temp\ccaf8y9d.s 			page 11


 203              	I2C_MPU6050_I2CMasterSendStop:
 204              	.LFB6:
 363:Generated_Source\PSoC4/I2C_MPU6050_I2C_MASTER.c **** 
 364:Generated_Source\PSoC4/I2C_MPU6050_I2C_MASTER.c **** 
 365:Generated_Source\PSoC4/I2C_MPU6050_I2C_MASTER.c **** /*******************************************************************************
 366:Generated_Source\PSoC4/I2C_MPU6050_I2C_MASTER.c **** * Function Name: I2C_MPU6050_I2CMasterSendRestart
 367:Generated_Source\PSoC4/I2C_MPU6050_I2C_MASTER.c **** ********************************************************************************
 368:Generated_Source\PSoC4/I2C_MPU6050_I2C_MASTER.c **** *
 369:Generated_Source\PSoC4/I2C_MPU6050_I2C_MASTER.c **** * Summary:
 370:Generated_Source\PSoC4/I2C_MPU6050_I2C_MASTER.c **** *  Generates Restart condition and sends slave address with read/write bit.
 371:Generated_Source\PSoC4/I2C_MPU6050_I2C_MASTER.c **** *  This function is blocking and does not return until start condition and
 372:Generated_Source\PSoC4/I2C_MPU6050_I2C_MASTER.c **** *  address are sent and ACK/NACK response is received or errors occurred.
 373:Generated_Source\PSoC4/I2C_MPU6050_I2C_MASTER.c **** *
 374:Generated_Source\PSoC4/I2C_MPU6050_I2C_MASTER.c **** * Parameters:
 375:Generated_Source\PSoC4/I2C_MPU6050_I2C_MASTER.c **** *  slaveAddress: Right justified 7-bit Slave address (valid range 8 to 120).
 376:Generated_Source\PSoC4/I2C_MPU6050_I2C_MASTER.c **** *  bitRnW:       Direction of the following transfer. It is defined by
 377:Generated_Source\PSoC4/I2C_MPU6050_I2C_MASTER.c **** *                read/write bit within address byte.
 378:Generated_Source\PSoC4/I2C_MPU6050_I2C_MASTER.c **** *
 379:Generated_Source\PSoC4/I2C_MPU6050_I2C_MASTER.c **** * Return:
 380:Generated_Source\PSoC4/I2C_MPU6050_I2C_MASTER.c **** *  Error status
 381:Generated_Source\PSoC4/I2C_MPU6050_I2C_MASTER.c **** *
 382:Generated_Source\PSoC4/I2C_MPU6050_I2C_MASTER.c **** *
 383:Generated_Source\PSoC4/I2C_MPU6050_I2C_MASTER.c **** * Global variables:
 384:Generated_Source\PSoC4/I2C_MPU6050_I2C_MASTER.c **** *  I2C_MPU6050_state - used to store current state of software FSM.
 385:Generated_Source\PSoC4/I2C_MPU6050_I2C_MASTER.c **** *
 386:Generated_Source\PSoC4/I2C_MPU6050_I2C_MASTER.c **** *******************************************************************************/
 387:Generated_Source\PSoC4/I2C_MPU6050_I2C_MASTER.c **** uint32 I2C_MPU6050_I2CMasterSendRestart(uint32 slaveAddress, uint32 bitRnW)
 388:Generated_Source\PSoC4/I2C_MPU6050_I2C_MASTER.c **** {
 389:Generated_Source\PSoC4/I2C_MPU6050_I2C_MASTER.c ****     uint32 resetIp;
 390:Generated_Source\PSoC4/I2C_MPU6050_I2C_MASTER.c ****     uint32 errStatus;
 391:Generated_Source\PSoC4/I2C_MPU6050_I2C_MASTER.c **** 
 392:Generated_Source\PSoC4/I2C_MPU6050_I2C_MASTER.c ****     resetIp   = 0u;
 393:Generated_Source\PSoC4/I2C_MPU6050_I2C_MASTER.c ****     errStatus = I2C_MPU6050_I2C_MSTR_NOT_READY;
 394:Generated_Source\PSoC4/I2C_MPU6050_I2C_MASTER.c **** 
 395:Generated_Source\PSoC4/I2C_MPU6050_I2C_MASTER.c ****     /* Check FSM state before generating ReStart condition */
 396:Generated_Source\PSoC4/I2C_MPU6050_I2C_MASTER.c ****     if(I2C_MPU6050_CHECK_I2C_MASTER_ACTIVE)
 397:Generated_Source\PSoC4/I2C_MPU6050_I2C_MASTER.c ****     {
 398:Generated_Source\PSoC4/I2C_MPU6050_I2C_MASTER.c ****         slaveAddress = I2C_MPU6050_GET_I2C_8BIT_ADDRESS(slaveAddress);
 399:Generated_Source\PSoC4/I2C_MPU6050_I2C_MASTER.c **** 
 400:Generated_Source\PSoC4/I2C_MPU6050_I2C_MASTER.c ****         if(0u == bitRnW) /* Write direction */
 401:Generated_Source\PSoC4/I2C_MPU6050_I2C_MASTER.c ****         {
 402:Generated_Source\PSoC4/I2C_MPU6050_I2C_MASTER.c ****             I2C_MPU6050_state = I2C_MPU6050_I2C_FSM_MSTR_WR_DATA;
 403:Generated_Source\PSoC4/I2C_MPU6050_I2C_MASTER.c ****         }
 404:Generated_Source\PSoC4/I2C_MPU6050_I2C_MASTER.c ****         else  /* Read direction */
 405:Generated_Source\PSoC4/I2C_MPU6050_I2C_MASTER.c ****         {
 406:Generated_Source\PSoC4/I2C_MPU6050_I2C_MASTER.c ****             I2C_MPU6050_state  = I2C_MPU6050_I2C_FSM_MSTR_RD_DATA;
 407:Generated_Source\PSoC4/I2C_MPU6050_I2C_MASTER.c ****                       slaveAddress |= I2C_MPU6050_I2C_READ_FLAG;
 408:Generated_Source\PSoC4/I2C_MPU6050_I2C_MASTER.c ****         }
 409:Generated_Source\PSoC4/I2C_MPU6050_I2C_MASTER.c **** 
 410:Generated_Source\PSoC4/I2C_MPU6050_I2C_MASTER.c ****         /* The TX and RX FIFO have to be EMPTY */
 411:Generated_Source\PSoC4/I2C_MPU6050_I2C_MASTER.c **** 
 412:Generated_Source\PSoC4/I2C_MPU6050_I2C_MASTER.c ****         /* Clean-up interrupt status */
 413:Generated_Source\PSoC4/I2C_MPU6050_I2C_MASTER.c ****         I2C_MPU6050_ClearMasterInterruptSource(I2C_MPU6050_INTR_MASTER_ALL);
 414:Generated_Source\PSoC4/I2C_MPU6050_I2C_MASTER.c **** 
 415:Generated_Source\PSoC4/I2C_MPU6050_I2C_MASTER.c ****         /* Proper ReStart sequence is: generate ReStart then put address byte in the TX FIFO.
 416:Generated_Source\PSoC4/I2C_MPU6050_I2C_MASTER.c ****         * Otherwise master treats address in the TX FIFO as data byte if previous transfer is write
 417:Generated_Source\PSoC4/I2C_MPU6050_I2C_MASTER.c ****         * The write transfer continue instead of ReStart.
ARM GAS  C:\Users\Asus\AppData\Local\Temp\ccaf8y9d.s 			page 12


 418:Generated_Source\PSoC4/I2C_MPU6050_I2C_MASTER.c ****         */
 419:Generated_Source\PSoC4/I2C_MPU6050_I2C_MASTER.c ****         I2C_MPU6050_I2C_MASTER_GENERATE_RESTART;
 420:Generated_Source\PSoC4/I2C_MPU6050_I2C_MASTER.c **** 
 421:Generated_Source\PSoC4/I2C_MPU6050_I2C_MASTER.c ****         while(I2C_MPU6050_CHECK_I2C_MASTER_CMD(I2C_MPU6050_I2C_MASTER_CMD_M_START))
 422:Generated_Source\PSoC4/I2C_MPU6050_I2C_MASTER.c ****         {
 423:Generated_Source\PSoC4/I2C_MPU6050_I2C_MASTER.c ****             /* Wait until ReStart has been generated */
 424:Generated_Source\PSoC4/I2C_MPU6050_I2C_MASTER.c ****         }
 425:Generated_Source\PSoC4/I2C_MPU6050_I2C_MASTER.c **** 
 426:Generated_Source\PSoC4/I2C_MPU6050_I2C_MASTER.c ****         /* Put address into TX FIFO */
 427:Generated_Source\PSoC4/I2C_MPU6050_I2C_MASTER.c ****         I2C_MPU6050_TX_FIFO_WR_REG = slaveAddress;
 428:Generated_Source\PSoC4/I2C_MPU6050_I2C_MASTER.c **** 
 429:Generated_Source\PSoC4/I2C_MPU6050_I2C_MASTER.c ****         /* Wait for address to be transferred */
 430:Generated_Source\PSoC4/I2C_MPU6050_I2C_MASTER.c ****         while(!I2C_MPU6050_CHECK_INTR_MASTER(I2C_MPU6050_INTR_MASTER_I2C_ACK      |
 431:Generated_Source\PSoC4/I2C_MPU6050_I2C_MASTER.c ****                                                   I2C_MPU6050_INTR_MASTER_I2C_NACK     |
 432:Generated_Source\PSoC4/I2C_MPU6050_I2C_MASTER.c ****                                                   I2C_MPU6050_INTR_MASTER_I2C_ARB_LOST |
 433:Generated_Source\PSoC4/I2C_MPU6050_I2C_MASTER.c ****                                                   I2C_MPU6050_INTR_MASTER_I2C_BUS_ERROR))
 434:Generated_Source\PSoC4/I2C_MPU6050_I2C_MASTER.c ****         {
 435:Generated_Source\PSoC4/I2C_MPU6050_I2C_MASTER.c ****             /* Wait until address has been transferred */
 436:Generated_Source\PSoC4/I2C_MPU6050_I2C_MASTER.c ****         }
 437:Generated_Source\PSoC4/I2C_MPU6050_I2C_MASTER.c **** 
 438:Generated_Source\PSoC4/I2C_MPU6050_I2C_MASTER.c ****         /* Check results of address phase */
 439:Generated_Source\PSoC4/I2C_MPU6050_I2C_MASTER.c ****         if(I2C_MPU6050_CHECK_INTR_MASTER(I2C_MPU6050_INTR_MASTER_I2C_ACK))
 440:Generated_Source\PSoC4/I2C_MPU6050_I2C_MASTER.c ****         {
 441:Generated_Source\PSoC4/I2C_MPU6050_I2C_MASTER.c ****             errStatus = I2C_MPU6050_I2C_MSTR_NO_ERROR;
 442:Generated_Source\PSoC4/I2C_MPU6050_I2C_MASTER.c ****         }
 443:Generated_Source\PSoC4/I2C_MPU6050_I2C_MASTER.c ****         else if(I2C_MPU6050_CHECK_INTR_MASTER(I2C_MPU6050_INTR_MASTER_I2C_NACK))
 444:Generated_Source\PSoC4/I2C_MPU6050_I2C_MASTER.c ****         {
 445:Generated_Source\PSoC4/I2C_MPU6050_I2C_MASTER.c ****              errStatus = I2C_MPU6050_I2C_MSTR_ERR_LB_NAK;
 446:Generated_Source\PSoC4/I2C_MPU6050_I2C_MASTER.c ****         }
 447:Generated_Source\PSoC4/I2C_MPU6050_I2C_MASTER.c ****         else if(I2C_MPU6050_CHECK_INTR_MASTER(I2C_MPU6050_INTR_MASTER_I2C_ARB_LOST))
 448:Generated_Source\PSoC4/I2C_MPU6050_I2C_MASTER.c ****         {
 449:Generated_Source\PSoC4/I2C_MPU6050_I2C_MASTER.c ****             I2C_MPU6050_state = I2C_MPU6050_I2C_FSM_IDLE;
 450:Generated_Source\PSoC4/I2C_MPU6050_I2C_MASTER.c ****                          errStatus = I2C_MPU6050_I2C_MSTR_ERR_ARB_LOST;
 451:Generated_Source\PSoC4/I2C_MPU6050_I2C_MASTER.c ****                          resetIp   = I2C_MPU6050_I2C_RESET_ERROR;
 452:Generated_Source\PSoC4/I2C_MPU6050_I2C_MASTER.c ****         }
 453:Generated_Source\PSoC4/I2C_MPU6050_I2C_MASTER.c ****         else /* I2C_MPU6050_INTR_MASTER_I2C_BUS_ERROR set is else condition */
 454:Generated_Source\PSoC4/I2C_MPU6050_I2C_MASTER.c ****         {
 455:Generated_Source\PSoC4/I2C_MPU6050_I2C_MASTER.c ****             I2C_MPU6050_state = I2C_MPU6050_I2C_FSM_IDLE;
 456:Generated_Source\PSoC4/I2C_MPU6050_I2C_MASTER.c ****                          errStatus = I2C_MPU6050_I2C_MSTR_ERR_BUS_ERR;
 457:Generated_Source\PSoC4/I2C_MPU6050_I2C_MASTER.c ****                          resetIp   = I2C_MPU6050_I2C_RESET_ERROR;
 458:Generated_Source\PSoC4/I2C_MPU6050_I2C_MASTER.c ****         }
 459:Generated_Source\PSoC4/I2C_MPU6050_I2C_MASTER.c **** 
 460:Generated_Source\PSoC4/I2C_MPU6050_I2C_MASTER.c ****         I2C_MPU6050_ClearMasterInterruptSource(I2C_MPU6050_INTR_MASTER_I2C_ACK      |
 461:Generated_Source\PSoC4/I2C_MPU6050_I2C_MASTER.c ****                                                     I2C_MPU6050_INTR_MASTER_I2C_NACK     |
 462:Generated_Source\PSoC4/I2C_MPU6050_I2C_MASTER.c ****                                                     I2C_MPU6050_INTR_MASTER_I2C_ARB_LOST |
 463:Generated_Source\PSoC4/I2C_MPU6050_I2C_MASTER.c ****                                                     I2C_MPU6050_INTR_MASTER_I2C_BUS_ERROR);
 464:Generated_Source\PSoC4/I2C_MPU6050_I2C_MASTER.c **** 
 465:Generated_Source\PSoC4/I2C_MPU6050_I2C_MASTER.c ****         /* Reset block in case of: LOST_ARB or BUS_ERR */
 466:Generated_Source\PSoC4/I2C_MPU6050_I2C_MASTER.c ****         if(0u != resetIp)
 467:Generated_Source\PSoC4/I2C_MPU6050_I2C_MASTER.c ****         {
 468:Generated_Source\PSoC4/I2C_MPU6050_I2C_MASTER.c ****             I2C_MPU6050_SCB_SW_RESET;
 469:Generated_Source\PSoC4/I2C_MPU6050_I2C_MASTER.c ****         }
 470:Generated_Source\PSoC4/I2C_MPU6050_I2C_MASTER.c ****     }
 471:Generated_Source\PSoC4/I2C_MPU6050_I2C_MASTER.c **** 
 472:Generated_Source\PSoC4/I2C_MPU6050_I2C_MASTER.c ****     return(errStatus);
 473:Generated_Source\PSoC4/I2C_MPU6050_I2C_MASTER.c **** }
 474:Generated_Source\PSoC4/I2C_MPU6050_I2C_MASTER.c **** 
ARM GAS  C:\Users\Asus\AppData\Local\Temp\ccaf8y9d.s 			page 13


 475:Generated_Source\PSoC4/I2C_MPU6050_I2C_MASTER.c **** 
 476:Generated_Source\PSoC4/I2C_MPU6050_I2C_MASTER.c **** /*******************************************************************************
 477:Generated_Source\PSoC4/I2C_MPU6050_I2C_MASTER.c **** * Function Name: I2C_MPU6050_I2CMasterSendStop
 478:Generated_Source\PSoC4/I2C_MPU6050_I2C_MASTER.c **** ********************************************************************************
 479:Generated_Source\PSoC4/I2C_MPU6050_I2C_MASTER.c **** *
 480:Generated_Source\PSoC4/I2C_MPU6050_I2C_MASTER.c **** * Summary:
 481:Generated_Source\PSoC4/I2C_MPU6050_I2C_MASTER.c **** *  Generates Stop condition on the bus.
 482:Generated_Source\PSoC4/I2C_MPU6050_I2C_MASTER.c **** *  At least one byte has to be read if start or restart condition with read
 483:Generated_Source\PSoC4/I2C_MPU6050_I2C_MASTER.c **** *  direction was generated before.
 484:Generated_Source\PSoC4/I2C_MPU6050_I2C_MASTER.c **** *  This function is blocking and does not return until a stop condition
 485:Generated_Source\PSoC4/I2C_MPU6050_I2C_MASTER.c **** *  is generated or error occurred.
 486:Generated_Source\PSoC4/I2C_MPU6050_I2C_MASTER.c **** *
 487:Generated_Source\PSoC4/I2C_MPU6050_I2C_MASTER.c **** * Parameters:
 488:Generated_Source\PSoC4/I2C_MPU6050_I2C_MASTER.c **** *  None
 489:Generated_Source\PSoC4/I2C_MPU6050_I2C_MASTER.c **** *
 490:Generated_Source\PSoC4/I2C_MPU6050_I2C_MASTER.c **** * Return:
 491:Generated_Source\PSoC4/I2C_MPU6050_I2C_MASTER.c **** *  Error status
 492:Generated_Source\PSoC4/I2C_MPU6050_I2C_MASTER.c **** *
 493:Generated_Source\PSoC4/I2C_MPU6050_I2C_MASTER.c **** * Side Effects:
 494:Generated_Source\PSoC4/I2C_MPU6050_I2C_MASTER.c **** *  A valid Start or ReStart condition must be generated before calling
 495:Generated_Source\PSoC4/I2C_MPU6050_I2C_MASTER.c **** *  this function. This function does nothing if Start or ReStart condition
 496:Generated_Source\PSoC4/I2C_MPU6050_I2C_MASTER.c **** *  failed before this function was called.
 497:Generated_Source\PSoC4/I2C_MPU6050_I2C_MASTER.c **** *  For read transfer, at least one byte has to be read before Stop generation.
 498:Generated_Source\PSoC4/I2C_MPU6050_I2C_MASTER.c **** *
 499:Generated_Source\PSoC4/I2C_MPU6050_I2C_MASTER.c **** * Global variables:
 500:Generated_Source\PSoC4/I2C_MPU6050_I2C_MASTER.c **** *  I2C_MPU6050_state - used to store current state of software FSM.
 501:Generated_Source\PSoC4/I2C_MPU6050_I2C_MASTER.c **** *
 502:Generated_Source\PSoC4/I2C_MPU6050_I2C_MASTER.c **** *******************************************************************************/
 503:Generated_Source\PSoC4/I2C_MPU6050_I2C_MASTER.c **** uint32 I2C_MPU6050_I2CMasterSendStop(void)
 504:Generated_Source\PSoC4/I2C_MPU6050_I2C_MASTER.c **** {
 205              		.loc 1 504 0
 206              		.cfi_startproc
 207              		@ args = 0, pretend = 0, frame = 0
 208              		@ frame_needed = 0, uses_anonymous_args = 0
 209 0000 10B5     		push	{r4, lr}
 210              		.cfi_def_cfa_offset 8
 211              		.cfi_offset 4, -8
 212              		.cfi_offset 14, -4
 213              	.LVL22:
 505:Generated_Source\PSoC4/I2C_MPU6050_I2C_MASTER.c ****     uint32 resetIp;
 506:Generated_Source\PSoC4/I2C_MPU6050_I2C_MASTER.c ****     uint32 errStatus;
 507:Generated_Source\PSoC4/I2C_MPU6050_I2C_MASTER.c **** 
 508:Generated_Source\PSoC4/I2C_MPU6050_I2C_MASTER.c ****     resetIp   = 0u;
 509:Generated_Source\PSoC4/I2C_MPU6050_I2C_MASTER.c ****     errStatus = I2C_MPU6050_I2C_MSTR_NOT_READY;
 510:Generated_Source\PSoC4/I2C_MPU6050_I2C_MASTER.c **** 
 511:Generated_Source\PSoC4/I2C_MPU6050_I2C_MASTER.c ****     /* Check FSM state before generating Stop condition */
 512:Generated_Source\PSoC4/I2C_MPU6050_I2C_MASTER.c ****     if(I2C_MPU6050_CHECK_I2C_MASTER_ACTIVE)
 214              		.loc 1 512 0
 215 0002 1A4B     		ldr	r3, .L23
 216 0004 1B78     		ldrb	r3, [r3]
 217 0006 9B06     		lsls	r3, r3, #26
 218 0008 2CD5     		bpl	.L19
 513:Generated_Source\PSoC4/I2C_MPU6050_I2C_MASTER.c ****     {
 514:Generated_Source\PSoC4/I2C_MPU6050_I2C_MASTER.c ****         /*
 515:Generated_Source\PSoC4/I2C_MPU6050_I2C_MASTER.c ****         * Write direction: generates Stop
 516:Generated_Source\PSoC4/I2C_MPU6050_I2C_MASTER.c ****         * Read  direction: generates NACK and Stop
 517:Generated_Source\PSoC4/I2C_MPU6050_I2C_MASTER.c ****         */
ARM GAS  C:\Users\Asus\AppData\Local\Temp\ccaf8y9d.s 			page 14


 518:Generated_Source\PSoC4/I2C_MPU6050_I2C_MASTER.c ****         I2C_MPU6050_I2C_MASTER_GENERATE_STOP;
 219              		.loc 1 518 0
 220 000a 194B     		ldr	r3, .L23+4
 221 000c 1B68     		ldr	r3, [r3]
 222 000e 9B06     		lsls	r3, r3, #26
 223 0010 01D5     		bpl	.L20
 224 0012 1822     		movs	r2, #24
 225 0014 00E0     		b	.L16
 226              	.L20:
 227 0016 1022     		movs	r2, #16
 228              	.L16:
 229              		.loc 1 518 0 is_stmt 0 discriminator 4
 230 0018 164B     		ldr	r3, .L23+8
 231 001a 1A60     		str	r2, [r3]
 232              	.L17:
 519:Generated_Source\PSoC4/I2C_MPU6050_I2C_MASTER.c **** 
 520:Generated_Source\PSoC4/I2C_MPU6050_I2C_MASTER.c ****         while(!I2C_MPU6050_CHECK_INTR_MASTER(I2C_MPU6050_INTR_MASTER_I2C_STOP     |
 233              		.loc 1 520 0 is_stmt 1 discriminator 1
 234 001c 164B     		ldr	r3, .L23+12
 235 001e 1A68     		ldr	r2, [r3]
 236 0020 1223     		movs	r3, #18
 237 0022 FF33     		adds	r3, r3, #255
 238 0024 1A42     		tst	r2, r3
 239 0026 F9D0     		beq	.L17
 521:Generated_Source\PSoC4/I2C_MPU6050_I2C_MASTER.c ****                                                   I2C_MPU6050_INTR_MASTER_I2C_ARB_LOST |
 522:Generated_Source\PSoC4/I2C_MPU6050_I2C_MASTER.c ****                                                   I2C_MPU6050_INTR_MASTER_I2C_BUS_ERROR))
 523:Generated_Source\PSoC4/I2C_MPU6050_I2C_MASTER.c ****         {
 524:Generated_Source\PSoC4/I2C_MPU6050_I2C_MASTER.c ****             /* Wait until Stop has been generated */
 525:Generated_Source\PSoC4/I2C_MPU6050_I2C_MASTER.c ****         }
 526:Generated_Source\PSoC4/I2C_MPU6050_I2C_MASTER.c **** 
 527:Generated_Source\PSoC4/I2C_MPU6050_I2C_MASTER.c ****         /* Check Stop generation */
 528:Generated_Source\PSoC4/I2C_MPU6050_I2C_MASTER.c ****         if(I2C_MPU6050_CHECK_INTR_MASTER(I2C_MPU6050_INTR_MASTER_I2C_STOP))
 240              		.loc 1 528 0
 241 0028 134B     		ldr	r3, .L23+12
 242 002a 1B68     		ldr	r3, [r3]
 243 002c DB06     		lsls	r3, r3, #27
 244 002e 06D4     		bmi	.L21
 529:Generated_Source\PSoC4/I2C_MPU6050_I2C_MASTER.c ****         {
 530:Generated_Source\PSoC4/I2C_MPU6050_I2C_MASTER.c ****             errStatus = I2C_MPU6050_I2C_MSTR_NO_ERROR;
 531:Generated_Source\PSoC4/I2C_MPU6050_I2C_MASTER.c ****         }
 532:Generated_Source\PSoC4/I2C_MPU6050_I2C_MASTER.c ****         else if(I2C_MPU6050_CHECK_INTR_MASTER(I2C_MPU6050_INTR_MASTER_I2C_ARB_LOST))
 245              		.loc 1 532 0
 246 0030 114B     		ldr	r3, .L23+12
 247 0032 1B68     		ldr	r3, [r3]
 248 0034 DB07     		lsls	r3, r3, #31
 249 0036 05D5     		bpl	.L22
 533:Generated_Source\PSoC4/I2C_MPU6050_I2C_MASTER.c ****         {
 534:Generated_Source\PSoC4/I2C_MPU6050_I2C_MASTER.c ****             errStatus = I2C_MPU6050_I2C_MSTR_ERR_ARB_LOST;
 250              		.loc 1 534 0
 251 0038 0124     		movs	r4, #1
 535:Generated_Source\PSoC4/I2C_MPU6050_I2C_MASTER.c ****             resetIp   = I2C_MPU6050_I2C_RESET_ERROR;
 252              		.loc 1 535 0
 253 003a 0121     		movs	r1, #1
 254 003c 05E0     		b	.L18
 255              	.L21:
 530:Generated_Source\PSoC4/I2C_MPU6050_I2C_MASTER.c ****         }
 256              		.loc 1 530 0
ARM GAS  C:\Users\Asus\AppData\Local\Temp\ccaf8y9d.s 			page 15


 257 003e 0024     		movs	r4, #0
 508:Generated_Source\PSoC4/I2C_MPU6050_I2C_MASTER.c ****     errStatus = I2C_MPU6050_I2C_MSTR_NOT_READY;
 258              		.loc 1 508 0
 259 0040 0021     		movs	r1, #0
 260 0042 02E0     		b	.L18
 261              	.L22:
 536:Generated_Source\PSoC4/I2C_MPU6050_I2C_MASTER.c ****         }
 537:Generated_Source\PSoC4/I2C_MPU6050_I2C_MASTER.c ****         else /* I2C_MPU6050_INTR_MASTER_I2C_BUS_ERROR is set */
 538:Generated_Source\PSoC4/I2C_MPU6050_I2C_MASTER.c ****         {
 539:Generated_Source\PSoC4/I2C_MPU6050_I2C_MASTER.c ****             errStatus = I2C_MPU6050_I2C_MSTR_ERR_BUS_ERR;
 262              		.loc 1 539 0
 263 0044 8024     		movs	r4, #128
 264 0046 6400     		lsls	r4, r4, #1
 540:Generated_Source\PSoC4/I2C_MPU6050_I2C_MASTER.c ****             resetIp   = I2C_MPU6050_I2C_RESET_ERROR;
 265              		.loc 1 540 0
 266 0048 0121     		movs	r1, #1
 267              	.L18:
 268              	.LVL23:
 541:Generated_Source\PSoC4/I2C_MPU6050_I2C_MASTER.c ****         }
 542:Generated_Source\PSoC4/I2C_MPU6050_I2C_MASTER.c **** 
 543:Generated_Source\PSoC4/I2C_MPU6050_I2C_MASTER.c ****         I2C_MPU6050_ClearMasterInterruptSource(I2C_MPU6050_INTR_MASTER_I2C_STOP     |
 269              		.loc 1 543 0
 270 004a 1222     		movs	r2, #18
 271 004c FF32     		adds	r2, r2, #255
 272 004e 0A4B     		ldr	r3, .L23+12
 273 0050 1A60     		str	r2, [r3]
 544:Generated_Source\PSoC4/I2C_MPU6050_I2C_MASTER.c ****                                                     I2C_MPU6050_INTR_MASTER_I2C_ARB_LOST |
 545:Generated_Source\PSoC4/I2C_MPU6050_I2C_MASTER.c ****                                                     I2C_MPU6050_INTR_MASTER_I2C_BUS_ERROR);
 546:Generated_Source\PSoC4/I2C_MPU6050_I2C_MASTER.c **** 
 547:Generated_Source\PSoC4/I2C_MPU6050_I2C_MASTER.c ****         I2C_MPU6050_state = I2C_MPU6050_I2C_FSM_IDLE;
 274              		.loc 1 547 0
 275 0052 023A     		subs	r2, r2, #2
 276 0054 FF3A     		subs	r2, r2, #255
 277 0056 054B     		ldr	r3, .L23
 278 0058 1A70     		strb	r2, [r3]
 548:Generated_Source\PSoC4/I2C_MPU6050_I2C_MASTER.c **** 
 549:Generated_Source\PSoC4/I2C_MPU6050_I2C_MASTER.c ****         /* Reset block in case of: LOST_ARB or BUS_ERR */
 550:Generated_Source\PSoC4/I2C_MPU6050_I2C_MASTER.c ****         if(0u != resetIp)
 279              		.loc 1 550 0
 280 005a 0029     		cmp	r1, #0
 281 005c 03D0     		beq	.L15
 551:Generated_Source\PSoC4/I2C_MPU6050_I2C_MASTER.c ****         {
 552:Generated_Source\PSoC4/I2C_MPU6050_I2C_MASTER.c ****             I2C_MPU6050_SCB_SW_RESET;
 282              		.loc 1 552 0
 283 005e FFF7FEFF 		bl	I2C_MPU6050_I2CFwBlockReset
 284              	.LVL24:
 285 0062 00E0     		b	.L15
 286              	.LVL25:
 287              	.L19:
 509:Generated_Source\PSoC4/I2C_MPU6050_I2C_MASTER.c **** 
 288              		.loc 1 509 0
 289 0064 0424     		movs	r4, #4
 290              	.LVL26:
 291              	.L15:
 553:Generated_Source\PSoC4/I2C_MPU6050_I2C_MASTER.c ****         }
 554:Generated_Source\PSoC4/I2C_MPU6050_I2C_MASTER.c ****     }
 555:Generated_Source\PSoC4/I2C_MPU6050_I2C_MASTER.c **** 
ARM GAS  C:\Users\Asus\AppData\Local\Temp\ccaf8y9d.s 			page 16


 556:Generated_Source\PSoC4/I2C_MPU6050_I2C_MASTER.c ****     return(errStatus);
 557:Generated_Source\PSoC4/I2C_MPU6050_I2C_MASTER.c **** }
 292              		.loc 1 557 0
 293 0066 2000     		movs	r0, r4
 294              		@ sp needed
 295              	.LVL27:
 296 0068 10BD     		pop	{r4, pc}
 297              	.L24:
 298 006a C046     		.align	2
 299              	.L23:
 300 006c 00000000 		.word	I2C_MPU6050_state
 301 0070 64002540 		.word	1076166756
 302 0074 68002540 		.word	1076166760
 303 0078 000F2540 		.word	1076170496
 304              		.cfi_endproc
 305              	.LFE6:
 306              		.size	I2C_MPU6050_I2CMasterSendStop, .-I2C_MPU6050_I2CMasterSendStop
 307              		.section	.text.I2C_MPU6050_I2CMasterWriteByte,"ax",%progbits
 308              		.align	2
 309              		.global	I2C_MPU6050_I2CMasterWriteByte
 310              		.code	16
 311              		.thumb_func
 312              		.type	I2C_MPU6050_I2CMasterWriteByte, %function
 313              	I2C_MPU6050_I2CMasterWriteByte:
 314              	.LFB7:
 558:Generated_Source\PSoC4/I2C_MPU6050_I2C_MASTER.c **** 
 559:Generated_Source\PSoC4/I2C_MPU6050_I2C_MASTER.c **** 
 560:Generated_Source\PSoC4/I2C_MPU6050_I2C_MASTER.c **** /*******************************************************************************
 561:Generated_Source\PSoC4/I2C_MPU6050_I2C_MASTER.c **** * Function Name: I2C_MPU6050_I2CMasterWriteByte
 562:Generated_Source\PSoC4/I2C_MPU6050_I2C_MASTER.c **** ********************************************************************************
 563:Generated_Source\PSoC4/I2C_MPU6050_I2C_MASTER.c **** *
 564:Generated_Source\PSoC4/I2C_MPU6050_I2C_MASTER.c **** * Summary:
 565:Generated_Source\PSoC4/I2C_MPU6050_I2C_MASTER.c **** *  Sends one byte to a slave.
 566:Generated_Source\PSoC4/I2C_MPU6050_I2C_MASTER.c **** *  This function is blocking and does not return until byte is transmitted
 567:Generated_Source\PSoC4/I2C_MPU6050_I2C_MASTER.c **** *  or error occurred.
 568:Generated_Source\PSoC4/I2C_MPU6050_I2C_MASTER.c **** *
 569:Generated_Source\PSoC4/I2C_MPU6050_I2C_MASTER.c **** * Parameters:
 570:Generated_Source\PSoC4/I2C_MPU6050_I2C_MASTER.c **** *  data: The data byte to send to the slave.
 571:Generated_Source\PSoC4/I2C_MPU6050_I2C_MASTER.c **** *
 572:Generated_Source\PSoC4/I2C_MPU6050_I2C_MASTER.c **** * Return:
 573:Generated_Source\PSoC4/I2C_MPU6050_I2C_MASTER.c **** *  Error status
 574:Generated_Source\PSoC4/I2C_MPU6050_I2C_MASTER.c **** *
 575:Generated_Source\PSoC4/I2C_MPU6050_I2C_MASTER.c **** * Side Effects:
 576:Generated_Source\PSoC4/I2C_MPU6050_I2C_MASTER.c **** *  A valid Start or ReStart condition must be generated before calling
 577:Generated_Source\PSoC4/I2C_MPU6050_I2C_MASTER.c **** *  this function. This function does nothing if Start or ReStart condition
 578:Generated_Source\PSoC4/I2C_MPU6050_I2C_MASTER.c **** *  failed before this function was called.
 579:Generated_Source\PSoC4/I2C_MPU6050_I2C_MASTER.c **** *
 580:Generated_Source\PSoC4/I2C_MPU6050_I2C_MASTER.c **** * Global variables:
 581:Generated_Source\PSoC4/I2C_MPU6050_I2C_MASTER.c **** *  I2C_MPU6050_state - used to store current state of software FSM.
 582:Generated_Source\PSoC4/I2C_MPU6050_I2C_MASTER.c **** *
 583:Generated_Source\PSoC4/I2C_MPU6050_I2C_MASTER.c **** *******************************************************************************/
 584:Generated_Source\PSoC4/I2C_MPU6050_I2C_MASTER.c **** uint32 I2C_MPU6050_I2CMasterWriteByte(uint32 theByte)
 585:Generated_Source\PSoC4/I2C_MPU6050_I2C_MASTER.c **** {
 315              		.loc 1 585 0
 316              		.cfi_startproc
 317              		@ args = 0, pretend = 0, frame = 0
 318              		@ frame_needed = 0, uses_anonymous_args = 0
ARM GAS  C:\Users\Asus\AppData\Local\Temp\ccaf8y9d.s 			page 17


 319              	.LVL28:
 320 0000 10B5     		push	{r4, lr}
 321              		.cfi_def_cfa_offset 8
 322              		.cfi_offset 4, -8
 323              		.cfi_offset 14, -4
 324              	.LVL29:
 586:Generated_Source\PSoC4/I2C_MPU6050_I2C_MASTER.c ****     uint32 resetIp;
 587:Generated_Source\PSoC4/I2C_MPU6050_I2C_MASTER.c ****     uint32 errStatus;
 588:Generated_Source\PSoC4/I2C_MPU6050_I2C_MASTER.c **** 
 589:Generated_Source\PSoC4/I2C_MPU6050_I2C_MASTER.c ****     resetIp   = 0u;
 590:Generated_Source\PSoC4/I2C_MPU6050_I2C_MASTER.c ****     errStatus = I2C_MPU6050_I2C_MSTR_NOT_READY;
 591:Generated_Source\PSoC4/I2C_MPU6050_I2C_MASTER.c **** 
 592:Generated_Source\PSoC4/I2C_MPU6050_I2C_MASTER.c ****     /* Check FSM state before write byte */
 593:Generated_Source\PSoC4/I2C_MPU6050_I2C_MASTER.c ****     if(I2C_MPU6050_CHECK_I2C_MASTER_ACTIVE)
 325              		.loc 1 593 0
 326 0002 1E4B     		ldr	r3, .L33
 327 0004 1B78     		ldrb	r3, [r3]
 328 0006 9B06     		lsls	r3, r3, #26
 329 0008 34D5     		bpl	.L32
 594:Generated_Source\PSoC4/I2C_MPU6050_I2C_MASTER.c ****     {
 595:Generated_Source\PSoC4/I2C_MPU6050_I2C_MASTER.c ****         I2C_MPU6050_TX_FIFO_WR_REG = theByte;
 330              		.loc 1 595 0
 331 000a 1D4B     		ldr	r3, .L33+4
 332 000c 1860     		str	r0, [r3]
 333              	.L27:
 596:Generated_Source\PSoC4/I2C_MPU6050_I2C_MASTER.c **** 
 597:Generated_Source\PSoC4/I2C_MPU6050_I2C_MASTER.c ****         while(!I2C_MPU6050_CHECK_INTR_MASTER(I2C_MPU6050_INTR_MASTER_I2C_ACK      |
 334              		.loc 1 597 0 discriminator 1
 335 000e 1D4B     		ldr	r3, .L33+8
 336 0010 1A68     		ldr	r2, [r3]
 337 0012 0823     		movs	r3, #8
 338 0014 FF33     		adds	r3, r3, #255
 339 0016 1A42     		tst	r2, r3
 340 0018 F9D0     		beq	.L27
 598:Generated_Source\PSoC4/I2C_MPU6050_I2C_MASTER.c ****                                                   I2C_MPU6050_INTR_MASTER_I2C_NACK     |
 599:Generated_Source\PSoC4/I2C_MPU6050_I2C_MASTER.c ****                                                   I2C_MPU6050_INTR_MASTER_I2C_ARB_LOST |
 600:Generated_Source\PSoC4/I2C_MPU6050_I2C_MASTER.c ****                                                   I2C_MPU6050_INTR_MASTER_I2C_BUS_ERROR))
 601:Generated_Source\PSoC4/I2C_MPU6050_I2C_MASTER.c ****         {
 602:Generated_Source\PSoC4/I2C_MPU6050_I2C_MASTER.c ****             /* Wait until byte has been transferred */
 603:Generated_Source\PSoC4/I2C_MPU6050_I2C_MASTER.c ****         }
 604:Generated_Source\PSoC4/I2C_MPU6050_I2C_MASTER.c **** 
 605:Generated_Source\PSoC4/I2C_MPU6050_I2C_MASTER.c ****         /* Check the results after byte was sent */
 606:Generated_Source\PSoC4/I2C_MPU6050_I2C_MASTER.c ****         if(I2C_MPU6050_CHECK_INTR_MASTER(I2C_MPU6050_INTR_MASTER_I2C_ACK))
 341              		.loc 1 606 0
 342 001a 1A4B     		ldr	r3, .L33+8
 343 001c 1B68     		ldr	r3, [r3]
 344 001e 5B07     		lsls	r3, r3, #29
 345 0020 05D5     		bpl	.L28
 607:Generated_Source\PSoC4/I2C_MPU6050_I2C_MASTER.c ****         {
 608:Generated_Source\PSoC4/I2C_MPU6050_I2C_MASTER.c ****             I2C_MPU6050_state = I2C_MPU6050_I2C_FSM_MSTR_HALT;
 346              		.loc 1 608 0
 347 0022 6022     		movs	r2, #96
 348 0024 154B     		ldr	r3, .L33
 349 0026 1A70     		strb	r2, [r3]
 350              	.LVL30:
 609:Generated_Source\PSoC4/I2C_MPU6050_I2C_MASTER.c ****                          errStatus = I2C_MPU6050_I2C_MSTR_NO_ERROR;
 351              		.loc 1 609 0
ARM GAS  C:\Users\Asus\AppData\Local\Temp\ccaf8y9d.s 			page 18


 352 0028 0024     		movs	r4, #0
 589:Generated_Source\PSoC4/I2C_MPU6050_I2C_MASTER.c ****     errStatus = I2C_MPU6050_I2C_MSTR_NOT_READY;
 353              		.loc 1 589 0
 354 002a 0021     		movs	r1, #0
 355 002c 19E0     		b	.L29
 356              	.LVL31:
 357              	.L28:
 610:Generated_Source\PSoC4/I2C_MPU6050_I2C_MASTER.c ****         }
 611:Generated_Source\PSoC4/I2C_MPU6050_I2C_MASTER.c ****         else if(I2C_MPU6050_CHECK_INTR_MASTER(I2C_MPU6050_INTR_MASTER_I2C_NACK))
 358              		.loc 1 611 0
 359 002e 154B     		ldr	r3, .L33+8
 360 0030 1B68     		ldr	r3, [r3]
 361 0032 9B07     		lsls	r3, r3, #30
 362 0034 05D5     		bpl	.L30
 612:Generated_Source\PSoC4/I2C_MPU6050_I2C_MASTER.c ****         {
 613:Generated_Source\PSoC4/I2C_MPU6050_I2C_MASTER.c ****             I2C_MPU6050_state = I2C_MPU6050_I2C_FSM_MSTR_HALT;
 363              		.loc 1 613 0
 364 0036 6022     		movs	r2, #96
 365 0038 104B     		ldr	r3, .L33
 366 003a 1A70     		strb	r2, [r3]
 367              	.LVL32:
 614:Generated_Source\PSoC4/I2C_MPU6050_I2C_MASTER.c ****                          errStatus = I2C_MPU6050_I2C_MSTR_ERR_LB_NAK;
 368              		.loc 1 614 0
 369 003c 0224     		movs	r4, #2
 589:Generated_Source\PSoC4/I2C_MPU6050_I2C_MASTER.c ****     errStatus = I2C_MPU6050_I2C_MSTR_NOT_READY;
 370              		.loc 1 589 0
 371 003e 0021     		movs	r1, #0
 372 0040 0FE0     		b	.L29
 373              	.LVL33:
 374              	.L30:
 615:Generated_Source\PSoC4/I2C_MPU6050_I2C_MASTER.c ****         }
 616:Generated_Source\PSoC4/I2C_MPU6050_I2C_MASTER.c ****         else if(I2C_MPU6050_CHECK_INTR_MASTER(I2C_MPU6050_INTR_MASTER_I2C_ARB_LOST))
 375              		.loc 1 616 0
 376 0042 104B     		ldr	r3, .L33+8
 377 0044 1B68     		ldr	r3, [r3]
 378 0046 DB07     		lsls	r3, r3, #31
 379 0048 05D5     		bpl	.L31
 617:Generated_Source\PSoC4/I2C_MPU6050_I2C_MASTER.c ****         {
 618:Generated_Source\PSoC4/I2C_MPU6050_I2C_MASTER.c ****             I2C_MPU6050_state = I2C_MPU6050_I2C_FSM_IDLE;
 380              		.loc 1 618 0
 381 004a 1022     		movs	r2, #16
 382 004c 0B4B     		ldr	r3, .L33
 383 004e 1A70     		strb	r2, [r3]
 384              	.LVL34:
 619:Generated_Source\PSoC4/I2C_MPU6050_I2C_MASTER.c ****                          errStatus = I2C_MPU6050_I2C_MSTR_ERR_ARB_LOST;
 385              		.loc 1 619 0
 386 0050 0124     		movs	r4, #1
 620:Generated_Source\PSoC4/I2C_MPU6050_I2C_MASTER.c ****                          resetIp   = I2C_MPU6050_I2C_RESET_ERROR;
 387              		.loc 1 620 0
 388 0052 0121     		movs	r1, #1
 389 0054 05E0     		b	.L29
 390              	.LVL35:
 391              	.L31:
 621:Generated_Source\PSoC4/I2C_MPU6050_I2C_MASTER.c ****         }
 622:Generated_Source\PSoC4/I2C_MPU6050_I2C_MASTER.c ****         else /* I2C_MPU6050_INTR_MASTER_I2C_BUS_ERROR set is */
 623:Generated_Source\PSoC4/I2C_MPU6050_I2C_MASTER.c ****         {
 624:Generated_Source\PSoC4/I2C_MPU6050_I2C_MASTER.c ****             I2C_MPU6050_state = I2C_MPU6050_I2C_FSM_IDLE;
ARM GAS  C:\Users\Asus\AppData\Local\Temp\ccaf8y9d.s 			page 19


 392              		.loc 1 624 0
 393 0056 1022     		movs	r2, #16
 394 0058 084B     		ldr	r3, .L33
 395 005a 1A70     		strb	r2, [r3]
 396              	.LVL36:
 625:Generated_Source\PSoC4/I2C_MPU6050_I2C_MASTER.c ****                          errStatus = I2C_MPU6050_I2C_MSTR_ERR_BUS_ERR;
 397              		.loc 1 625 0
 398 005c 8024     		movs	r4, #128
 399 005e 6400     		lsls	r4, r4, #1
 626:Generated_Source\PSoC4/I2C_MPU6050_I2C_MASTER.c ****                          resetIp   = I2C_MPU6050_I2C_RESET_ERROR;
 400              		.loc 1 626 0
 401 0060 0121     		movs	r1, #1
 402              	.LVL37:
 403              	.L29:
 627:Generated_Source\PSoC4/I2C_MPU6050_I2C_MASTER.c ****         }
 628:Generated_Source\PSoC4/I2C_MPU6050_I2C_MASTER.c **** 
 629:Generated_Source\PSoC4/I2C_MPU6050_I2C_MASTER.c ****         I2C_MPU6050_ClearMasterInterruptSource(I2C_MPU6050_INTR_MASTER_I2C_ACK      |
 404              		.loc 1 629 0
 405 0062 0822     		movs	r2, #8
 406 0064 FF32     		adds	r2, r2, #255
 407 0066 074B     		ldr	r3, .L33+8
 408 0068 1A60     		str	r2, [r3]
 630:Generated_Source\PSoC4/I2C_MPU6050_I2C_MASTER.c ****                                                     I2C_MPU6050_INTR_MASTER_I2C_NACK     |
 631:Generated_Source\PSoC4/I2C_MPU6050_I2C_MASTER.c ****                                                     I2C_MPU6050_INTR_MASTER_I2C_ARB_LOST |
 632:Generated_Source\PSoC4/I2C_MPU6050_I2C_MASTER.c ****                                                     I2C_MPU6050_INTR_MASTER_I2C_BUS_ERROR);
 633:Generated_Source\PSoC4/I2C_MPU6050_I2C_MASTER.c **** 
 634:Generated_Source\PSoC4/I2C_MPU6050_I2C_MASTER.c ****         /* Reset block in case of: LOST_ARB or BUS_ERR */
 635:Generated_Source\PSoC4/I2C_MPU6050_I2C_MASTER.c ****         if(0u != resetIp)
 409              		.loc 1 635 0
 410 006a 0029     		cmp	r1, #0
 411 006c 03D0     		beq	.L26
 636:Generated_Source\PSoC4/I2C_MPU6050_I2C_MASTER.c ****         {
 637:Generated_Source\PSoC4/I2C_MPU6050_I2C_MASTER.c ****             I2C_MPU6050_SCB_SW_RESET;
 412              		.loc 1 637 0
 413 006e FFF7FEFF 		bl	I2C_MPU6050_I2CFwBlockReset
 414              	.LVL38:
 415 0072 00E0     		b	.L26
 416              	.LVL39:
 417              	.L32:
 590:Generated_Source\PSoC4/I2C_MPU6050_I2C_MASTER.c **** 
 418              		.loc 1 590 0
 419 0074 0424     		movs	r4, #4
 420              	.LVL40:
 421              	.L26:
 638:Generated_Source\PSoC4/I2C_MPU6050_I2C_MASTER.c ****         }
 639:Generated_Source\PSoC4/I2C_MPU6050_I2C_MASTER.c ****     }
 640:Generated_Source\PSoC4/I2C_MPU6050_I2C_MASTER.c **** 
 641:Generated_Source\PSoC4/I2C_MPU6050_I2C_MASTER.c ****     return(errStatus);
 642:Generated_Source\PSoC4/I2C_MPU6050_I2C_MASTER.c **** }
 422              		.loc 1 642 0
 423 0076 2000     		movs	r0, r4
 424              		@ sp needed
 425              	.LVL41:
 426 0078 10BD     		pop	{r4, pc}
 427              	.L34:
 428 007a C046     		.align	2
 429              	.L33:
ARM GAS  C:\Users\Asus\AppData\Local\Temp\ccaf8y9d.s 			page 20


 430 007c 00000000 		.word	I2C_MPU6050_state
 431 0080 40022540 		.word	1076167232
 432 0084 000F2540 		.word	1076170496
 433              		.cfi_endproc
 434              	.LFE7:
 435              		.size	I2C_MPU6050_I2CMasterWriteByte, .-I2C_MPU6050_I2CMasterWriteByte
 436              		.section	.text.I2C_MPU6050_I2CMasterReadByte,"ax",%progbits
 437              		.align	2
 438              		.global	I2C_MPU6050_I2CMasterReadByte
 439              		.code	16
 440              		.thumb_func
 441              		.type	I2C_MPU6050_I2CMasterReadByte, %function
 442              	I2C_MPU6050_I2CMasterReadByte:
 443              	.LFB8:
 643:Generated_Source\PSoC4/I2C_MPU6050_I2C_MASTER.c **** 
 644:Generated_Source\PSoC4/I2C_MPU6050_I2C_MASTER.c **** 
 645:Generated_Source\PSoC4/I2C_MPU6050_I2C_MASTER.c **** /*******************************************************************************
 646:Generated_Source\PSoC4/I2C_MPU6050_I2C_MASTER.c **** * Function Name: I2C_MPU6050_I2CMasterReadByte
 647:Generated_Source\PSoC4/I2C_MPU6050_I2C_MASTER.c **** ********************************************************************************
 648:Generated_Source\PSoC4/I2C_MPU6050_I2C_MASTER.c **** *
 649:Generated_Source\PSoC4/I2C_MPU6050_I2C_MASTER.c **** * Summary:
 650:Generated_Source\PSoC4/I2C_MPU6050_I2C_MASTER.c **** *  Reads one byte from a slave and ACKs or NAKs received byte.
 651:Generated_Source\PSoC4/I2C_MPU6050_I2C_MASTER.c **** *  This function does not generate NAK explicitly. The following call
 652:Generated_Source\PSoC4/I2C_MPU6050_I2C_MASTER.c **** *  SCB_I2CMasterSendStop() or SCB_I2CMasterSendRestart() will generate NAK and
 653:Generated_Source\PSoC4/I2C_MPU6050_I2C_MASTER.c **** *  Stop or ReStart condition appropriately.
 654:Generated_Source\PSoC4/I2C_MPU6050_I2C_MASTER.c **** *  This function is blocking and does not return until byte is received
 655:Generated_Source\PSoC4/I2C_MPU6050_I2C_MASTER.c **** *  or error occurred.
 656:Generated_Source\PSoC4/I2C_MPU6050_I2C_MASTER.c **** *
 657:Generated_Source\PSoC4/I2C_MPU6050_I2C_MASTER.c **** * Parameters:
 658:Generated_Source\PSoC4/I2C_MPU6050_I2C_MASTER.c **** *  ackNack: Response to received byte.
 659:Generated_Source\PSoC4/I2C_MPU6050_I2C_MASTER.c **** *
 660:Generated_Source\PSoC4/I2C_MPU6050_I2C_MASTER.c **** * Return:
 661:Generated_Source\PSoC4/I2C_MPU6050_I2C_MASTER.c **** *  Byte read from the slave. In case of error the MSB of returned data
 662:Generated_Source\PSoC4/I2C_MPU6050_I2C_MASTER.c **** *  is set to 1.
 663:Generated_Source\PSoC4/I2C_MPU6050_I2C_MASTER.c **** *
 664:Generated_Source\PSoC4/I2C_MPU6050_I2C_MASTER.c **** * Side Effects:
 665:Generated_Source\PSoC4/I2C_MPU6050_I2C_MASTER.c **** *  A valid Start or ReStart condition must be generated before calling this
 666:Generated_Source\PSoC4/I2C_MPU6050_I2C_MASTER.c **** *  function. This function does nothing and returns invalid byte value
 667:Generated_Source\PSoC4/I2C_MPU6050_I2C_MASTER.c **** *  if Start or ReStart conditions failed before this function was called.
 668:Generated_Source\PSoC4/I2C_MPU6050_I2C_MASTER.c **** *
 669:Generated_Source\PSoC4/I2C_MPU6050_I2C_MASTER.c **** * Global variables:
 670:Generated_Source\PSoC4/I2C_MPU6050_I2C_MASTER.c **** *  I2C_MPU6050_state - used to store current state of software FSM.
 671:Generated_Source\PSoC4/I2C_MPU6050_I2C_MASTER.c **** *
 672:Generated_Source\PSoC4/I2C_MPU6050_I2C_MASTER.c **** *******************************************************************************/
 673:Generated_Source\PSoC4/I2C_MPU6050_I2C_MASTER.c **** uint32 I2C_MPU6050_I2CMasterReadByte(uint32 ackNack)
 674:Generated_Source\PSoC4/I2C_MPU6050_I2C_MASTER.c **** {
 444              		.loc 1 674 0
 445              		.cfi_startproc
 446              		@ args = 0, pretend = 0, frame = 0
 447              		@ frame_needed = 0, uses_anonymous_args = 0
 448              	.LVL42:
 449 0000 10B5     		push	{r4, lr}
 450              		.cfi_def_cfa_offset 8
 451              		.cfi_offset 4, -8
 452              		.cfi_offset 14, -4
 453 0002 0100     		movs	r1, r0
 454              	.LVL43:
ARM GAS  C:\Users\Asus\AppData\Local\Temp\ccaf8y9d.s 			page 21


 675:Generated_Source\PSoC4/I2C_MPU6050_I2C_MASTER.c ****     uint32 theByte;
 676:Generated_Source\PSoC4/I2C_MPU6050_I2C_MASTER.c **** 
 677:Generated_Source\PSoC4/I2C_MPU6050_I2C_MASTER.c ****     /* Return invalid byte in case BUS_ERR happen during receiving */
 678:Generated_Source\PSoC4/I2C_MPU6050_I2C_MASTER.c ****     theByte = I2C_MPU6050_I2C_INVALID_BYTE;
 679:Generated_Source\PSoC4/I2C_MPU6050_I2C_MASTER.c **** 
 680:Generated_Source\PSoC4/I2C_MPU6050_I2C_MASTER.c ****     /* Check FSM state before read byte */
 681:Generated_Source\PSoC4/I2C_MPU6050_I2C_MASTER.c ****     if(I2C_MPU6050_CHECK_I2C_MASTER_ACTIVE)
 455              		.loc 1 681 0
 456 0004 154B     		ldr	r3, .L42
 457 0006 1B78     		ldrb	r3, [r3]
 458 0008 9B06     		lsls	r3, r3, #26
 459 000a 23D5     		bpl	.L41
 460              	.L38:
 682:Generated_Source\PSoC4/I2C_MPU6050_I2C_MASTER.c ****     {
 683:Generated_Source\PSoC4/I2C_MPU6050_I2C_MASTER.c ****         while((!I2C_MPU6050_CHECK_INTR_RX(I2C_MPU6050_INTR_RX_NOT_EMPTY)) &&
 461              		.loc 1 683 0 discriminator 2
 462 000c 144B     		ldr	r3, .L42+4
 463 000e 1B68     		ldr	r3, [r3]
 464 0010 5B07     		lsls	r3, r3, #29
 465 0012 05D4     		bmi	.L37
 684:Generated_Source\PSoC4/I2C_MPU6050_I2C_MASTER.c ****               (!I2C_MPU6050_CHECK_INTR_MASTER(I2C_MPU6050_INTR_MASTER_I2C_ARB_LOST |
 466              		.loc 1 684 0 discriminator 1
 467 0014 134B     		ldr	r3, .L42+8
 468 0016 1A68     		ldr	r2, [r3]
 469 0018 0223     		movs	r3, #2
 470 001a FF33     		adds	r3, r3, #255
 683:Generated_Source\PSoC4/I2C_MPU6050_I2C_MASTER.c ****               (!I2C_MPU6050_CHECK_INTR_MASTER(I2C_MPU6050_INTR_MASTER_I2C_ARB_LOST |
 471              		.loc 1 683 0 discriminator 1
 472 001c 1A42     		tst	r2, r3
 473 001e F5D0     		beq	.L38
 474              	.L37:
 685:Generated_Source\PSoC4/I2C_MPU6050_I2C_MASTER.c ****                                                   I2C_MPU6050_INTR_MASTER_I2C_BUS_ERROR)))
 686:Generated_Source\PSoC4/I2C_MPU6050_I2C_MASTER.c ****         {
 687:Generated_Source\PSoC4/I2C_MPU6050_I2C_MASTER.c ****             /* Wait until byte has been received */
 688:Generated_Source\PSoC4/I2C_MPU6050_I2C_MASTER.c ****         }
 689:Generated_Source\PSoC4/I2C_MPU6050_I2C_MASTER.c **** 
 690:Generated_Source\PSoC4/I2C_MPU6050_I2C_MASTER.c ****         /* Check the results after the byte was sent */
 691:Generated_Source\PSoC4/I2C_MPU6050_I2C_MASTER.c ****         if(I2C_MPU6050_CHECK_INTR_RX(I2C_MPU6050_INTR_RX_NOT_EMPTY))
 475              		.loc 1 691 0
 476 0020 0F4B     		ldr	r3, .L42+4
 477 0022 1B68     		ldr	r3, [r3]
 478 0024 5B07     		lsls	r3, r3, #29
 479 0026 0DD5     		bpl	.L39
 692:Generated_Source\PSoC4/I2C_MPU6050_I2C_MASTER.c ****         {
 693:Generated_Source\PSoC4/I2C_MPU6050_I2C_MASTER.c ****             theByte = I2C_MPU6050_RX_FIFO_RD_REG;
 480              		.loc 1 693 0
 481 0028 0F4B     		ldr	r3, .L42+12
 482 002a 1868     		ldr	r0, [r3]
 483              	.LVL44:
 694:Generated_Source\PSoC4/I2C_MPU6050_I2C_MASTER.c **** 
 695:Generated_Source\PSoC4/I2C_MPU6050_I2C_MASTER.c ****             I2C_MPU6050_ClearRxInterruptSource(I2C_MPU6050_INTR_RX_NOT_EMPTY);
 484              		.loc 1 695 0
 485 002c 0422     		movs	r2, #4
 486 002e 0C4B     		ldr	r3, .L42+4
 487 0030 1A60     		str	r2, [r3]
 696:Generated_Source\PSoC4/I2C_MPU6050_I2C_MASTER.c **** 
 697:Generated_Source\PSoC4/I2C_MPU6050_I2C_MASTER.c ****             if(0u == ackNack)
ARM GAS  C:\Users\Asus\AppData\Local\Temp\ccaf8y9d.s 			page 22


 488              		.loc 1 697 0
 489 0032 0029     		cmp	r1, #0
 490 0034 02D1     		bne	.L40
 698:Generated_Source\PSoC4/I2C_MPU6050_I2C_MASTER.c ****             {
 699:Generated_Source\PSoC4/I2C_MPU6050_I2C_MASTER.c ****                 I2C_MPU6050_I2C_MASTER_GENERATE_ACK;
 491              		.loc 1 699 0
 492 0036 0D4B     		ldr	r3, .L42+16
 493 0038 1A60     		str	r2, [r3]
 494 003a 0DE0     		b	.L36
 495              	.L40:
 700:Generated_Source\PSoC4/I2C_MPU6050_I2C_MASTER.c ****             }
 701:Generated_Source\PSoC4/I2C_MPU6050_I2C_MASTER.c ****             else
 702:Generated_Source\PSoC4/I2C_MPU6050_I2C_MASTER.c ****             {
 703:Generated_Source\PSoC4/I2C_MPU6050_I2C_MASTER.c ****                 /* NACK is generated by Stop or ReStart command*/
 704:Generated_Source\PSoC4/I2C_MPU6050_I2C_MASTER.c ****                 I2C_MPU6050_state = I2C_MPU6050_I2C_FSM_MSTR_HALT;
 496              		.loc 1 704 0
 497 003c 6022     		movs	r2, #96
 498 003e 074B     		ldr	r3, .L42
 499 0040 1A70     		strb	r2, [r3]
 500 0042 09E0     		b	.L36
 501              	.LVL45:
 502              	.L39:
 705:Generated_Source\PSoC4/I2C_MPU6050_I2C_MASTER.c ****             }
 706:Generated_Source\PSoC4/I2C_MPU6050_I2C_MASTER.c ****         }
 707:Generated_Source\PSoC4/I2C_MPU6050_I2C_MASTER.c ****         else
 708:Generated_Source\PSoC4/I2C_MPU6050_I2C_MASTER.c ****         {
 709:Generated_Source\PSoC4/I2C_MPU6050_I2C_MASTER.c ****             I2C_MPU6050_ClearMasterInterruptSource(I2C_MPU6050_INTR_MASTER_ALL);
 503              		.loc 1 709 0
 504 0044 0A4A     		ldr	r2, .L42+20
 505 0046 074B     		ldr	r3, .L42+8
 506 0048 1A60     		str	r2, [r3]
 710:Generated_Source\PSoC4/I2C_MPU6050_I2C_MASTER.c **** 
 711:Generated_Source\PSoC4/I2C_MPU6050_I2C_MASTER.c ****             /* Reset block in case of: LOST_ARB or BUS_ERR */
 712:Generated_Source\PSoC4/I2C_MPU6050_I2C_MASTER.c ****             I2C_MPU6050_SCB_SW_RESET;
 507              		.loc 1 712 0
 508 004a FFF7FEFF 		bl	I2C_MPU6050_I2CFwBlockReset
 509              	.LVL46:
 678:Generated_Source\PSoC4/I2C_MPU6050_I2C_MASTER.c **** 
 510              		.loc 1 678 0
 511 004e 0120     		movs	r0, #1
 512 0050 4042     		rsbs	r0, r0, #0
 513 0052 01E0     		b	.L36
 514              	.LVL47:
 515              	.L41:
 516 0054 0120     		movs	r0, #1
 517              	.LVL48:
 518 0056 4042     		rsbs	r0, r0, #0
 519              	.LVL49:
 520              	.L36:
 713:Generated_Source\PSoC4/I2C_MPU6050_I2C_MASTER.c ****         }
 714:Generated_Source\PSoC4/I2C_MPU6050_I2C_MASTER.c ****     }
 715:Generated_Source\PSoC4/I2C_MPU6050_I2C_MASTER.c **** 
 716:Generated_Source\PSoC4/I2C_MPU6050_I2C_MASTER.c ****     return(theByte);
 717:Generated_Source\PSoC4/I2C_MPU6050_I2C_MASTER.c **** }
 521              		.loc 1 717 0
 522              		@ sp needed
 523 0058 10BD     		pop	{r4, pc}
ARM GAS  C:\Users\Asus\AppData\Local\Temp\ccaf8y9d.s 			page 23


 524              	.L43:
 525 005a C046     		.align	2
 526              	.L42:
 527 005c 00000000 		.word	I2C_MPU6050_state
 528 0060 C00F2540 		.word	1076170688
 529 0064 000F2540 		.word	1076170496
 530 0068 40032540 		.word	1076167488
 531 006c 68002540 		.word	1076166760
 532 0070 17030000 		.word	791
 533              		.cfi_endproc
 534              	.LFE8:
 535              		.size	I2C_MPU6050_I2CMasterReadByte, .-I2C_MPU6050_I2CMasterReadByte
 536              		.section	.text.I2C_MPU6050_I2CMasterGetReadBufSize,"ax",%progbits
 537              		.align	2
 538              		.global	I2C_MPU6050_I2CMasterGetReadBufSize
 539              		.code	16
 540              		.thumb_func
 541              		.type	I2C_MPU6050_I2CMasterGetReadBufSize, %function
 542              	I2C_MPU6050_I2CMasterGetReadBufSize:
 543              	.LFB9:
 718:Generated_Source\PSoC4/I2C_MPU6050_I2C_MASTER.c **** 
 719:Generated_Source\PSoC4/I2C_MPU6050_I2C_MASTER.c **** 
 720:Generated_Source\PSoC4/I2C_MPU6050_I2C_MASTER.c **** /*******************************************************************************
 721:Generated_Source\PSoC4/I2C_MPU6050_I2C_MASTER.c **** * Function Name: I2C_MPU6050_I2CMasterGetReadBufSize
 722:Generated_Source\PSoC4/I2C_MPU6050_I2C_MASTER.c **** ********************************************************************************
 723:Generated_Source\PSoC4/I2C_MPU6050_I2C_MASTER.c **** *
 724:Generated_Source\PSoC4/I2C_MPU6050_I2C_MASTER.c **** * Summary:
 725:Generated_Source\PSoC4/I2C_MPU6050_I2C_MASTER.c **** *  Returns the number of bytes that has been transferred with an
 726:Generated_Source\PSoC4/I2C_MPU6050_I2C_MASTER.c **** *  SCB_I2CMasterReadBuf() function.
 727:Generated_Source\PSoC4/I2C_MPU6050_I2C_MASTER.c **** *
 728:Generated_Source\PSoC4/I2C_MPU6050_I2C_MASTER.c **** * Parameters:
 729:Generated_Source\PSoC4/I2C_MPU6050_I2C_MASTER.c **** *  None
 730:Generated_Source\PSoC4/I2C_MPU6050_I2C_MASTER.c **** *
 731:Generated_Source\PSoC4/I2C_MPU6050_I2C_MASTER.c **** * Return:
 732:Generated_Source\PSoC4/I2C_MPU6050_I2C_MASTER.c **** *  Byte count of transfer. If the transfer is not yet complete, it returns
 733:Generated_Source\PSoC4/I2C_MPU6050_I2C_MASTER.c **** *  the byte count transferred so far.
 734:Generated_Source\PSoC4/I2C_MPU6050_I2C_MASTER.c **** *
 735:Generated_Source\PSoC4/I2C_MPU6050_I2C_MASTER.c **** * Side Effects:
 736:Generated_Source\PSoC4/I2C_MPU6050_I2C_MASTER.c **** *  This function returns not valid value if SCB_I2C_MSTAT_ERR_ARB_LOST
 737:Generated_Source\PSoC4/I2C_MPU6050_I2C_MASTER.c **** *  or SCB_I2C_MSTAT_ERR_BUS_ERROR occurred while read transfer.
 738:Generated_Source\PSoC4/I2C_MPU6050_I2C_MASTER.c **** *
 739:Generated_Source\PSoC4/I2C_MPU6050_I2C_MASTER.c **** * Global variables:
 740:Generated_Source\PSoC4/I2C_MPU6050_I2C_MASTER.c **** *  I2C_MPU6050_mstrRdBufIndex - used to current index within master read
 741:Generated_Source\PSoC4/I2C_MPU6050_I2C_MASTER.c **** *  buffer.
 742:Generated_Source\PSoC4/I2C_MPU6050_I2C_MASTER.c **** *
 743:Generated_Source\PSoC4/I2C_MPU6050_I2C_MASTER.c **** *******************************************************************************/
 744:Generated_Source\PSoC4/I2C_MPU6050_I2C_MASTER.c **** uint32 I2C_MPU6050_I2CMasterGetReadBufSize(void)
 745:Generated_Source\PSoC4/I2C_MPU6050_I2C_MASTER.c **** {
 544              		.loc 1 745 0
 545              		.cfi_startproc
 546              		@ args = 0, pretend = 0, frame = 0
 547              		@ frame_needed = 0, uses_anonymous_args = 0
 548              		@ link register save eliminated.
 746:Generated_Source\PSoC4/I2C_MPU6050_I2C_MASTER.c ****     return(I2C_MPU6050_mstrRdBufIndex);
 549              		.loc 1 746 0
 550 0000 014B     		ldr	r3, .L45
 551 0002 1868     		ldr	r0, [r3]
ARM GAS  C:\Users\Asus\AppData\Local\Temp\ccaf8y9d.s 			page 24


 747:Generated_Source\PSoC4/I2C_MPU6050_I2C_MASTER.c **** }
 552              		.loc 1 747 0
 553              		@ sp needed
 554 0004 7047     		bx	lr
 555              	.L46:
 556 0006 C046     		.align	2
 557              	.L45:
 558 0008 00000000 		.word	I2C_MPU6050_mstrRdBufIndex
 559              		.cfi_endproc
 560              	.LFE9:
 561              		.size	I2C_MPU6050_I2CMasterGetReadBufSize, .-I2C_MPU6050_I2CMasterGetReadBufSize
 562              		.section	.text.I2C_MPU6050_I2CMasterGetWriteBufSize,"ax",%progbits
 563              		.align	2
 564              		.global	I2C_MPU6050_I2CMasterGetWriteBufSize
 565              		.code	16
 566              		.thumb_func
 567              		.type	I2C_MPU6050_I2CMasterGetWriteBufSize, %function
 568              	I2C_MPU6050_I2CMasterGetWriteBufSize:
 569              	.LFB10:
 748:Generated_Source\PSoC4/I2C_MPU6050_I2C_MASTER.c **** 
 749:Generated_Source\PSoC4/I2C_MPU6050_I2C_MASTER.c **** 
 750:Generated_Source\PSoC4/I2C_MPU6050_I2C_MASTER.c **** /*******************************************************************************
 751:Generated_Source\PSoC4/I2C_MPU6050_I2C_MASTER.c **** * Function Name: I2C_MPU6050_I2CMasterGetWriteBufSize
 752:Generated_Source\PSoC4/I2C_MPU6050_I2C_MASTER.c **** ********************************************************************************
 753:Generated_Source\PSoC4/I2C_MPU6050_I2C_MASTER.c **** *
 754:Generated_Source\PSoC4/I2C_MPU6050_I2C_MASTER.c **** * Summary:
 755:Generated_Source\PSoC4/I2C_MPU6050_I2C_MASTER.c **** *  Returns the number of bytes that have been transferred with an
 756:Generated_Source\PSoC4/I2C_MPU6050_I2C_MASTER.c **** *  SCB_I2CMasterWriteBuf() function.
 757:Generated_Source\PSoC4/I2C_MPU6050_I2C_MASTER.c **** *
 758:Generated_Source\PSoC4/I2C_MPU6050_I2C_MASTER.c **** * Parameters:
 759:Generated_Source\PSoC4/I2C_MPU6050_I2C_MASTER.c **** *  None
 760:Generated_Source\PSoC4/I2C_MPU6050_I2C_MASTER.c **** *
 761:Generated_Source\PSoC4/I2C_MPU6050_I2C_MASTER.c **** * Return:
 762:Generated_Source\PSoC4/I2C_MPU6050_I2C_MASTER.c **** *  Byte count of transfer. If the transfer is not yet complete, it returns
 763:Generated_Source\PSoC4/I2C_MPU6050_I2C_MASTER.c **** *  zero unit transfer completion.
 764:Generated_Source\PSoC4/I2C_MPU6050_I2C_MASTER.c **** *
 765:Generated_Source\PSoC4/I2C_MPU6050_I2C_MASTER.c **** * Side Effects:
 766:Generated_Source\PSoC4/I2C_MPU6050_I2C_MASTER.c **** *  This function returns not valid value if SCB_I2C_MSTAT_ERR_ARB_LOST
 767:Generated_Source\PSoC4/I2C_MPU6050_I2C_MASTER.c **** *  or SCB_I2C_MSTAT_ERR_BUS_ERROR occurred while read transfer.
 768:Generated_Source\PSoC4/I2C_MPU6050_I2C_MASTER.c **** *
 769:Generated_Source\PSoC4/I2C_MPU6050_I2C_MASTER.c **** * Global variables:
 770:Generated_Source\PSoC4/I2C_MPU6050_I2C_MASTER.c **** *  I2C_MPU6050_mstrWrBufIndex - used to current index within master write
 771:Generated_Source\PSoC4/I2C_MPU6050_I2C_MASTER.c **** *  buffer.
 772:Generated_Source\PSoC4/I2C_MPU6050_I2C_MASTER.c **** *
 773:Generated_Source\PSoC4/I2C_MPU6050_I2C_MASTER.c **** *******************************************************************************/
 774:Generated_Source\PSoC4/I2C_MPU6050_I2C_MASTER.c **** uint32 I2C_MPU6050_I2CMasterGetWriteBufSize(void)
 775:Generated_Source\PSoC4/I2C_MPU6050_I2C_MASTER.c **** {
 570              		.loc 1 775 0
 571              		.cfi_startproc
 572              		@ args = 0, pretend = 0, frame = 0
 573              		@ frame_needed = 0, uses_anonymous_args = 0
 574              		@ link register save eliminated.
 776:Generated_Source\PSoC4/I2C_MPU6050_I2C_MASTER.c ****     return(I2C_MPU6050_mstrWrBufIndex);
 575              		.loc 1 776 0
 576 0000 014B     		ldr	r3, .L48
 577 0002 1868     		ldr	r0, [r3]
 777:Generated_Source\PSoC4/I2C_MPU6050_I2C_MASTER.c **** }
ARM GAS  C:\Users\Asus\AppData\Local\Temp\ccaf8y9d.s 			page 25


 578              		.loc 1 777 0
 579              		@ sp needed
 580 0004 7047     		bx	lr
 581              	.L49:
 582 0006 C046     		.align	2
 583              	.L48:
 584 0008 00000000 		.word	I2C_MPU6050_mstrWrBufIndex
 585              		.cfi_endproc
 586              	.LFE10:
 587              		.size	I2C_MPU6050_I2CMasterGetWriteBufSize, .-I2C_MPU6050_I2CMasterGetWriteBufSize
 588              		.section	.text.I2C_MPU6050_I2CMasterClearReadBuf,"ax",%progbits
 589              		.align	2
 590              		.global	I2C_MPU6050_I2CMasterClearReadBuf
 591              		.code	16
 592              		.thumb_func
 593              		.type	I2C_MPU6050_I2CMasterClearReadBuf, %function
 594              	I2C_MPU6050_I2CMasterClearReadBuf:
 595              	.LFB11:
 778:Generated_Source\PSoC4/I2C_MPU6050_I2C_MASTER.c **** 
 779:Generated_Source\PSoC4/I2C_MPU6050_I2C_MASTER.c **** 
 780:Generated_Source\PSoC4/I2C_MPU6050_I2C_MASTER.c **** /*******************************************************************************
 781:Generated_Source\PSoC4/I2C_MPU6050_I2C_MASTER.c **** * Function Name: I2C_MPU6050_I2CMasterClearReadBuf
 782:Generated_Source\PSoC4/I2C_MPU6050_I2C_MASTER.c **** ********************************************************************************
 783:Generated_Source\PSoC4/I2C_MPU6050_I2C_MASTER.c **** *
 784:Generated_Source\PSoC4/I2C_MPU6050_I2C_MASTER.c **** * Summary:
 785:Generated_Source\PSoC4/I2C_MPU6050_I2C_MASTER.c **** *  Resets the read buffer pointer back to the first byte in the buffer.
 786:Generated_Source\PSoC4/I2C_MPU6050_I2C_MASTER.c **** *
 787:Generated_Source\PSoC4/I2C_MPU6050_I2C_MASTER.c **** * Parameters:
 788:Generated_Source\PSoC4/I2C_MPU6050_I2C_MASTER.c **** *  None
 789:Generated_Source\PSoC4/I2C_MPU6050_I2C_MASTER.c **** *
 790:Generated_Source\PSoC4/I2C_MPU6050_I2C_MASTER.c **** * Return:
 791:Generated_Source\PSoC4/I2C_MPU6050_I2C_MASTER.c **** *  None
 792:Generated_Source\PSoC4/I2C_MPU6050_I2C_MASTER.c **** *
 793:Generated_Source\PSoC4/I2C_MPU6050_I2C_MASTER.c **** * Global variables:
 794:Generated_Source\PSoC4/I2C_MPU6050_I2C_MASTER.c **** *  I2C_MPU6050_mstrRdBufIndex - used to current index within master read
 795:Generated_Source\PSoC4/I2C_MPU6050_I2C_MASTER.c **** *   buffer.
 796:Generated_Source\PSoC4/I2C_MPU6050_I2C_MASTER.c **** *  I2C_MPU6050_mstrStatus - used to store current status of I2C Master.
 797:Generated_Source\PSoC4/I2C_MPU6050_I2C_MASTER.c **** *
 798:Generated_Source\PSoC4/I2C_MPU6050_I2C_MASTER.c **** *******************************************************************************/
 799:Generated_Source\PSoC4/I2C_MPU6050_I2C_MASTER.c **** void I2C_MPU6050_I2CMasterClearReadBuf(void)
 800:Generated_Source\PSoC4/I2C_MPU6050_I2C_MASTER.c **** {
 596              		.loc 1 800 0
 597              		.cfi_startproc
 598              		@ args = 0, pretend = 0, frame = 0
 599              		@ frame_needed = 0, uses_anonymous_args = 0
 600              		@ link register save eliminated.
 801:Generated_Source\PSoC4/I2C_MPU6050_I2C_MASTER.c ****     I2C_MPU6050_mstrRdBufIndex = 0u;
 601              		.loc 1 801 0
 602 0000 0022     		movs	r2, #0
 603 0002 044B     		ldr	r3, .L51
 604 0004 1A60     		str	r2, [r3]
 802:Generated_Source\PSoC4/I2C_MPU6050_I2C_MASTER.c ****     I2C_MPU6050_mstrStatus    &= (uint16) ~I2C_MPU6050_I2C_MSTAT_RD_CMPLT;
 605              		.loc 1 802 0
 606 0006 044A     		ldr	r2, .L51+4
 607 0008 1388     		ldrh	r3, [r2]
 608 000a 0121     		movs	r1, #1
 609 000c 8B43     		bics	r3, r1
ARM GAS  C:\Users\Asus\AppData\Local\Temp\ccaf8y9d.s 			page 26


 610 000e 1380     		strh	r3, [r2]
 803:Generated_Source\PSoC4/I2C_MPU6050_I2C_MASTER.c **** }
 611              		.loc 1 803 0
 612              		@ sp needed
 613 0010 7047     		bx	lr
 614              	.L52:
 615 0012 C046     		.align	2
 616              	.L51:
 617 0014 00000000 		.word	I2C_MPU6050_mstrRdBufIndex
 618 0018 00000000 		.word	I2C_MPU6050_mstrStatus
 619              		.cfi_endproc
 620              	.LFE11:
 621              		.size	I2C_MPU6050_I2CMasterClearReadBuf, .-I2C_MPU6050_I2CMasterClearReadBuf
 622              		.section	.text.I2C_MPU6050_I2CMasterClearWriteBuf,"ax",%progbits
 623              		.align	2
 624              		.global	I2C_MPU6050_I2CMasterClearWriteBuf
 625              		.code	16
 626              		.thumb_func
 627              		.type	I2C_MPU6050_I2CMasterClearWriteBuf, %function
 628              	I2C_MPU6050_I2CMasterClearWriteBuf:
 629              	.LFB12:
 804:Generated_Source\PSoC4/I2C_MPU6050_I2C_MASTER.c **** 
 805:Generated_Source\PSoC4/I2C_MPU6050_I2C_MASTER.c **** 
 806:Generated_Source\PSoC4/I2C_MPU6050_I2C_MASTER.c **** /*******************************************************************************
 807:Generated_Source\PSoC4/I2C_MPU6050_I2C_MASTER.c **** * Function Name: I2C_MPU6050_I2CMasterClearWriteBuf
 808:Generated_Source\PSoC4/I2C_MPU6050_I2C_MASTER.c **** ********************************************************************************
 809:Generated_Source\PSoC4/I2C_MPU6050_I2C_MASTER.c **** *
 810:Generated_Source\PSoC4/I2C_MPU6050_I2C_MASTER.c **** * Summary:
 811:Generated_Source\PSoC4/I2C_MPU6050_I2C_MASTER.c **** *  Resets the write buffer pointer back to the first byte in the buffer.
 812:Generated_Source\PSoC4/I2C_MPU6050_I2C_MASTER.c **** *
 813:Generated_Source\PSoC4/I2C_MPU6050_I2C_MASTER.c **** * Parameters:
 814:Generated_Source\PSoC4/I2C_MPU6050_I2C_MASTER.c **** *  None
 815:Generated_Source\PSoC4/I2C_MPU6050_I2C_MASTER.c **** *
 816:Generated_Source\PSoC4/I2C_MPU6050_I2C_MASTER.c **** * Return:
 817:Generated_Source\PSoC4/I2C_MPU6050_I2C_MASTER.c **** *  None
 818:Generated_Source\PSoC4/I2C_MPU6050_I2C_MASTER.c **** *
 819:Generated_Source\PSoC4/I2C_MPU6050_I2C_MASTER.c **** * Global variables:
 820:Generated_Source\PSoC4/I2C_MPU6050_I2C_MASTER.c **** *  I2C_MPU6050_mstrRdBufIndex - used to current index within master read
 821:Generated_Source\PSoC4/I2C_MPU6050_I2C_MASTER.c **** *   buffer.
 822:Generated_Source\PSoC4/I2C_MPU6050_I2C_MASTER.c **** *  I2C_MPU6050_mstrStatus - used to store current status of I2C Master.
 823:Generated_Source\PSoC4/I2C_MPU6050_I2C_MASTER.c **** *
 824:Generated_Source\PSoC4/I2C_MPU6050_I2C_MASTER.c **** *******************************************************************************/
 825:Generated_Source\PSoC4/I2C_MPU6050_I2C_MASTER.c **** void I2C_MPU6050_I2CMasterClearWriteBuf(void)
 826:Generated_Source\PSoC4/I2C_MPU6050_I2C_MASTER.c **** {
 630              		.loc 1 826 0
 631              		.cfi_startproc
 632              		@ args = 0, pretend = 0, frame = 0
 633              		@ frame_needed = 0, uses_anonymous_args = 0
 634              		@ link register save eliminated.
 827:Generated_Source\PSoC4/I2C_MPU6050_I2C_MASTER.c ****     I2C_MPU6050_mstrWrBufIndex = 0u;
 635              		.loc 1 827 0
 636 0000 0022     		movs	r2, #0
 637 0002 044B     		ldr	r3, .L54
 638 0004 1A60     		str	r2, [r3]
 828:Generated_Source\PSoC4/I2C_MPU6050_I2C_MASTER.c ****     I2C_MPU6050_mstrStatus    &= (uint16) ~I2C_MPU6050_I2C_MSTAT_WR_CMPLT;
 639              		.loc 1 828 0
 640 0006 044A     		ldr	r2, .L54+4
ARM GAS  C:\Users\Asus\AppData\Local\Temp\ccaf8y9d.s 			page 27


 641 0008 1388     		ldrh	r3, [r2]
 642 000a 0221     		movs	r1, #2
 643 000c 8B43     		bics	r3, r1
 644 000e 1380     		strh	r3, [r2]
 829:Generated_Source\PSoC4/I2C_MPU6050_I2C_MASTER.c **** }
 645              		.loc 1 829 0
 646              		@ sp needed
 647 0010 7047     		bx	lr
 648              	.L55:
 649 0012 C046     		.align	2
 650              	.L54:
 651 0014 00000000 		.word	I2C_MPU6050_mstrWrBufIndex
 652 0018 00000000 		.word	I2C_MPU6050_mstrStatus
 653              		.cfi_endproc
 654              	.LFE12:
 655              		.size	I2C_MPU6050_I2CMasterClearWriteBuf, .-I2C_MPU6050_I2CMasterClearWriteBuf
 656              		.section	.text.I2C_MPU6050_I2CMasterStatus,"ax",%progbits
 657              		.align	2
 658              		.global	I2C_MPU6050_I2CMasterStatus
 659              		.code	16
 660              		.thumb_func
 661              		.type	I2C_MPU6050_I2CMasterStatus, %function
 662              	I2C_MPU6050_I2CMasterStatus:
 663              	.LFB13:
 830:Generated_Source\PSoC4/I2C_MPU6050_I2C_MASTER.c **** 
 831:Generated_Source\PSoC4/I2C_MPU6050_I2C_MASTER.c **** 
 832:Generated_Source\PSoC4/I2C_MPU6050_I2C_MASTER.c **** /*******************************************************************************
 833:Generated_Source\PSoC4/I2C_MPU6050_I2C_MASTER.c **** * Function Name: I2C_MPU6050_I2CMasterStatus
 834:Generated_Source\PSoC4/I2C_MPU6050_I2C_MASTER.c **** ********************************************************************************
 835:Generated_Source\PSoC4/I2C_MPU6050_I2C_MASTER.c **** *
 836:Generated_Source\PSoC4/I2C_MPU6050_I2C_MASTER.c **** * Summary:
 837:Generated_Source\PSoC4/I2C_MPU6050_I2C_MASTER.c **** *  Returns the master's communication status.
 838:Generated_Source\PSoC4/I2C_MPU6050_I2C_MASTER.c **** *
 839:Generated_Source\PSoC4/I2C_MPU6050_I2C_MASTER.c **** * Parameters:
 840:Generated_Source\PSoC4/I2C_MPU6050_I2C_MASTER.c **** *  None
 841:Generated_Source\PSoC4/I2C_MPU6050_I2C_MASTER.c **** *
 842:Generated_Source\PSoC4/I2C_MPU6050_I2C_MASTER.c **** * Return:
 843:Generated_Source\PSoC4/I2C_MPU6050_I2C_MASTER.c **** *  Current status of I2C master.
 844:Generated_Source\PSoC4/I2C_MPU6050_I2C_MASTER.c **** *
 845:Generated_Source\PSoC4/I2C_MPU6050_I2C_MASTER.c **** * Global variables:
 846:Generated_Source\PSoC4/I2C_MPU6050_I2C_MASTER.c **** *  I2C_MPU6050_mstrStatus - used to store current status of I2C Master.
 847:Generated_Source\PSoC4/I2C_MPU6050_I2C_MASTER.c **** *
 848:Generated_Source\PSoC4/I2C_MPU6050_I2C_MASTER.c **** *******************************************************************************/
 849:Generated_Source\PSoC4/I2C_MPU6050_I2C_MASTER.c **** uint32 I2C_MPU6050_I2CMasterStatus(void)
 850:Generated_Source\PSoC4/I2C_MPU6050_I2C_MASTER.c **** {
 664              		.loc 1 850 0
 665              		.cfi_startproc
 666              		@ args = 0, pretend = 0, frame = 0
 667              		@ frame_needed = 0, uses_anonymous_args = 0
 668              		@ link register save eliminated.
 851:Generated_Source\PSoC4/I2C_MPU6050_I2C_MASTER.c ****     uint32 status;
 852:Generated_Source\PSoC4/I2C_MPU6050_I2C_MASTER.c **** 
 853:Generated_Source\PSoC4/I2C_MPU6050_I2C_MASTER.c ****     status = (uint32) I2C_MPU6050_mstrStatus;
 669              		.loc 1 853 0
 670 0000 054B     		ldr	r3, .L58
 671 0002 1888     		ldrh	r0, [r3]
 672 0004 82B2     		uxth	r2, r0
ARM GAS  C:\Users\Asus\AppData\Local\Temp\ccaf8y9d.s 			page 28


 673 0006 1000     		movs	r0, r2
 674              	.LVL50:
 854:Generated_Source\PSoC4/I2C_MPU6050_I2C_MASTER.c **** 
 855:Generated_Source\PSoC4/I2C_MPU6050_I2C_MASTER.c ****     if(I2C_MPU6050_CHECK_I2C_MASTER_ACTIVE)
 675              		.loc 1 855 0
 676 0008 044B     		ldr	r3, .L58+4
 677 000a 1B78     		ldrb	r3, [r3]
 678 000c 9B06     		lsls	r3, r3, #26
 679 000e 02D5     		bpl	.L57
 856:Generated_Source\PSoC4/I2C_MPU6050_I2C_MASTER.c ****     {
 857:Generated_Source\PSoC4/I2C_MPU6050_I2C_MASTER.c ****         /* Add status of master pending transaction: MSTAT_XFER_INP */
 858:Generated_Source\PSoC4/I2C_MPU6050_I2C_MASTER.c ****         status |= (uint32) I2C_MPU6050_I2C_MSTAT_XFER_INP;
 680              		.loc 1 858 0
 681 0010 0423     		movs	r3, #4
 682 0012 1A43     		orrs	r2, r3
 683 0014 90B2     		uxth	r0, r2
 684              	.LVL51:
 685              	.L57:
 859:Generated_Source\PSoC4/I2C_MPU6050_I2C_MASTER.c ****     }
 860:Generated_Source\PSoC4/I2C_MPU6050_I2C_MASTER.c **** 
 861:Generated_Source\PSoC4/I2C_MPU6050_I2C_MASTER.c ****     return(status);
 862:Generated_Source\PSoC4/I2C_MPU6050_I2C_MASTER.c **** }
 686              		.loc 1 862 0
 687              		@ sp needed
 688 0016 7047     		bx	lr
 689              	.L59:
 690              		.align	2
 691              	.L58:
 692 0018 00000000 		.word	I2C_MPU6050_mstrStatus
 693 001c 00000000 		.word	I2C_MPU6050_state
 694              		.cfi_endproc
 695              	.LFE13:
 696              		.size	I2C_MPU6050_I2CMasterStatus, .-I2C_MPU6050_I2CMasterStatus
 697              		.section	.text.I2C_MPU6050_I2CMasterClearStatus,"ax",%progbits
 698              		.align	2
 699              		.global	I2C_MPU6050_I2CMasterClearStatus
 700              		.code	16
 701              		.thumb_func
 702              		.type	I2C_MPU6050_I2CMasterClearStatus, %function
 703              	I2C_MPU6050_I2CMasterClearStatus:
 704              	.LFB14:
 863:Generated_Source\PSoC4/I2C_MPU6050_I2C_MASTER.c **** 
 864:Generated_Source\PSoC4/I2C_MPU6050_I2C_MASTER.c **** 
 865:Generated_Source\PSoC4/I2C_MPU6050_I2C_MASTER.c **** /*******************************************************************************
 866:Generated_Source\PSoC4/I2C_MPU6050_I2C_MASTER.c **** * Function Name: I2C_MPU6050_I2CMasterClearStatus
 867:Generated_Source\PSoC4/I2C_MPU6050_I2C_MASTER.c **** ********************************************************************************
 868:Generated_Source\PSoC4/I2C_MPU6050_I2C_MASTER.c **** *
 869:Generated_Source\PSoC4/I2C_MPU6050_I2C_MASTER.c **** * Summary:
 870:Generated_Source\PSoC4/I2C_MPU6050_I2C_MASTER.c **** *  Clears all status flags and returns the master status.
 871:Generated_Source\PSoC4/I2C_MPU6050_I2C_MASTER.c **** *
 872:Generated_Source\PSoC4/I2C_MPU6050_I2C_MASTER.c **** * Parameters:
 873:Generated_Source\PSoC4/I2C_MPU6050_I2C_MASTER.c **** *  None
 874:Generated_Source\PSoC4/I2C_MPU6050_I2C_MASTER.c **** *
 875:Generated_Source\PSoC4/I2C_MPU6050_I2C_MASTER.c **** * Return:
 876:Generated_Source\PSoC4/I2C_MPU6050_I2C_MASTER.c **** *  Current status of I2C master.
 877:Generated_Source\PSoC4/I2C_MPU6050_I2C_MASTER.c **** *
 878:Generated_Source\PSoC4/I2C_MPU6050_I2C_MASTER.c **** * Global variables:
ARM GAS  C:\Users\Asus\AppData\Local\Temp\ccaf8y9d.s 			page 29


 879:Generated_Source\PSoC4/I2C_MPU6050_I2C_MASTER.c **** *  I2C_MPU6050_mstrStatus - used to store current status of I2C Master.
 880:Generated_Source\PSoC4/I2C_MPU6050_I2C_MASTER.c **** *
 881:Generated_Source\PSoC4/I2C_MPU6050_I2C_MASTER.c **** *******************************************************************************/
 882:Generated_Source\PSoC4/I2C_MPU6050_I2C_MASTER.c **** uint32 I2C_MPU6050_I2CMasterClearStatus(void)
 883:Generated_Source\PSoC4/I2C_MPU6050_I2C_MASTER.c **** {
 705              		.loc 1 883 0
 706              		.cfi_startproc
 707              		@ args = 0, pretend = 0, frame = 0
 708              		@ frame_needed = 0, uses_anonymous_args = 0
 709              		@ link register save eliminated.
 884:Generated_Source\PSoC4/I2C_MPU6050_I2C_MASTER.c ****     uint32 status;
 885:Generated_Source\PSoC4/I2C_MPU6050_I2C_MASTER.c **** 
 886:Generated_Source\PSoC4/I2C_MPU6050_I2C_MASTER.c ****     /* Read and clear master status */
 887:Generated_Source\PSoC4/I2C_MPU6050_I2C_MASTER.c ****     status = (uint32) I2C_MPU6050_mstrStatus;
 710              		.loc 1 887 0
 711 0000 024B     		ldr	r3, .L61
 712 0002 1888     		ldrh	r0, [r3]
 713 0004 80B2     		uxth	r0, r0
 714              	.LVL52:
 888:Generated_Source\PSoC4/I2C_MPU6050_I2C_MASTER.c ****     I2C_MPU6050_mstrStatus = I2C_MPU6050_I2C_MSTAT_CLEAR;
 715              		.loc 1 888 0
 716 0006 0022     		movs	r2, #0
 717 0008 1A80     		strh	r2, [r3]
 889:Generated_Source\PSoC4/I2C_MPU6050_I2C_MASTER.c **** 
 890:Generated_Source\PSoC4/I2C_MPU6050_I2C_MASTER.c ****     return(status);
 891:Generated_Source\PSoC4/I2C_MPU6050_I2C_MASTER.c **** }
 718              		.loc 1 891 0
 719              		@ sp needed
 720 000a 7047     		bx	lr
 721              	.L62:
 722              		.align	2
 723              	.L61:
 724 000c 00000000 		.word	I2C_MPU6050_mstrStatus
 725              		.cfi_endproc
 726              	.LFE14:
 727              		.size	I2C_MPU6050_I2CMasterClearStatus, .-I2C_MPU6050_I2CMasterClearStatus
 728              		.section	.text.I2C_MPU6050_I2CReStartGeneration,"ax",%progbits
 729              		.align	2
 730              		.global	I2C_MPU6050_I2CReStartGeneration
 731              		.code	16
 732              		.thumb_func
 733              		.type	I2C_MPU6050_I2CReStartGeneration, %function
 734              	I2C_MPU6050_I2CReStartGeneration:
 735              	.LFB15:
 892:Generated_Source\PSoC4/I2C_MPU6050_I2C_MASTER.c **** 
 893:Generated_Source\PSoC4/I2C_MPU6050_I2C_MASTER.c **** 
 894:Generated_Source\PSoC4/I2C_MPU6050_I2C_MASTER.c **** /*******************************************************************************
 895:Generated_Source\PSoC4/I2C_MPU6050_I2C_MASTER.c **** * Function Name: I2C_MPU6050_I2CReStartGeneration
 896:Generated_Source\PSoC4/I2C_MPU6050_I2C_MASTER.c **** ********************************************************************************
 897:Generated_Source\PSoC4/I2C_MPU6050_I2C_MASTER.c **** *
 898:Generated_Source\PSoC4/I2C_MPU6050_I2C_MASTER.c **** * Summary:
 899:Generated_Source\PSoC4/I2C_MPU6050_I2C_MASTER.c **** *  Generates a ReStart condition:
 900:Generated_Source\PSoC4/I2C_MPU6050_I2C_MASTER.c **** *  SCB IP V1 and later: Generates ReStart using the scb IP functionality
 901:Generated_Source\PSoC4/I2C_MPU6050_I2C_MASTER.c **** *    Sets the I2C_MASTER_CMD_M_START and I2C_MASTER_CMD_M_NACK (if the previous
 902:Generated_Source\PSoC4/I2C_MPU6050_I2C_MASTER.c **** *    transaction was read) bits in the SCB.I2C_MASTER_CMD register. This combination
 903:Generated_Source\PSoC4/I2C_MPU6050_I2C_MASTER.c **** *    forces the master to generate ReStart.
 904:Generated_Source\PSoC4/I2C_MPU6050_I2C_MASTER.c **** *
ARM GAS  C:\Users\Asus\AppData\Local\Temp\ccaf8y9d.s 			page 30


 905:Generated_Source\PSoC4/I2C_MPU6050_I2C_MASTER.c **** *  SCB IP V0: Generates Restart using the GPIO and scb IP functionality.
 906:Generated_Source\PSoC4/I2C_MPU6050_I2C_MASTER.c **** *   After the master completes write or read, the SCL is stretched. The master waits
 907:Generated_Source\PSoC4/I2C_MPU6050_I2C_MASTER.c **** *   until SDA line is released by the slave. Then the GPIO function is enabled and
 908:Generated_Source\PSoC4/I2C_MPU6050_I2C_MASTER.c **** *   the scb IP disabled as it already does not drive the bus. In case of the previous
 909:Generated_Source\PSoC4/I2C_MPU6050_I2C_MASTER.c **** *   transfer was read, the NACK is generated by the GPIO. The delay of tLOW is
 910:Generated_Source\PSoC4/I2C_MPU6050_I2C_MASTER.c **** *   added to manage the hold time. Set I2C_M_CMD.START and enable the scb IP.
 911:Generated_Source\PSoC4/I2C_MPU6050_I2C_MASTER.c **** *   The ReStart generation is started after the I2C function is enabled for the SCL.
 912:Generated_Source\PSoC4/I2C_MPU6050_I2C_MASTER.c **** *   Note1: the scb IP due re-enable generates Start but on the I2C bus it
 913:Generated_Source\PSoC4/I2C_MPU6050_I2C_MASTER.c **** *          appears as ReStart.
 914:Generated_Source\PSoC4/I2C_MPU6050_I2C_MASTER.c **** *   Note2: the I2C_M_CMD.START is queued if scb IP is disabled.
 915:Generated_Source\PSoC4/I2C_MPU6050_I2C_MASTER.c **** *   Note3: the I2C_STATUS_M_READ is cleared is address was NACKed before.
 916:Generated_Source\PSoC4/I2C_MPU6050_I2C_MASTER.c **** *
 917:Generated_Source\PSoC4/I2C_MPU6050_I2C_MASTER.c **** * Parameters:
 918:Generated_Source\PSoC4/I2C_MPU6050_I2C_MASTER.c **** *  None
 919:Generated_Source\PSoC4/I2C_MPU6050_I2C_MASTER.c **** *
 920:Generated_Source\PSoC4/I2C_MPU6050_I2C_MASTER.c **** * Return:
 921:Generated_Source\PSoC4/I2C_MPU6050_I2C_MASTER.c **** *  None
 922:Generated_Source\PSoC4/I2C_MPU6050_I2C_MASTER.c **** *
 923:Generated_Source\PSoC4/I2C_MPU6050_I2C_MASTER.c **** * Side Effects:
 924:Generated_Source\PSoC4/I2C_MPU6050_I2C_MASTER.c **** *  SCB IP V0: The NACK generation by the GPIO may cause a greater SCL period than
 925:Generated_Source\PSoC4/I2C_MPU6050_I2C_MASTER.c **** *  expected for the selected master data rate.
 926:Generated_Source\PSoC4/I2C_MPU6050_I2C_MASTER.c **** *
 927:Generated_Source\PSoC4/I2C_MPU6050_I2C_MASTER.c **** *******************************************************************************/
 928:Generated_Source\PSoC4/I2C_MPU6050_I2C_MASTER.c **** void I2C_MPU6050_I2CReStartGeneration(void)
 929:Generated_Source\PSoC4/I2C_MPU6050_I2C_MASTER.c **** {
 736              		.loc 1 929 0
 737              		.cfi_startproc
 738              		@ args = 0, pretend = 0, frame = 0
 739              		@ frame_needed = 0, uses_anonymous_args = 0
 740              		@ link register save eliminated.
 741              	.LVL53:
 930:Generated_Source\PSoC4/I2C_MPU6050_I2C_MASTER.c **** #if(I2C_MPU6050_CY_SCBIP_V0)
 931:Generated_Source\PSoC4/I2C_MPU6050_I2C_MASTER.c ****     /* Generates Restart use GPIO and scb IP functionality. Ticket ID#143715,
 932:Generated_Source\PSoC4/I2C_MPU6050_I2C_MASTER.c ****     ID#145238 and ID#173656 */
 933:Generated_Source\PSoC4/I2C_MPU6050_I2C_MASTER.c ****     uint32 status = I2C_MPU6050_I2C_STATUS_REG;
 934:Generated_Source\PSoC4/I2C_MPU6050_I2C_MASTER.c **** 
 935:Generated_Source\PSoC4/I2C_MPU6050_I2C_MASTER.c ****     while(I2C_MPU6050_WAIT_SDA_SET_HIGH)
 936:Generated_Source\PSoC4/I2C_MPU6050_I2C_MASTER.c ****     {
 937:Generated_Source\PSoC4/I2C_MPU6050_I2C_MASTER.c ****         /* Wait when slave release SDA line: SCL tHIGH is complete */
 938:Generated_Source\PSoC4/I2C_MPU6050_I2C_MASTER.c ****     }
 939:Generated_Source\PSoC4/I2C_MPU6050_I2C_MASTER.c **** 
 940:Generated_Source\PSoC4/I2C_MPU6050_I2C_MASTER.c ****     /* Prepare DR register to drive SCL line */
 941:Generated_Source\PSoC4/I2C_MPU6050_I2C_MASTER.c ****     I2C_MPU6050_SET_I2C_SCL_DR(I2C_MPU6050_I2C_SCL_LOW);
 942:Generated_Source\PSoC4/I2C_MPU6050_I2C_MASTER.c **** 
 943:Generated_Source\PSoC4/I2C_MPU6050_I2C_MASTER.c ****     /* Switch HSIOM to GPIO: SCL goes low */
 944:Generated_Source\PSoC4/I2C_MPU6050_I2C_MASTER.c ****     I2C_MPU6050_SET_I2C_SCL_HSIOM_SEL(I2C_MPU6050_HSIOM_GPIO_SEL);
 945:Generated_Source\PSoC4/I2C_MPU6050_I2C_MASTER.c **** 
 946:Generated_Source\PSoC4/I2C_MPU6050_I2C_MASTER.c ****     /* Disable SCB block */
 947:Generated_Source\PSoC4/I2C_MPU6050_I2C_MASTER.c ****     I2C_MPU6050_CTRL_REG &= (uint32) ~I2C_MPU6050_CTRL_ENABLED;
 948:Generated_Source\PSoC4/I2C_MPU6050_I2C_MASTER.c **** 
 949:Generated_Source\PSoC4/I2C_MPU6050_I2C_MASTER.c ****     if(0u != (status & I2C_MPU6050_I2C_STATUS_M_READ))
 950:Generated_Source\PSoC4/I2C_MPU6050_I2C_MASTER.c ****     {
 951:Generated_Source\PSoC4/I2C_MPU6050_I2C_MASTER.c ****         /* Generate NACK use GPIO functionality */
 952:Generated_Source\PSoC4/I2C_MPU6050_I2C_MASTER.c ****         I2C_MPU6050_SET_I2C_SCL_DR(I2C_MPU6050_I2C_SCL_LOW);
 953:Generated_Source\PSoC4/I2C_MPU6050_I2C_MASTER.c ****         CyDelayUs(I2C_MPU6050_I2C_TLOW_TIME); /* Count tLOW */
 954:Generated_Source\PSoC4/I2C_MPU6050_I2C_MASTER.c **** 
 955:Generated_Source\PSoC4/I2C_MPU6050_I2C_MASTER.c ****         I2C_MPU6050_SET_I2C_SCL_DR(I2C_MPU6050_I2C_SCL_HIGH);
ARM GAS  C:\Users\Asus\AppData\Local\Temp\ccaf8y9d.s 			page 31


 956:Generated_Source\PSoC4/I2C_MPU6050_I2C_MASTER.c ****         while(I2C_MPU6050_WAIT_SCL_SET_HIGH)
 957:Generated_Source\PSoC4/I2C_MPU6050_I2C_MASTER.c ****         {
 958:Generated_Source\PSoC4/I2C_MPU6050_I2C_MASTER.c ****             /* Wait until slave releases SCL in case if it stretches */
 959:Generated_Source\PSoC4/I2C_MPU6050_I2C_MASTER.c ****         }
 960:Generated_Source\PSoC4/I2C_MPU6050_I2C_MASTER.c ****         CyDelayUs(I2C_MPU6050_I2C_THIGH_TIME); /* Count tHIGH */
 961:Generated_Source\PSoC4/I2C_MPU6050_I2C_MASTER.c ****     }
 962:Generated_Source\PSoC4/I2C_MPU6050_I2C_MASTER.c **** 
 963:Generated_Source\PSoC4/I2C_MPU6050_I2C_MASTER.c ****     /* Count tLOW as hold time for write and read */
 964:Generated_Source\PSoC4/I2C_MPU6050_I2C_MASTER.c ****     I2C_MPU6050_SET_I2C_SCL_DR(I2C_MPU6050_I2C_SCL_LOW);
 965:Generated_Source\PSoC4/I2C_MPU6050_I2C_MASTER.c ****     CyDelayUs(I2C_MPU6050_I2C_TLOW_TIME); /* Count tLOW */
 966:Generated_Source\PSoC4/I2C_MPU6050_I2C_MASTER.c **** 
 967:Generated_Source\PSoC4/I2C_MPU6050_I2C_MASTER.c ****     /* Set command for Start generation: it will appear */
 968:Generated_Source\PSoC4/I2C_MPU6050_I2C_MASTER.c ****     I2C_MPU6050_I2C_MASTER_CMD_REG = I2C_MPU6050_I2C_MASTER_CMD_M_START;
 969:Generated_Source\PSoC4/I2C_MPU6050_I2C_MASTER.c **** 
 970:Generated_Source\PSoC4/I2C_MPU6050_I2C_MASTER.c ****     /* Enable SCB block */
 971:Generated_Source\PSoC4/I2C_MPU6050_I2C_MASTER.c ****     I2C_MPU6050_CTRL_REG |= (uint32) I2C_MPU6050_CTRL_ENABLED;
 972:Generated_Source\PSoC4/I2C_MPU6050_I2C_MASTER.c **** 
 973:Generated_Source\PSoC4/I2C_MPU6050_I2C_MASTER.c ****     /* Switch HSIOM to I2C: */
 974:Generated_Source\PSoC4/I2C_MPU6050_I2C_MASTER.c ****     I2C_MPU6050_SET_I2C_SCL_HSIOM_SEL(I2C_MPU6050_HSIOM_I2C_SEL);
 975:Generated_Source\PSoC4/I2C_MPU6050_I2C_MASTER.c **** 
 976:Generated_Source\PSoC4/I2C_MPU6050_I2C_MASTER.c ****     /* Revert SCL DR register */
 977:Generated_Source\PSoC4/I2C_MPU6050_I2C_MASTER.c ****     I2C_MPU6050_SET_I2C_SCL_DR(I2C_MPU6050_I2C_SCL_HIGH);
 978:Generated_Source\PSoC4/I2C_MPU6050_I2C_MASTER.c **** #else
 979:Generated_Source\PSoC4/I2C_MPU6050_I2C_MASTER.c ****     uint32 cmd;
 980:Generated_Source\PSoC4/I2C_MPU6050_I2C_MASTER.c **** 
 981:Generated_Source\PSoC4/I2C_MPU6050_I2C_MASTER.c ****     /* Generates ReStart use scb IP functionality */
 982:Generated_Source\PSoC4/I2C_MPU6050_I2C_MASTER.c ****     cmd  = I2C_MPU6050_I2C_MASTER_CMD_M_START;
 983:Generated_Source\PSoC4/I2C_MPU6050_I2C_MASTER.c ****     cmd |= I2C_MPU6050_CHECK_I2C_STATUS(I2C_MPU6050_I2C_STATUS_M_READ) ?
 742              		.loc 1 983 0
 743 0000 054B     		ldr	r3, .L65
 744 0002 1B68     		ldr	r3, [r3]
 745 0004 2022     		movs	r2, #32
 746 0006 1340     		ands	r3, r2
 984:Generated_Source\PSoC4/I2C_MPU6050_I2C_MASTER.c ****                 (I2C_MPU6050_I2C_MASTER_CMD_M_NACK) : (0u);
 747              		.loc 1 984 0
 748 0008 00D0     		beq	.L64
 749 000a 0823     		movs	r3, #8
 750              	.L64:
 983:Generated_Source\PSoC4/I2C_MPU6050_I2C_MASTER.c ****                 (I2C_MPU6050_I2C_MASTER_CMD_M_NACK) : (0u);
 751              		.loc 1 983 0 discriminator 4
 752 000c 0122     		movs	r2, #1
 753 000e 1343     		orrs	r3, r2
 754              	.LVL54:
 985:Generated_Source\PSoC4/I2C_MPU6050_I2C_MASTER.c **** 
 986:Generated_Source\PSoC4/I2C_MPU6050_I2C_MASTER.c ****     I2C_MPU6050_I2C_MASTER_CMD_REG = cmd;
 755              		.loc 1 986 0 discriminator 4
 756 0010 024A     		ldr	r2, .L65+4
 757 0012 1360     		str	r3, [r2]
 987:Generated_Source\PSoC4/I2C_MPU6050_I2C_MASTER.c **** #endif /* (I2C_MPU6050_CY_SCBIP_V1) */
 988:Generated_Source\PSoC4/I2C_MPU6050_I2C_MASTER.c **** }
 758              		.loc 1 988 0 discriminator 4
 759              		@ sp needed
 760 0014 7047     		bx	lr
 761              	.L66:
 762 0016 C046     		.align	2
 763              	.L65:
 764 0018 64002540 		.word	1076166756
ARM GAS  C:\Users\Asus\AppData\Local\Temp\ccaf8y9d.s 			page 32


 765 001c 68002540 		.word	1076166760
 766              		.cfi_endproc
 767              	.LFE15:
 768              		.size	I2C_MPU6050_I2CReStartGeneration, .-I2C_MPU6050_I2CReStartGeneration
 769              		.section	.text.I2C_MPU6050_I2CMasterWriteBuf,"ax",%progbits
 770              		.align	2
 771              		.global	I2C_MPU6050_I2CMasterWriteBuf
 772              		.code	16
 773              		.thumb_func
 774              		.type	I2C_MPU6050_I2CMasterWriteBuf, %function
 775              	I2C_MPU6050_I2CMasterWriteBuf:
 776              	.LFB2:
  76:Generated_Source\PSoC4/I2C_MPU6050_I2C_MASTER.c ****     uint32 errStatus;
 777              		.loc 1 76 0
 778              		.cfi_startproc
 779              		@ args = 0, pretend = 0, frame = 8
 780              		@ frame_needed = 0, uses_anonymous_args = 0
 781              	.LVL55:
 782 0000 F0B5     		push	{r4, r5, r6, r7, lr}
 783              		.cfi_def_cfa_offset 20
 784              		.cfi_offset 4, -20
 785              		.cfi_offset 5, -16
 786              		.cfi_offset 6, -12
 787              		.cfi_offset 7, -8
 788              		.cfi_offset 14, -4
 789 0002 83B0     		sub	sp, sp, #12
 790              		.cfi_def_cfa_offset 32
 791 0004 0190     		str	r0, [sp, #4]
 792 0006 0C00     		movs	r4, r1
 793 0008 1700     		movs	r7, r2
 794 000a 1D00     		movs	r5, r3
 795              	.LVL56:
  81:Generated_Source\PSoC4/I2C_MPU6050_I2C_MASTER.c ****     {
 796              		.loc 1 81 0
 797 000c 0029     		cmp	r1, #0
 798 000e 17D0     		beq	.L73
  84:Generated_Source\PSoC4/I2C_MPU6050_I2C_MASTER.c ****         {
 799              		.loc 1 84 0
 800 0010 284B     		ldr	r3, .L76
 801              	.LVL57:
 802 0012 1B78     		ldrb	r3, [r3]
 803 0014 102B     		cmp	r3, #16
 804 0016 08D1     		bne	.L69
  86:Generated_Source\PSoC4/I2C_MPU6050_I2C_MASTER.c **** 
 805              		.loc 1 86 0
 806 0018 0A20     		movs	r0, #10
 807              	.LVL58:
 808 001a FFF7FEFF 		bl	CyIntDisable
 809              	.LVL59:
  89:Generated_Source\PSoC4/I2C_MPU6050_I2C_MASTER.c ****                             I2C_MPU6050_I2C_MSTR_BUS_BUSY : I2C_MPU6050_I2C_MSTR_NO_ERROR;
 810              		.loc 1 89 0
 811 001e 264B     		ldr	r3, .L76+4
 812 0020 1B68     		ldr	r3, [r3]
 813 0022 DB07     		lsls	r3, r3, #31
 814 0024 0ED5     		bpl	.L74
 815 0026 0826     		movs	r6, #8
 816 0028 0FE0     		b	.L68
ARM GAS  C:\Users\Asus\AppData\Local\Temp\ccaf8y9d.s 			page 33


 817              	.LVL60:
 818              	.L69:
  92:Generated_Source\PSoC4/I2C_MPU6050_I2C_MASTER.c ****         {
 819              		.loc 1 92 0
 820 002a 224B     		ldr	r3, .L76
 821 002c 1B78     		ldrb	r3, [r3]
 822 002e 602B     		cmp	r3, #96
 823 0030 0AD1     		bne	.L75
  94:Generated_Source\PSoC4/I2C_MPU6050_I2C_MASTER.c ****                               errStatus  = I2C_MPU6050_I2C_MSTR_NO_ERROR;
 824              		.loc 1 94 0
 825 0032 224A     		ldr	r2, .L76+8
 826              	.LVL61:
 827 0034 1388     		ldrh	r3, [r2]
 828 0036 0821     		movs	r1, #8
 829              	.LVL62:
 830 0038 8B43     		bics	r3, r1
 831 003a 1380     		strh	r3, [r2]
 832              	.LVL63:
  95:Generated_Source\PSoC4/I2C_MPU6050_I2C_MASTER.c ****         }
 833              		.loc 1 95 0
 834 003c 0026     		movs	r6, #0
 835 003e 04E0     		b	.L68
 836              	.LVL64:
 837              	.L73:
  79:Generated_Source\PSoC4/I2C_MPU6050_I2C_MASTER.c **** 
 838              		.loc 1 79 0
 839 0040 0426     		movs	r6, #4
 840 0042 02E0     		b	.L68
 841              	.LVL65:
 842              	.L74:
  89:Generated_Source\PSoC4/I2C_MPU6050_I2C_MASTER.c ****                             I2C_MPU6050_I2C_MSTR_BUS_BUSY : I2C_MPU6050_I2C_MSTR_NO_ERROR;
 843              		.loc 1 89 0
 844 0044 0026     		movs	r6, #0
 845 0046 00E0     		b	.L68
 846              	.LVL66:
 847              	.L75:
  79:Generated_Source\PSoC4/I2C_MPU6050_I2C_MASTER.c **** 
 848              		.loc 1 79 0
 849 0048 0426     		movs	r6, #4
 850              	.LVL67:
 851              	.L68:
 105:Generated_Source\PSoC4/I2C_MPU6050_I2C_MASTER.c ****     {
 852              		.loc 1 105 0
 853 004a 002E     		cmp	r6, #0
 854 004c 2CD1     		bne	.L70
 108:Generated_Source\PSoC4/I2C_MPU6050_I2C_MASTER.c ****         I2C_MPU6050_mstrWrBufIndexTmp = 0u;
 855              		.loc 1 108 0
 856 004e 2822     		movs	r2, #40
 857 0050 184B     		ldr	r3, .L76
 858 0052 1A70     		strb	r2, [r3]
 109:Generated_Source\PSoC4/I2C_MPU6050_I2C_MASTER.c ****         I2C_MPU6050_mstrWrBufIndex    = 0u;
 859              		.loc 1 109 0
 860 0054 0023     		movs	r3, #0
 861 0056 1A4A     		ldr	r2, .L76+12
 862 0058 1360     		str	r3, [r2]
 110:Generated_Source\PSoC4/I2C_MPU6050_I2C_MASTER.c ****         I2C_MPU6050_mstrWrBufSize     = cnt;
 863              		.loc 1 110 0
ARM GAS  C:\Users\Asus\AppData\Local\Temp\ccaf8y9d.s 			page 34


 864 005a 1A4A     		ldr	r2, .L76+16
 865 005c 1360     		str	r3, [r2]
 111:Generated_Source\PSoC4/I2C_MPU6050_I2C_MASTER.c ****         I2C_MPU6050_mstrWrBufPtr      = (volatile uint8 *) wrData;
 866              		.loc 1 111 0
 867 005e 1A4B     		ldr	r3, .L76+20
 868 0060 1F60     		str	r7, [r3]
 112:Generated_Source\PSoC4/I2C_MPU6050_I2C_MASTER.c ****         I2C_MPU6050_mstrControl       = (uint8) mode;
 869              		.loc 1 112 0
 870 0062 1A4B     		ldr	r3, .L76+24
 871 0064 1C60     		str	r4, [r3]
 113:Generated_Source\PSoC4/I2C_MPU6050_I2C_MASTER.c **** 
 872              		.loc 1 113 0
 873 0066 EAB2     		uxtb	r2, r5
 874 0068 194B     		ldr	r3, .L76+28
 875 006a 1A70     		strb	r2, [r3]
 115:Generated_Source\PSoC4/I2C_MPU6050_I2C_MASTER.c **** 
 876              		.loc 1 115 0
 877 006c 019B     		ldr	r3, [sp, #4]
 878 006e 5C00     		lsls	r4, r3, #1
 879              	.LVL68:
 880 0070 FF23     		movs	r3, #255
 881 0072 1C40     		ands	r4, r3
 882              	.LVL69:
 117:Generated_Source\PSoC4/I2C_MPU6050_I2C_MASTER.c **** 
 883              		.loc 1 117 0
 884 0074 114A     		ldr	r2, .L76+8
 885 0076 1388     		ldrh	r3, [r2]
 886 0078 0221     		movs	r1, #2
 887 007a 8B43     		bics	r3, r1
 888 007c 1380     		strh	r3, [r2]
 119:Generated_Source\PSoC4/I2C_MPU6050_I2C_MASTER.c ****         I2C_MPU6050_ClearTxInterruptSource(I2C_MPU6050_INTR_TX_UNDERFLOW);
 889              		.loc 1 119 0
 890 007e 154A     		ldr	r2, .L76+32
 891 0080 154B     		ldr	r3, .L76+36
 892 0082 1A60     		str	r2, [r3]
 893              	.LVL70:
 120:Generated_Source\PSoC4/I2C_MPU6050_I2C_MASTER.c ****         /* The TX and RX FIFO have to be EMPTY */
 894              		.loc 1 120 0
 895 0084 4022     		movs	r2, #64
 896 0086 154B     		ldr	r3, .L76+40
 897 0088 1A60     		str	r2, [r3]
 124:Generated_Source\PSoC4/I2C_MPU6050_I2C_MASTER.c ****         {
 898              		.loc 1 124 0
 899 008a EB07     		lsls	r3, r5, #31
 900 008c 04D5     		bpl	.L71
 126:Generated_Source\PSoC4/I2C_MPU6050_I2C_MASTER.c ****             I2C_MPU6050_TX_FIFO_WR_REG = slaveAddress;
 901              		.loc 1 126 0
 902 008e FFF7FEFF 		bl	I2C_MPU6050_I2CReStartGeneration
 903              	.LVL71:
 127:Generated_Source\PSoC4/I2C_MPU6050_I2C_MASTER.c ****         }
 904              		.loc 1 127 0
 905 0092 134B     		ldr	r3, .L76+44
 906 0094 1C60     		str	r4, [r3]
 907 0096 04E0     		b	.L72
 908              	.L71:
 131:Generated_Source\PSoC4/I2C_MPU6050_I2C_MASTER.c ****             I2C_MPU6050_I2C_MASTER_GENERATE_START;
 909              		.loc 1 131 0
ARM GAS  C:\Users\Asus\AppData\Local\Temp\ccaf8y9d.s 			page 35


 910 0098 114B     		ldr	r3, .L76+44
 911 009a 1C60     		str	r4, [r3]
 132:Generated_Source\PSoC4/I2C_MPU6050_I2C_MASTER.c ****         }
 912              		.loc 1 132 0
 913 009c 0222     		movs	r2, #2
 914 009e 114B     		ldr	r3, .L76+48
 915 00a0 1A60     		str	r2, [r3]
 916              	.L72:
 136:Generated_Source\PSoC4/I2C_MPU6050_I2C_MASTER.c ****     }
 917              		.loc 1 136 0
 918 00a2 4022     		movs	r2, #64
 919 00a4 104B     		ldr	r3, .L76+52
 920 00a6 1A60     		str	r2, [r3]
 921              	.LVL72:
 922              	.L70:
 139:Generated_Source\PSoC4/I2C_MPU6050_I2C_MASTER.c **** 
 923              		.loc 1 139 0
 924 00a8 0A20     		movs	r0, #10
 925 00aa FFF7FEFF 		bl	CyIntEnable
 926              	.LVL73:
 142:Generated_Source\PSoC4/I2C_MPU6050_I2C_MASTER.c **** 
 927              		.loc 1 142 0
 928 00ae 3000     		movs	r0, r6
 929 00b0 03B0     		add	sp, sp, #12
 930              		@ sp needed
 931              	.LVL74:
 932              	.LVL75:
 933              	.LVL76:
 934 00b2 F0BD     		pop	{r4, r5, r6, r7, pc}
 935              	.L77:
 936              		.align	2
 937              	.L76:
 938 00b4 00000000 		.word	I2C_MPU6050_state
 939 00b8 64002540 		.word	1076166756
 940 00bc 00000000 		.word	I2C_MPU6050_mstrStatus
 941 00c0 00000000 		.word	I2C_MPU6050_mstrWrBufIndexTmp
 942 00c4 00000000 		.word	I2C_MPU6050_mstrWrBufIndex
 943 00c8 00000000 		.word	I2C_MPU6050_mstrWrBufSize
 944 00cc 00000000 		.word	I2C_MPU6050_mstrWrBufPtr
 945 00d0 00000000 		.word	I2C_MPU6050_mstrControl
 946 00d4 17030000 		.word	791
 947 00d8 000F2540 		.word	1076170496
 948 00dc 800F2540 		.word	1076170624
 949 00e0 40022540 		.word	1076167232
 950 00e4 68002540 		.word	1076166760
 951 00e8 880F2540 		.word	1076170632
 952              		.cfi_endproc
 953              	.LFE2:
 954              		.size	I2C_MPU6050_I2CMasterWriteBuf, .-I2C_MPU6050_I2CMasterWriteBuf
 955              		.section	.text.I2C_MPU6050_I2CMasterReadBuf,"ax",%progbits
 956              		.align	2
 957              		.global	I2C_MPU6050_I2CMasterReadBuf
 958              		.code	16
 959              		.thumb_func
 960              		.type	I2C_MPU6050_I2CMasterReadBuf, %function
 961              	I2C_MPU6050_I2CMasterReadBuf:
 962              	.LFB3:
ARM GAS  C:\Users\Asus\AppData\Local\Temp\ccaf8y9d.s 			page 36


 178:Generated_Source\PSoC4/I2C_MPU6050_I2C_MASTER.c ****     uint32 errStatus;
 963              		.loc 1 178 0
 964              		.cfi_startproc
 965              		@ args = 0, pretend = 0, frame = 8
 966              		@ frame_needed = 0, uses_anonymous_args = 0
 967              	.LVL77:
 968 0000 F0B5     		push	{r4, r5, r6, r7, lr}
 969              		.cfi_def_cfa_offset 20
 970              		.cfi_offset 4, -20
 971              		.cfi_offset 5, -16
 972              		.cfi_offset 6, -12
 973              		.cfi_offset 7, -8
 974              		.cfi_offset 14, -4
 975 0002 83B0     		sub	sp, sp, #12
 976              		.cfi_def_cfa_offset 32
 977 0004 0190     		str	r0, [sp, #4]
 978 0006 0C00     		movs	r4, r1
 979 0008 1700     		movs	r7, r2
 980 000a 1D00     		movs	r5, r3
 981              	.LVL78:
 183:Generated_Source\PSoC4/I2C_MPU6050_I2C_MASTER.c ****     {
 982              		.loc 1 183 0
 983 000c 0029     		cmp	r1, #0
 984 000e 17D0     		beq	.L85
 186:Generated_Source\PSoC4/I2C_MPU6050_I2C_MASTER.c ****         {
 985              		.loc 1 186 0
 986 0010 2D4B     		ldr	r3, .L88
 987              	.LVL79:
 988 0012 1B78     		ldrb	r3, [r3]
 989 0014 102B     		cmp	r3, #16
 990 0016 08D1     		bne	.L80
 188:Generated_Source\PSoC4/I2C_MPU6050_I2C_MASTER.c **** 
 991              		.loc 1 188 0
 992 0018 0A20     		movs	r0, #10
 993              	.LVL80:
 994 001a FFF7FEFF 		bl	CyIntDisable
 995              	.LVL81:
 191:Generated_Source\PSoC4/I2C_MPU6050_I2C_MASTER.c ****                             I2C_MPU6050_I2C_MSTR_BUS_BUSY : I2C_MPU6050_I2C_MSTR_NO_ERROR;
 996              		.loc 1 191 0
 997 001e 2B4B     		ldr	r3, .L88+4
 998 0020 1B68     		ldr	r3, [r3]
 999 0022 DB07     		lsls	r3, r3, #31
 1000 0024 0ED5     		bpl	.L86
 1001 0026 0826     		movs	r6, #8
 1002 0028 0FE0     		b	.L79
 1003              	.LVL82:
 1004              	.L80:
 194:Generated_Source\PSoC4/I2C_MPU6050_I2C_MASTER.c ****         {
 1005              		.loc 1 194 0
 1006 002a 274B     		ldr	r3, .L88
 1007 002c 1B78     		ldrb	r3, [r3]
 1008 002e 602B     		cmp	r3, #96
 1009 0030 0AD1     		bne	.L87
 196:Generated_Source\PSoC4/I2C_MPU6050_I2C_MASTER.c ****                               errStatus  =  I2C_MPU6050_I2C_MSTR_NO_ERROR;
 1010              		.loc 1 196 0
 1011 0032 274A     		ldr	r2, .L88+8
 1012              	.LVL83:
ARM GAS  C:\Users\Asus\AppData\Local\Temp\ccaf8y9d.s 			page 37


 1013 0034 1388     		ldrh	r3, [r2]
 1014 0036 0821     		movs	r1, #8
 1015              	.LVL84:
 1016 0038 8B43     		bics	r3, r1
 1017 003a 1380     		strh	r3, [r2]
 1018              	.LVL85:
 197:Generated_Source\PSoC4/I2C_MPU6050_I2C_MASTER.c ****         }
 1019              		.loc 1 197 0
 1020 003c 0026     		movs	r6, #0
 1021 003e 04E0     		b	.L79
 1022              	.LVL86:
 1023              	.L85:
 181:Generated_Source\PSoC4/I2C_MPU6050_I2C_MASTER.c **** 
 1024              		.loc 1 181 0
 1025 0040 0426     		movs	r6, #4
 1026 0042 02E0     		b	.L79
 1027              	.LVL87:
 1028              	.L86:
 191:Generated_Source\PSoC4/I2C_MPU6050_I2C_MASTER.c ****                             I2C_MPU6050_I2C_MSTR_BUS_BUSY : I2C_MPU6050_I2C_MSTR_NO_ERROR;
 1029              		.loc 1 191 0
 1030 0044 0026     		movs	r6, #0
 1031 0046 00E0     		b	.L79
 1032              	.LVL88:
 1033              	.L87:
 181:Generated_Source\PSoC4/I2C_MPU6050_I2C_MASTER.c **** 
 1034              		.loc 1 181 0
 1035 0048 0426     		movs	r6, #4
 1036              	.LVL89:
 1037              	.L79:
 206:Generated_Source\PSoC4/I2C_MPU6050_I2C_MASTER.c ****     {
 1038              		.loc 1 206 0
 1039 004a 002E     		cmp	r6, #0
 1040 004c 36D1     		bne	.L81
 209:Generated_Source\PSoC4/I2C_MPU6050_I2C_MASTER.c ****         I2C_MPU6050_mstrRdBufIndex = 0u;
 1041              		.loc 1 209 0
 1042 004e 2922     		movs	r2, #41
 1043 0050 1D4B     		ldr	r3, .L88
 1044 0052 1A70     		strb	r2, [r3]
 210:Generated_Source\PSoC4/I2C_MPU6050_I2C_MASTER.c ****         I2C_MPU6050_mstrRdBufSize  = cnt;
 1045              		.loc 1 210 0
 1046 0054 0022     		movs	r2, #0
 1047 0056 1F4B     		ldr	r3, .L88+12
 1048 0058 1A60     		str	r2, [r3]
 211:Generated_Source\PSoC4/I2C_MPU6050_I2C_MASTER.c ****         I2C_MPU6050_mstrRdBufPtr   = (volatile uint8 *) rdData;
 1049              		.loc 1 211 0
 1050 005a 1F4B     		ldr	r3, .L88+16
 1051 005c 1F60     		str	r7, [r3]
 212:Generated_Source\PSoC4/I2C_MPU6050_I2C_MASTER.c ****         I2C_MPU6050_mstrControl    = (uint8) mode;
 1052              		.loc 1 212 0
 1053 005e 1F4B     		ldr	r3, .L88+20
 1054 0060 1C60     		str	r4, [r3]
 213:Generated_Source\PSoC4/I2C_MPU6050_I2C_MASTER.c **** 
 1055              		.loc 1 213 0
 1056 0062 EAB2     		uxtb	r2, r5
 1057 0064 1E4B     		ldr	r3, .L88+24
 1058 0066 1A70     		strb	r2, [r3]
 215:Generated_Source\PSoC4/I2C_MPU6050_I2C_MASTER.c **** 
ARM GAS  C:\Users\Asus\AppData\Local\Temp\ccaf8y9d.s 			page 38


 1059              		.loc 1 215 0
 1060 0068 019B     		ldr	r3, [sp, #4]
 1061 006a 5C00     		lsls	r4, r3, #1
 1062              	.LVL90:
 1063 006c FF23     		movs	r3, #255
 1064 006e 1C40     		ands	r4, r3
 1065 0070 FE3B     		subs	r3, r3, #254
 1066 0072 1C43     		orrs	r4, r3
 1067              	.LVL91:
 217:Generated_Source\PSoC4/I2C_MPU6050_I2C_MASTER.c **** 
 1068              		.loc 1 217 0
 1069 0074 1649     		ldr	r1, .L88+8
 1070 0076 0A88     		ldrh	r2, [r1]
 1071 0078 9A43     		bics	r2, r3
 1072 007a 0A80     		strh	r2, [r1]
 219:Generated_Source\PSoC4/I2C_MPU6050_I2C_MASTER.c **** 
 1073              		.loc 1 219 0
 1074 007c 1949     		ldr	r1, .L88+28
 1075 007e 1A4A     		ldr	r2, .L88+32
 1076 0080 1160     		str	r1, [r2]
 1077              	.LVL92:
 224:Generated_Source\PSoC4/I2C_MPU6050_I2C_MASTER.c ****         {
 1078              		.loc 1 224 0
 1079 0082 2B42     		tst	r3, r5
 1080 0084 04D0     		beq	.L82
 226:Generated_Source\PSoC4/I2C_MPU6050_I2C_MASTER.c ****             I2C_MPU6050_TX_FIFO_WR_REG = (slaveAddress);
 1081              		.loc 1 226 0
 1082 0086 FFF7FEFF 		bl	I2C_MPU6050_I2CReStartGeneration
 1083              	.LVL93:
 227:Generated_Source\PSoC4/I2C_MPU6050_I2C_MASTER.c ****         }
 1084              		.loc 1 227 0
 1085 008a 184B     		ldr	r3, .L88+36
 1086 008c 1C60     		str	r4, [r3]
 1087 008e 04E0     		b	.L83
 1088              	.L82:
 231:Generated_Source\PSoC4/I2C_MPU6050_I2C_MASTER.c ****             I2C_MPU6050_I2C_MASTER_GENERATE_START;
 1089              		.loc 1 231 0
 1090 0090 164B     		ldr	r3, .L88+36
 1091 0092 1C60     		str	r4, [r3]
 232:Generated_Source\PSoC4/I2C_MPU6050_I2C_MASTER.c ****         }
 1092              		.loc 1 232 0
 1093 0094 0222     		movs	r2, #2
 1094 0096 164B     		ldr	r3, .L88+40
 1095 0098 1A60     		str	r2, [r3]
 1096              	.L83:
 236:Generated_Source\PSoC4/I2C_MPU6050_I2C_MASTER.c ****         {
 1097              		.loc 1 236 0
 1098 009a 0F4B     		ldr	r3, .L88+16
 1099 009c 1B68     		ldr	r3, [r3]
 1100 009e 072B     		cmp	r3, #7
 1101 00a0 03D8     		bhi	.L84
 238:Generated_Source\PSoC4/I2C_MPU6050_I2C_MASTER.c ****         }
 1102              		.loc 1 238 0
 1103 00a2 0422     		movs	r2, #4
 1104 00a4 134B     		ldr	r3, .L88+44
 1105 00a6 1A60     		str	r2, [r3]
 1106 00a8 08E0     		b	.L81
ARM GAS  C:\Users\Asus\AppData\Local\Temp\ccaf8y9d.s 			page 39


 1107              	.L84:
 242:Generated_Source\PSoC4/I2C_MPU6050_I2C_MASTER.c ****             I2C_MPU6050_SetRxInterruptMode(I2C_MPU6050_INTR_RX_FULL);
 1108              		.loc 1 242 0
 1109 00aa 134A     		ldr	r2, .L88+48
 1110 00ac 1368     		ldr	r3, [r2]
 1111 00ae 8021     		movs	r1, #128
 1112 00b0 4900     		lsls	r1, r1, #1
 1113 00b2 0B43     		orrs	r3, r1
 1114 00b4 1360     		str	r3, [r2]
 243:Generated_Source\PSoC4/I2C_MPU6050_I2C_MASTER.c ****         }
 1115              		.loc 1 243 0
 1116 00b6 0822     		movs	r2, #8
 1117 00b8 0E4B     		ldr	r3, .L88+44
 1118 00ba 1A60     		str	r2, [r3]
 1119              	.LVL94:
 1120              	.L81:
 247:Generated_Source\PSoC4/I2C_MPU6050_I2C_MASTER.c **** 
 1121              		.loc 1 247 0
 1122 00bc 0A20     		movs	r0, #10
 1123 00be FFF7FEFF 		bl	CyIntEnable
 1124              	.LVL95:
 250:Generated_Source\PSoC4/I2C_MPU6050_I2C_MASTER.c **** 
 1125              		.loc 1 250 0
 1126 00c2 3000     		movs	r0, r6
 1127 00c4 03B0     		add	sp, sp, #12
 1128              		@ sp needed
 1129              	.LVL96:
 1130              	.LVL97:
 1131              	.LVL98:
 1132 00c6 F0BD     		pop	{r4, r5, r6, r7, pc}
 1133              	.L89:
 1134              		.align	2
 1135              	.L88:
 1136 00c8 00000000 		.word	I2C_MPU6050_state
 1137 00cc 64002540 		.word	1076166756
 1138 00d0 00000000 		.word	I2C_MPU6050_mstrStatus
 1139 00d4 00000000 		.word	I2C_MPU6050_mstrRdBufIndex
 1140 00d8 00000000 		.word	I2C_MPU6050_mstrRdBufSize
 1141 00dc 00000000 		.word	I2C_MPU6050_mstrRdBufPtr
 1142 00e0 00000000 		.word	I2C_MPU6050_mstrControl
 1143 00e4 17030000 		.word	791
 1144 00e8 000F2540 		.word	1076170496
 1145 00ec 40022540 		.word	1076167232
 1146 00f0 68002540 		.word	1076166760
 1147 00f4 C80F2540 		.word	1076170696
 1148 00f8 60002540 		.word	1076166752
 1149              		.cfi_endproc
 1150              	.LFE3:
 1151              		.size	I2C_MPU6050_I2CMasterReadBuf, .-I2C_MPU6050_I2CMasterReadBuf
 1152              		.section	.text.I2C_MPU6050_I2CMasterSendRestart,"ax",%progbits
 1153              		.align	2
 1154              		.global	I2C_MPU6050_I2CMasterSendRestart
 1155              		.code	16
 1156              		.thumb_func
 1157              		.type	I2C_MPU6050_I2CMasterSendRestart, %function
 1158              	I2C_MPU6050_I2CMasterSendRestart:
 1159              	.LFB5:
ARM GAS  C:\Users\Asus\AppData\Local\Temp\ccaf8y9d.s 			page 40


 388:Generated_Source\PSoC4/I2C_MPU6050_I2C_MASTER.c ****     uint32 resetIp;
 1160              		.loc 1 388 0
 1161              		.cfi_startproc
 1162              		@ args = 0, pretend = 0, frame = 0
 1163              		@ frame_needed = 0, uses_anonymous_args = 0
 1164              	.LVL99:
 1165 0000 10B5     		push	{r4, lr}
 1166              		.cfi_def_cfa_offset 8
 1167              		.cfi_offset 4, -8
 1168              		.cfi_offset 14, -4
 1169              	.LVL100:
 396:Generated_Source\PSoC4/I2C_MPU6050_I2C_MASTER.c ****     {
 1170              		.loc 1 396 0
 1171 0002 264B     		ldr	r3, .L101
 1172 0004 1B78     		ldrb	r3, [r3]
 1173 0006 9B06     		lsls	r3, r3, #26
 1174 0008 45D5     		bpl	.L98
 398:Generated_Source\PSoC4/I2C_MPU6050_I2C_MASTER.c **** 
 1175              		.loc 1 398 0
 1176 000a 4000     		lsls	r0, r0, #1
 1177              	.LVL101:
 1178 000c FF24     		movs	r4, #255
 1179 000e 0440     		ands	r4, r0
 1180              	.LVL102:
 400:Generated_Source\PSoC4/I2C_MPU6050_I2C_MASTER.c ****         {
 1181              		.loc 1 400 0
 1182 0010 0029     		cmp	r1, #0
 1183 0012 03D1     		bne	.L92
 402:Generated_Source\PSoC4/I2C_MPU6050_I2C_MASTER.c ****         }
 1184              		.loc 1 402 0
 1185 0014 2422     		movs	r2, #36
 1186 0016 214B     		ldr	r3, .L101
 1187 0018 1A70     		strb	r2, [r3]
 1188 001a 04E0     		b	.L93
 1189              	.L92:
 406:Generated_Source\PSoC4/I2C_MPU6050_I2C_MASTER.c ****                       slaveAddress |= I2C_MPU6050_I2C_READ_FLAG;
 1190              		.loc 1 406 0
 1191 001c 2522     		movs	r2, #37
 1192 001e 1F4B     		ldr	r3, .L101
 1193 0020 1A70     		strb	r2, [r3]
 407:Generated_Source\PSoC4/I2C_MPU6050_I2C_MASTER.c ****         }
 1194              		.loc 1 407 0
 1195 0022 0123     		movs	r3, #1
 1196 0024 1C43     		orrs	r4, r3
 1197              	.LVL103:
 1198              	.L93:
 413:Generated_Source\PSoC4/I2C_MPU6050_I2C_MASTER.c **** 
 1199              		.loc 1 413 0
 1200 0026 1E4A     		ldr	r2, .L101+4
 1201 0028 1E4B     		ldr	r3, .L101+8
 1202 002a 1A60     		str	r2, [r3]
 419:Generated_Source\PSoC4/I2C_MPU6050_I2C_MASTER.c **** 
 1203              		.loc 1 419 0
 1204 002c FFF7FEFF 		bl	I2C_MPU6050_I2CReStartGeneration
 1205              	.LVL104:
 1206              	.L94:
 421:Generated_Source\PSoC4/I2C_MPU6050_I2C_MASTER.c ****         {
ARM GAS  C:\Users\Asus\AppData\Local\Temp\ccaf8y9d.s 			page 41


 1207              		.loc 1 421 0 discriminator 1
 1208 0030 1D4B     		ldr	r3, .L101+12
 1209 0032 1B68     		ldr	r3, [r3]
 1210 0034 DB07     		lsls	r3, r3, #31
 1211 0036 FBD4     		bmi	.L94
 427:Generated_Source\PSoC4/I2C_MPU6050_I2C_MASTER.c **** 
 1212              		.loc 1 427 0
 1213 0038 1C4B     		ldr	r3, .L101+16
 1214 003a 1C60     		str	r4, [r3]
 1215              	.L95:
 430:Generated_Source\PSoC4/I2C_MPU6050_I2C_MASTER.c ****                                                   I2C_MPU6050_INTR_MASTER_I2C_NACK     |
 1216              		.loc 1 430 0 discriminator 1
 1217 003c 194B     		ldr	r3, .L101+8
 1218 003e 1A68     		ldr	r2, [r3]
 1219 0040 0823     		movs	r3, #8
 1220 0042 FF33     		adds	r3, r3, #255
 1221 0044 1A42     		tst	r2, r3
 1222 0046 F9D0     		beq	.L95
 439:Generated_Source\PSoC4/I2C_MPU6050_I2C_MASTER.c ****         {
 1223              		.loc 1 439 0
 1224 0048 164B     		ldr	r3, .L101+8
 1225 004a 1B68     		ldr	r3, [r3]
 1226 004c 5B07     		lsls	r3, r3, #29
 1227 004e 14D4     		bmi	.L99
 443:Generated_Source\PSoC4/I2C_MPU6050_I2C_MASTER.c ****         {
 1228              		.loc 1 443 0
 1229 0050 144B     		ldr	r3, .L101+8
 1230 0052 1B68     		ldr	r3, [r3]
 1231 0054 9B07     		lsls	r3, r3, #30
 1232 0056 13D4     		bmi	.L100
 447:Generated_Source\PSoC4/I2C_MPU6050_I2C_MASTER.c ****         {
 1233              		.loc 1 447 0
 1234 0058 124B     		ldr	r3, .L101+8
 1235 005a 1B68     		ldr	r3, [r3]
 1236 005c DB07     		lsls	r3, r3, #31
 1237 005e 05D5     		bpl	.L97
 449:Generated_Source\PSoC4/I2C_MPU6050_I2C_MASTER.c ****                          errStatus = I2C_MPU6050_I2C_MSTR_ERR_ARB_LOST;
 1238              		.loc 1 449 0
 1239 0060 1022     		movs	r2, #16
 1240 0062 0E4B     		ldr	r3, .L101
 1241 0064 1A70     		strb	r2, [r3]
 1242              	.LVL105:
 450:Generated_Source\PSoC4/I2C_MPU6050_I2C_MASTER.c ****                          resetIp   = I2C_MPU6050_I2C_RESET_ERROR;
 1243              		.loc 1 450 0
 1244 0066 0124     		movs	r4, #1
 1245              	.LVL106:
 451:Generated_Source\PSoC4/I2C_MPU6050_I2C_MASTER.c ****         }
 1246              		.loc 1 451 0
 1247 0068 0121     		movs	r1, #1
 1248 006a 0BE0     		b	.L96
 1249              	.LVL107:
 1250              	.L97:
 455:Generated_Source\PSoC4/I2C_MPU6050_I2C_MASTER.c ****                          errStatus = I2C_MPU6050_I2C_MSTR_ERR_BUS_ERR;
 1251              		.loc 1 455 0
 1252 006c 1022     		movs	r2, #16
 1253 006e 0B4B     		ldr	r3, .L101
 1254 0070 1A70     		strb	r2, [r3]
ARM GAS  C:\Users\Asus\AppData\Local\Temp\ccaf8y9d.s 			page 42


 1255              	.LVL108:
 456:Generated_Source\PSoC4/I2C_MPU6050_I2C_MASTER.c ****                          resetIp   = I2C_MPU6050_I2C_RESET_ERROR;
 1256              		.loc 1 456 0
 1257 0072 8024     		movs	r4, #128
 1258              	.LVL109:
 1259 0074 6400     		lsls	r4, r4, #1
 457:Generated_Source\PSoC4/I2C_MPU6050_I2C_MASTER.c ****         }
 1260              		.loc 1 457 0
 1261 0076 0121     		movs	r1, #1
 1262 0078 04E0     		b	.L96
 1263              	.LVL110:
 1264              	.L99:
 441:Generated_Source\PSoC4/I2C_MPU6050_I2C_MASTER.c ****         }
 1265              		.loc 1 441 0
 1266 007a 0024     		movs	r4, #0
 1267              	.LVL111:
 392:Generated_Source\PSoC4/I2C_MPU6050_I2C_MASTER.c ****     errStatus = I2C_MPU6050_I2C_MSTR_NOT_READY;
 1268              		.loc 1 392 0
 1269 007c 0021     		movs	r1, #0
 1270 007e 01E0     		b	.L96
 1271              	.LVL112:
 1272              	.L100:
 445:Generated_Source\PSoC4/I2C_MPU6050_I2C_MASTER.c ****         }
 1273              		.loc 1 445 0
 1274 0080 0224     		movs	r4, #2
 1275              	.LVL113:
 392:Generated_Source\PSoC4/I2C_MPU6050_I2C_MASTER.c ****     errStatus = I2C_MPU6050_I2C_MSTR_NOT_READY;
 1276              		.loc 1 392 0
 1277 0082 0021     		movs	r1, #0
 1278              	.LVL114:
 1279              	.L96:
 460:Generated_Source\PSoC4/I2C_MPU6050_I2C_MASTER.c ****                                                     I2C_MPU6050_INTR_MASTER_I2C_NACK     |
 1280              		.loc 1 460 0
 1281 0084 0822     		movs	r2, #8
 1282 0086 FF32     		adds	r2, r2, #255
 1283 0088 064B     		ldr	r3, .L101+8
 1284 008a 1A60     		str	r2, [r3]
 466:Generated_Source\PSoC4/I2C_MPU6050_I2C_MASTER.c ****         {
 1285              		.loc 1 466 0
 1286 008c 0029     		cmp	r1, #0
 1287 008e 03D0     		beq	.L91
 468:Generated_Source\PSoC4/I2C_MPU6050_I2C_MASTER.c ****         }
 1288              		.loc 1 468 0
 1289 0090 FFF7FEFF 		bl	I2C_MPU6050_I2CFwBlockReset
 1290              	.LVL115:
 1291 0094 00E0     		b	.L91
 1292              	.LVL116:
 1293              	.L98:
 393:Generated_Source\PSoC4/I2C_MPU6050_I2C_MASTER.c **** 
 1294              		.loc 1 393 0
 1295 0096 0424     		movs	r4, #4
 1296              	.LVL117:
 1297              	.L91:
 473:Generated_Source\PSoC4/I2C_MPU6050_I2C_MASTER.c **** 
 1298              		.loc 1 473 0
 1299 0098 2000     		movs	r0, r4
 1300              		@ sp needed
ARM GAS  C:\Users\Asus\AppData\Local\Temp\ccaf8y9d.s 			page 43


 1301              	.LVL118:
 1302 009a 10BD     		pop	{r4, pc}
 1303              	.L102:
 1304              		.align	2
 1305              	.L101:
 1306 009c 00000000 		.word	I2C_MPU6050_state
 1307 00a0 17030000 		.word	791
 1308 00a4 000F2540 		.word	1076170496
 1309 00a8 68002540 		.word	1076166760
 1310 00ac 40022540 		.word	1076167232
 1311              		.cfi_endproc
 1312              	.LFE5:
 1313              		.size	I2C_MPU6050_I2CMasterSendRestart, .-I2C_MPU6050_I2CMasterSendRestart
 1314              		.comm	I2C_MPU6050_mstrWrBufIndexTmp,4,4
 1315              		.comm	I2C_MPU6050_mstrWrBufIndex,4,4
 1316              		.comm	I2C_MPU6050_mstrWrBufSize,4,4
 1317              		.comm	I2C_MPU6050_mstrWrBufPtr,4,4
 1318              		.comm	I2C_MPU6050_mstrRdBufIndex,4,4
 1319              		.comm	I2C_MPU6050_mstrRdBufSize,4,4
 1320              		.comm	I2C_MPU6050_mstrRdBufPtr,4,4
 1321              		.comm	I2C_MPU6050_mstrControl,1,1
 1322              		.comm	I2C_MPU6050_mstrStatus,2,2
 1323              		.text
 1324              	.Letext0:
 1325              		.file 2 "Generated_Source\\PSoC4/cytypes.h"
 1326              		.file 3 "Generated_Source\\PSoC4\\I2C_MPU6050_I2C_PVT.h"
 1327              		.file 4 "Generated_Source\\PSoC4/CyLib.h"