ARM GAS  C:\Users\Asus\AppData\Local\Temp\ccQorR6y.s 			page 1


   1              		.syntax unified
   2              		.cpu cortex-m0
   3              		.fpu softvfp
   4              		.eabi_attribute 20, 1
   5              		.eabi_attribute 21, 1
   6              		.eabi_attribute 23, 3
   7              		.eabi_attribute 24, 1
   8              		.eabi_attribute 25, 1
   9              		.eabi_attribute 26, 1
  10              		.eabi_attribute 30, 1
  11              		.eabi_attribute 34, 0
  12              		.eabi_attribute 18, 4
  13              		.thumb
  14              		.syntax unified
  15              		.file	"main.c"
  16              		.text
  17              	.Ltext0:
  18              		.cfi_sections	.debug_frame
  19              		.section	.text.main,"ax",%progbits
  20              		.align	2
  21              		.global	main
  22              		.code	16
  23              		.thumb_func
  24              		.type	main, %function
  25              	main:
  26              	.LFB63:
  27              		.file 1 "main.c"
   1:main.c        **** /* ========================================
   2:main.c        ****  *
   3:main.c        ****  * Copyright YOUR COMPANY, THE YEAR
   4:main.c        ****  * All Rights Reserved
   5:main.c        ****  * UNPUBLISHED, LICENSED SOFTWARE.
   6:main.c        ****  *
   7:main.c        ****  * CONFIDENTIAL AND PROPRIETARY INFORMATION
   8:main.c        ****  * WHICH IS THE PROPERTY OF your company.
   9:main.c        ****  *
  10:main.c        ****  * ========================================
  11:main.c        **** */
  12:main.c        **** #include <project.h>
  13:main.c        **** #include <stdio.h>
  14:main.c        **** #include <mpu6050.h>
  15:main.c        **** 
  16:main.c        **** void StackEventHandler( uint32 eventCode, void *eventParam );
  17:main.c        **** 
  18:main.c        **** int main (void)
  19:main.c        **** {
  28              		.loc 1 19 0
  29              		.cfi_startproc
  30              		@ args = 0, pretend = 0, frame = 64
  31              		@ frame_needed = 0, uses_anonymous_args = 0
  32 0000 F0B5     		push	{r4, r5, r6, r7, lr}
  33              		.cfi_def_cfa_offset 20
  34              		.cfi_offset 4, -20
  35              		.cfi_offset 5, -16
  36              		.cfi_offset 6, -12
  37              		.cfi_offset 7, -8
  38              		.cfi_offset 14, -4
ARM GAS  C:\Users\Asus\AppData\Local\Temp\ccQorR6y.s 			page 2


  39 0002 4F46     		mov	r7, r9
  40 0004 4646     		mov	r6, r8
  41 0006 C0B4     		push	{r6, r7}
  42              		.cfi_def_cfa_offset 28
  43              		.cfi_offset 8, -28
  44              		.cfi_offset 9, -24
  45 0008 95B0     		sub	sp, sp, #84
  46              		.cfi_def_cfa_offset 112
  20:main.c        ****     CyGlobalIntEnable;   /* Enable global interrupts */
  47              		.loc 1 20 0
  48              		.syntax divided
  49              	@ 20 "main.c" 1
  50 000a 62B6     		CPSIE   i
  51              	@ 0 "" 2
  21:main.c        **** //    
  22:main.c        **** //    UART_Start();
  23:main.c        **** //    
  24:main.c        **** //    char string[30];
  25:main.c        **** //    int yoyo = 12;
  26:main.c        **** //    
  27:main.c        **** //    for(;;){
  28:main.c        **** //        yoyo++;
  29:main.c        **** //        sprintf(string,"%d\n",yoyo);
  30:main.c        **** //    UART_UartPutString(string);
  31:main.c        **** //    
  32:main.c        **** //    CyDelay(1000);
  33:main.c        **** //    
  34:main.c        **** //    }
  35:main.c        ****     
  36:main.c        ****         char buf[50]; //just to hold text values in for writing to UART
  37:main.c        ****     
  38:main.c        **** 	int16_t ax, ay, az;
  39:main.c        **** 	int16_t gx, gy, gz;
  40:main.c        ****     
  41:main.c        **** 	I2C_MPU6050_Start();
  52              		.loc 1 41 0
  53              		.thumb
  54              		.syntax unified
  55 000c FFF7FEFF 		bl	I2C_MPU6050_Start
  56              	.LVL0:
  42:main.c        **** 	UART_Start();
  57              		.loc 1 42 0
  58 0010 FFF7FEFF 		bl	UART_Start
  59              	.LVL1:
  43:main.c        ****     
  44:main.c        ****     CyGlobalIntEnable; /* Enable global interrupts. */
  60              		.loc 1 44 0
  61              		.syntax divided
  62              	@ 44 "main.c" 1
  63 0014 62B6     		CPSIE   i
  64              	@ 0 "" 2
  45:main.c        ****     
  46:main.c        ****     MPU6050_init();
  65              		.loc 1 46 0
  66              		.thumb
  67              		.syntax unified
  68 0016 FFF7FEFF 		bl	MPU6050_init
ARM GAS  C:\Users\Asus\AppData\Local\Temp\ccQorR6y.s 			page 3


  69              	.LVL2:
  47:main.c        **** 	MPU6050_initialize();
  70              		.loc 1 47 0
  71 001a FFF7FEFF 		bl	MPU6050_initialize
  72              	.LVL3:
  48:main.c        **** 	UART_UartPutString(MPU6050_testConnection() ? "MPU6050 connection successful\n\r" : "MPU6050 conne
  73              		.loc 1 48 0
  74 001e FFF7FEFF 		bl	MPU6050_testConnection
  75              	.LVL4:
  76 0022 0028     		cmp	r0, #0
  77 0024 01D0     		beq	.L4
  78 0026 1E48     		ldr	r0, .L5
  79 0028 00E0     		b	.L2
  80              	.L4:
  81 002a 1E48     		ldr	r0, .L5+4
  82              	.L2:
  83              		.loc 1 48 0 is_stmt 0 discriminator 4
  84 002c FFF7FEFF 		bl	UART_UartPutString
  85              	.LVL5:
  49:main.c        ****     
  50:main.c        ****     UART_UartPutString("Raw values from gyroscope..\n\r");
  86              		.loc 1 50 0 is_stmt 1 discriminator 4
  87 0030 1D48     		ldr	r0, .L5+8
  88 0032 FFF7FEFF 		bl	UART_UartPutString
  89              	.LVL6:
  90              	.L3:
  51:main.c        ****         
  52:main.c        ****     while(1)
  53:main.c        ****     {
  54:main.c        ****       MPU6050_getMotion6(&ax, &ay, &az, &gx, &gy, &gz);
  91              		.loc 1 54 0 discriminator 1
  92 0036 05AD     		add	r5, sp, #20
  93 0038 1624     		movs	r4, #22
  94 003a 6C44     		add	r4, r4, sp
  95 003c 06AB     		add	r3, sp, #24
  96 003e 9946     		mov	r9, r3
  97 0040 1A23     		movs	r3, #26
  98 0042 6B44     		add	r3, r3, sp
  99 0044 9846     		mov	r8, r3
 100 0046 04AF     		add	r7, sp, #16
 101 0048 0197     		str	r7, [sp, #4]
 102 004a 1226     		movs	r6, #18
 103 004c 6E44     		add	r6, r6, sp
 104 004e 0096     		str	r6, [sp]
 105 0050 2B00     		movs	r3, r5
 106 0052 2200     		movs	r2, r4
 107 0054 4946     		mov	r1, r9
 108 0056 4046     		mov	r0, r8
 109 0058 FFF7FEFF 		bl	MPU6050_getMotion6
 110              	.LVL7:
  55:main.c        ****       
  56:main.c        ****       sprintf(buf, "AX:%d, AY:%d, AZ:%d || GX:%d, GY:%d, GZ:%d,\t", ax,ay,az,gx,gy,gz);
 111              		.loc 1 56 0 discriminator 1
 112 005c 4B46     		mov	r3, r9
 113 005e 0022     		movs	r2, #0
 114 0060 9B5E     		ldrsh	r3, [r3, r2]
 115 0062 4246     		mov	r2, r8
ARM GAS  C:\Users\Asus\AppData\Local\Temp\ccQorR6y.s 			page 4


 116 0064 0021     		movs	r1, #0
 117 0066 525E     		ldrsh	r2, [r2, r1]
 118 0068 0020     		movs	r0, #0
 119 006a 395E     		ldrsh	r1, [r7, r0]
 120 006c 0391     		str	r1, [sp, #12]
 121 006e 0020     		movs	r0, #0
 122 0070 315E     		ldrsh	r1, [r6, r0]
 123 0072 0291     		str	r1, [sp, #8]
 124 0074 0020     		movs	r0, #0
 125 0076 295E     		ldrsh	r1, [r5, r0]
 126 0078 0191     		str	r1, [sp, #4]
 127 007a 0020     		movs	r0, #0
 128 007c 215E     		ldrsh	r1, [r4, r0]
 129 007e 0091     		str	r1, [sp]
 130 0080 0A49     		ldr	r1, .L5+12
 131 0082 07A8     		add	r0, sp, #28
 132 0084 FFF7FEFF 		bl	sprintf
 133              	.LVL8:
  57:main.c        ****       UART_UartPutString(buf);
 134              		.loc 1 57 0 discriminator 1
 135 0088 07A8     		add	r0, sp, #28
 136 008a FFF7FEFF 		bl	UART_UartPutString
 137              	.LVL9:
  58:main.c        ****       UART_UartPutString("\n\r");
 138              		.loc 1 58 0 discriminator 1
 139 008e 0848     		ldr	r0, .L5+16
 140 0090 FFF7FEFF 		bl	UART_UartPutString
 141              	.LVL10:
  59:main.c        ****       CyDelay(300);
 142              		.loc 1 59 0 discriminator 1
 143 0094 9620     		movs	r0, #150
 144 0096 4000     		lsls	r0, r0, #1
 145 0098 FFF7FEFF 		bl	CyDelay
 146              	.LVL11:
 147 009c CBE7     		b	.L3
 148              	.L6:
 149 009e C046     		.align	2
 150              	.L5:
 151 00a0 00000000 		.word	.LC0
 152 00a4 20000000 		.word	.LC2
 153 00a8 40000000 		.word	.LC4
 154 00ac 60000000 		.word	.LC6
 155 00b0 90000000 		.word	.LC8
 156              		.cfi_endproc
 157              	.LFE63:
 158              		.size	main, .-main
 159              		.section	.text.StackEventHandler,"ax",%progbits
 160              		.align	2
 161              		.global	StackEventHandler
 162              		.code	16
 163              		.thumb_func
 164              		.type	StackEventHandler, %function
 165              	StackEventHandler:
 166              	.LFB64:
  60:main.c        ****     }
  61:main.c        **** //     while(1)
  62:main.c        **** //    {
ARM GAS  C:\Users\Asus\AppData\Local\Temp\ccQorR6y.s 			page 5


  63:main.c        **** //        
  64:main.c        **** //      sprintf(buf, "AX:%d, AY:%d, AZ:%d || GX:%d, GY:%d, GZ:%d,\t", 7,3,3,8,2,4);
  65:main.c        **** //      UART_1_UartPutString(buf);
  66:main.c        **** //      UART_1_UartPutString("\n\r");
  67:main.c        **** //      CyDelay(300);
  68:main.c        **** //    }
  69:main.c        ****     
  70:main.c        ****     
  71:main.c        ****     /* Place your initialization/startup code here (e.g. MyInst_Start()) */
  72:main.c        **** 
  73:main.c        ****     CyBle_Start( StackEventHandler );
  74:main.c        ****     
  75:main.c        ****     for(;;)
  76:main.c        ****     {
  77:main.c        ****         /* Place your application code here */
  78:main.c        ****         CyBle_ProcessEvents();
  79:main.c        ****     }
  80:main.c        **** }
  81:main.c        **** 
  82:main.c        **** void StackEventHandler( uint32 eventCode, void *eventParam )
  83:main.c        **** {
 167              		.loc 1 83 0
 168              		.cfi_startproc
 169              		@ args = 0, pretend = 0, frame = 0
 170              		@ frame_needed = 0, uses_anonymous_args = 0
 171              		@ link register save eliminated.
 172              	.LVL12:
  84:main.c        ****     switch( eventCode )
  85:main.c        ****     {
  86:main.c        ****         /* Generic events */
  87:main.c        **** 
  88:main.c        ****         case CYBLE_EVT_HOST_INVALID:
  89:main.c        ****         break;
  90:main.c        **** 
  91:main.c        ****         case CYBLE_EVT_STACK_ON:
  92:main.c        ****             /* CyBle_GappStartAdvertisement( CYBLE_ADVERTISING_FAST ); */
  93:main.c        ****         break;
  94:main.c        **** 
  95:main.c        ****         case CYBLE_EVT_TIMEOUT:
  96:main.c        ****         break;
  97:main.c        **** 
  98:main.c        ****         case CYBLE_EVT_HARDWARE_ERROR:
  99:main.c        ****         break;
 100:main.c        **** 
 101:main.c        ****         case CYBLE_EVT_HCI_STATUS:
 102:main.c        ****         break;
 103:main.c        **** 
 104:main.c        ****         case CYBLE_EVT_STACK_BUSY_STATUS:
 105:main.c        ****         break;
 106:main.c        **** 
 107:main.c        ****         case CYBLE_EVT_PENDING_FLASH_WRITE:
 108:main.c        ****         break;
 109:main.c        **** 
 110:main.c        **** 
 111:main.c        ****         /* GAP events */
 112:main.c        **** 
 113:main.c        ****         case CYBLE_EVT_GAP_AUTH_REQ:
ARM GAS  C:\Users\Asus\AppData\Local\Temp\ccQorR6y.s 			page 6


 114:main.c        ****         break;
 115:main.c        **** 
 116:main.c        ****         case CYBLE_EVT_GAP_PASSKEY_ENTRY_REQUEST:
 117:main.c        ****         break;
 118:main.c        **** 
 119:main.c        ****         case CYBLE_EVT_GAP_PASSKEY_DISPLAY_REQUEST:
 120:main.c        ****         break;
 121:main.c        **** 
 122:main.c        ****         case CYBLE_EVT_GAP_AUTH_COMPLETE:
 123:main.c        ****         break;
 124:main.c        **** 
 125:main.c        ****         case CYBLE_EVT_GAP_AUTH_FAILED:
 126:main.c        ****         break;
 127:main.c        **** 
 128:main.c        ****         case CYBLE_EVT_GAP_DEVICE_CONNECTED:
 129:main.c        ****         break;
 130:main.c        **** 
 131:main.c        ****         case CYBLE_EVT_GAP_DEVICE_DISCONNECTED:
 132:main.c        ****             /* CyBle_GappStartAdvertisement(CYBLE_ADVERTISING_FAST); */
 133:main.c        ****         break;
 134:main.c        **** 
 135:main.c        ****         case CYBLE_EVT_GAP_ENCRYPT_CHANGE:
 136:main.c        ****         break;
 137:main.c        **** 
 138:main.c        ****         case CYBLE_EVT_GAP_CONNECTION_UPDATE_COMPLETE:
 139:main.c        ****         break;
 140:main.c        **** 
 141:main.c        ****         case CYBLE_EVT_GAP_KEYINFO_EXCHNGE_CMPLT:
 142:main.c        ****         break;
 143:main.c        **** 
 144:main.c        **** 
 145:main.c        ****         /* GAP Peripheral events */
 146:main.c        **** 
 147:main.c        ****         case CYBLE_EVT_GAPP_ADVERTISEMENT_START_STOP:
 148:main.c        ****         break;
 149:main.c        **** 
 150:main.c        **** 
 151:main.c        ****         /* GAP Central events */
 152:main.c        **** 
 153:main.c        ****         case CYBLE_EVT_GAPC_SCAN_PROGRESS_RESULT:
 154:main.c        ****         break;
 155:main.c        **** 
 156:main.c        ****         case CYBLE_EVT_GAPC_SCAN_START_STOP:
 157:main.c        ****         break;
 158:main.c        **** 
 159:main.c        **** 
 160:main.c        ****         /* GATT events */
 161:main.c        **** 
 162:main.c        ****         case CYBLE_EVT_GATT_CONNECT_IND:
 163:main.c        ****         break;
 164:main.c        **** 
 165:main.c        ****         case CYBLE_EVT_GATT_DISCONNECT_IND:
 166:main.c        ****         break;
 167:main.c        **** 
 168:main.c        **** 
 169:main.c        ****         /* GATT Client events (CYBLE_EVENT_T) */
 170:main.c        **** 
ARM GAS  C:\Users\Asus\AppData\Local\Temp\ccQorR6y.s 			page 7


 171:main.c        ****         case CYBLE_EVT_GATTC_ERROR_RSP:
 172:main.c        ****         break;
 173:main.c        **** 
 174:main.c        ****         case CYBLE_EVT_GATTC_XCHNG_MTU_RSP:
 175:main.c        ****         break;
 176:main.c        **** 
 177:main.c        ****         case CYBLE_EVT_GATTC_READ_BY_GROUP_TYPE_RSP:
 178:main.c        ****         break;
 179:main.c        **** 
 180:main.c        ****         case CYBLE_EVT_GATTC_READ_BY_TYPE_RSP:
 181:main.c        ****         break;
 182:main.c        **** 
 183:main.c        ****         case CYBLE_EVT_GATTC_FIND_INFO_RSP:
 184:main.c        ****         break;
 185:main.c        **** 
 186:main.c        ****         case CYBLE_EVT_GATTC_FIND_BY_TYPE_VALUE_RSP:
 187:main.c        ****         break;
 188:main.c        **** 
 189:main.c        ****         case CYBLE_EVT_GATTC_READ_RSP:
 190:main.c        ****         break;
 191:main.c        **** 
 192:main.c        ****         case CYBLE_EVT_GATTC_READ_BLOB_RSP:
 193:main.c        ****         break;
 194:main.c        **** 
 195:main.c        ****         case CYBLE_EVT_GATTC_READ_MULTI_RSP:
 196:main.c        ****         break;
 197:main.c        **** 
 198:main.c        ****         case CYBLE_EVT_GATTC_WRITE_RSP:
 199:main.c        ****         break;
 200:main.c        **** 
 201:main.c        ****         case CYBLE_EVT_GATTC_EXEC_WRITE_RSP:
 202:main.c        ****         break;
 203:main.c        **** 
 204:main.c        ****         case CYBLE_EVT_GATTC_HANDLE_VALUE_NTF:
 205:main.c        ****         break;
 206:main.c        **** 
 207:main.c        ****         case CYBLE_EVT_GATTC_HANDLE_VALUE_IND:
 208:main.c        ****         break;
 209:main.c        **** 
 210:main.c        **** 
 211:main.c        ****         /* GATT Client events (CYBLE_EVT_T) */
 212:main.c        **** 
 213:main.c        ****         case CYBLE_EVT_GATTC_INDICATION:
 214:main.c        ****         break;
 215:main.c        **** 
 216:main.c        ****         case CYBLE_EVT_GATTC_SRVC_DISCOVERY_FAILED:
 217:main.c        ****         break;
 218:main.c        **** 
 219:main.c        ****         case CYBLE_EVT_GATTC_INCL_DISCOVERY_FAILED:
 220:main.c        ****         break;
 221:main.c        **** 
 222:main.c        ****         case CYBLE_EVT_GATTC_CHAR_DISCOVERY_FAILED:
 223:main.c        ****         break;
 224:main.c        **** 
 225:main.c        ****         case CYBLE_EVT_GATTC_DESCR_DISCOVERY_FAILED:
 226:main.c        ****         break;
 227:main.c        **** 
ARM GAS  C:\Users\Asus\AppData\Local\Temp\ccQorR6y.s 			page 8


 228:main.c        ****         case CYBLE_EVT_GATTC_SRVC_DUPLICATION:
 229:main.c        ****         break;
 230:main.c        **** 
 231:main.c        ****         case CYBLE_EVT_GATTC_CHAR_DUPLICATION:
 232:main.c        ****         break;
 233:main.c        **** 
 234:main.c        ****         case CYBLE_EVT_GATTC_DESCR_DUPLICATION:
 235:main.c        ****         break;
 236:main.c        **** 
 237:main.c        ****         case CYBLE_EVT_GATTC_SRVC_DISCOVERY_COMPLETE:
 238:main.c        ****         break;
 239:main.c        **** 
 240:main.c        ****         case CYBLE_EVT_GATTC_INCL_DISCOVERY_COMPLETE:
 241:main.c        ****         break;
 242:main.c        **** 
 243:main.c        ****         case CYBLE_EVT_GATTC_CHAR_DISCOVERY_COMPLETE:
 244:main.c        ****         break;
 245:main.c        **** 
 246:main.c        ****         case CYBLE_EVT_GATTC_DISCOVERY_COMPLETE:
 247:main.c        ****         break;
 248:main.c        **** 
 249:main.c        **** 
 250:main.c        ****         /* GATT Server events (CYBLE_EVENT_T) */
 251:main.c        **** 
 252:main.c        ****         case CYBLE_EVT_GATTS_XCNHG_MTU_REQ:
 253:main.c        ****         break;
 254:main.c        **** 
 255:main.c        ****         case CYBLE_EVT_GATTS_WRITE_REQ:
 256:main.c        ****         break;
 257:main.c        **** 
 258:main.c        ****         case CYBLE_EVT_GATTS_WRITE_CMD_REQ:
 259:main.c        ****         break;
 260:main.c        **** 
 261:main.c        ****         case CYBLE_EVT_GATTS_PREP_WRITE_REQ:
 262:main.c        ****         break;
 263:main.c        **** 
 264:main.c        ****         case CYBLE_EVT_GATTS_EXEC_WRITE_REQ:
 265:main.c        ****         break;
 266:main.c        **** 
 267:main.c        ****         case CYBLE_EVT_GATTS_HANDLE_VALUE_CNF:
 268:main.c        ****         break;
 269:main.c        **** 
 270:main.c        ****         case CYBLE_EVT_GATTS_DATA_SIGNED_CMD_REQ:
 271:main.c        ****         break;
 272:main.c        **** 
 273:main.c        **** 
 274:main.c        ****         /* GATT Server events (CYBLE_EVT_T) */
 275:main.c        **** 
 276:main.c        ****         case CYBLE_EVT_GATTS_INDICATION_ENABLED:
 277:main.c        ****         break;
 278:main.c        **** 
 279:main.c        ****         case CYBLE_EVT_GATTS_INDICATION_DISABLED:
 280:main.c        ****         break;
 281:main.c        **** 
 282:main.c        **** 
 283:main.c        ****         /* L2CAP events */
 284:main.c        **** 
ARM GAS  C:\Users\Asus\AppData\Local\Temp\ccQorR6y.s 			page 9


 285:main.c        ****         case CYBLE_EVT_L2CAP_CONN_PARAM_UPDATE_REQ:
 286:main.c        ****         break;
 287:main.c        **** 
 288:main.c        ****         case CYBLE_EVT_L2CAP_CONN_PARAM_UPDATE_RSP:
 289:main.c        ****         break;
 290:main.c        **** 
 291:main.c        ****         case CYBLE_EVT_L2CAP_COMMAND_REJ:
 292:main.c        ****         break;
 293:main.c        **** 
 294:main.c        ****         case CYBLE_EVT_L2CAP_CBFC_CONN_IND:
 295:main.c        ****         break;
 296:main.c        **** 
 297:main.c        ****         case CYBLE_EVT_L2CAP_CBFC_CONN_CNF:
 298:main.c        ****         break;
 299:main.c        **** 
 300:main.c        ****         case CYBLE_EVT_L2CAP_CBFC_DISCONN_IND:
 301:main.c        ****         break;
 302:main.c        **** 
 303:main.c        ****         case CYBLE_EVT_L2CAP_CBFC_DISCONN_CNF:
 304:main.c        ****         break;
 305:main.c        **** 
 306:main.c        ****         case CYBLE_EVT_L2CAP_CBFC_DATA_READ:
 307:main.c        ****         break;
 308:main.c        **** 
 309:main.c        ****         case CYBLE_EVT_L2CAP_CBFC_RX_CREDIT_IND:
 310:main.c        ****         break;
 311:main.c        **** 
 312:main.c        ****         case CYBLE_EVT_L2CAP_CBFC_TX_CREDIT_IND:
 313:main.c        ****         break;
 314:main.c        **** 
 315:main.c        ****         case CYBLE_EVT_L2CAP_CBFC_DATA_WRITE_IND:
 316:main.c        ****         break;
 317:main.c        **** 
 318:main.c        **** 
 319:main.c        ****         /* default catch-all case */
 320:main.c        **** 
 321:main.c        ****         default:
 322:main.c        ****         break;
 323:main.c        ****     }
 324:main.c        **** }
 173              		.loc 1 324 0
 174              		@ sp needed
 175 0000 7047     		bx	lr
 176              		.cfi_endproc
 177              	.LFE64:
 178              		.size	StackEventHandler, .-StackEventHandler
 179              		.comm	buffer,22,4
 180              		.comm	devAddr,1,1
 181 0002 C046     		.section	.rodata.str1.4,"aMS",%progbits,1
 182              		.align	2
 183              	.LC0:
 184 0000 4D505536 		.ascii	"MPU6050 connection successful\012\015\000"
 184      30353020 
 184      636F6E6E 
 184      65637469 
 184      6F6E2073 
 185              	.LC2:
ARM GAS  C:\Users\Asus\AppData\Local\Temp\ccQorR6y.s 			page 10


 186 0020 4D505536 		.ascii	"MPU6050 connection failed\012\012\015\000"
 186      30353020 
 186      636F6E6E 
 186      65637469 
 186      6F6E2066 
 187 003d 000000   		.space	3
 188              	.LC4:
 189 0040 52617720 		.ascii	"Raw values from gyroscope..\012\015\000"
 189      76616C75 
 189      65732066 
 189      726F6D20 
 189      6779726F 
 190 005e 0000     		.space	2
 191              	.LC6:
 192 0060 41583A25 		.ascii	"AX:%d, AY:%d, AZ:%d || GX:%d, GY:%d, GZ:%d,\011\000"
 192      642C2041 
 192      593A2564 
 192      2C20415A 
 192      3A256420 
 193 008d 000000   		.space	3
 194              	.LC8:
 195 0090 0A0D00   		.ascii	"\012\015\000"
 196              		.text
 197              	.Letext0:
 198              		.file 2 "c:\\program files (x86)\\cypress\\psoc creator\\4.4\\psoc creator\\import\\gnu\\arm\\5.4.
 199              		.file 3 "c:\\program files (x86)\\cypress\\psoc creator\\4.4\\psoc creator\\import\\gnu\\arm\\5.4.
 200              		.file 4 "Generated_Source\\PSoC4/cytypes.h"
 201              		.file 5 "Generated_Source\\PSoC4/BLE_Stack.h"
 202              		.file 6 "Generated_Source\\PSoC4/BLE_ans.h"
 203              		.file 7 "Generated_Source\\PSoC4/BLE_eventHandler.h"
 204              		.file 8 "Generated_Source\\PSoC4/RTC.h"
 205              		.file 9 "./mpu6050.h"
 206              		.file 10 "Generated_Source\\PSoC4/I2C_MPU6050.h"
 207              		.file 11 "Generated_Source\\PSoC4/UART.h"
 208              		.file 12 "Generated_Source\\PSoC4/UART_SPI_UART.h"
 209              		.file 13 "c:\\program files (x86)\\cypress\\psoc creator\\4.4\\psoc creator\\import\\gnu\\arm\\5.4
 210              		.file 14 "Generated_Source\\PSoC4/CyLib.h"