ARM GAS  C:\Users\Asus\AppData\Local\Temp\cc7ymLuX.s 			page 1


   1              		.syntax unified
   2              		.cpu cortex-m0
   3              		.fpu softvfp
   4              		.eabi_attribute 20, 1
   5              		.eabi_attribute 21, 1
   6              		.eabi_attribute 23, 3
   7              		.eabi_attribute 24, 1
   8              		.eabi_attribute 25, 1
   9              		.eabi_attribute 26, 1
  10              		.eabi_attribute 30, 1
  11              		.eabi_attribute 34, 0
  12              		.eabi_attribute 18, 4
  13              		.thumb
  14              		.syntax unified
  15              		.file	"mpu6050.c"
  16              		.text
  17              	.Ltext0:
  18              		.cfi_sections	.debug_frame
  19              		.section	.text.MPU6050_init,"ax",%progbits
  20              		.align	2
  21              		.global	MPU6050_init
  22              		.code	16
  23              		.thumb_func
  24              		.type	MPU6050_init, %function
  25              	MPU6050_init:
  26              	.LFB0:
  27              		.file 1 "mpu6050.c"
   1:mpu6050.c     **** // I2Cdev library collection - MPU6050 I2C device class
   2:mpu6050.c     **** // Based on InvenSense MPU-6050 register map document rev. 2.0, 5/19/2011 (RM-MPU-6000A-00)
   3:mpu6050.c     **** // 8/24/2011 by Jeff Rowberg <jeff@rowberg.net>
   4:mpu6050.c     **** // Updates should (hopefully) always be available at https://github.com/jrowberg/i2cdevlib
   5:mpu6050.c     **** //
   6:mpu6050.c     **** //.10.2020 - .01.2021 is being used by Inna Zhurba
   7:mpu6050.c     **** 
   8:mpu6050.c     **** // NOTE: THIS IS ONLY A PARIAL RELEASE. THIS DEVICE CLASS IS CURRENTLY UNDERGOING ACTIVE
   9:mpu6050.c     **** // DEVELOPMENT AND IS STILL MISSING SOME IMPORTANT FEATURES. PLEASE KEEP THIS IN MIND IF
  10:mpu6050.c     **** // YOU DECIDE TO USE THIS PARTICULAR CODE FOR ANYTHING.
  11:mpu6050.c     **** 
  12:mpu6050.c     **** /* ============================================
  13:mpu6050.c     **** I2Cdev device library code is placed under the MIT license
  14:mpu6050.c     **** Copyright (c) 2012 Jeff Rowberg
  15:mpu6050.c     **** 
  16:mpu6050.c     **** Permission is hereby granted, free of charge, to any person obtaining a copy
  17:mpu6050.c     **** of this software and associated documentation files (the "Software"), to deal
  18:mpu6050.c     **** in the Software without restriction, including without limitation the rights
  19:mpu6050.c     **** to use, copy, modify, merge, publish, distribute, sublicense, and/or sell
  20:mpu6050.c     **** copies of the Software, and to permit persons to whom the Software is
  21:mpu6050.c     **** furnished to do so, subject to the following conditions:
  22:mpu6050.c     **** 
  23:mpu6050.c     **** The above copyright notice and this permission notice shall be included in
  24:mpu6050.c     **** all copies or substantial portions of the Software.
  25:mpu6050.c     **** 
  26:mpu6050.c     **** THE SOFTWARE IS PROVIDED "AS IS", WITHOUT WARRANTY OF ANY KIND, EXPRESS OR
  27:mpu6050.c     **** IMPLIED, INCLUDING BUT NOT LIMITED TO THE WARRANTIES OF MERCHANTABILITY,
  28:mpu6050.c     **** FITNESS FOR A PARTICULAR PURPOSE AND NONINFRINGEMENT. IN NO EVENT SHALL THE
  29:mpu6050.c     **** AUTHORS OR COPYRIGHT HOLDERS BE LIABLE FOR ANY CLAIM, DAMAGES OR OTHER
  30:mpu6050.c     **** LIABILITY, WHETHER IN AN ACTION OF CONTRACT, TORT OR OTHERWISE, ARISING FROM,
ARM GAS  C:\Users\Asus\AppData\Local\Temp\cc7ymLuX.s 			page 2


  31:mpu6050.c     **** OUT OF OR IN CONNECTION WITH THE SOFTWARE OR THE USE OR OTHER DEALINGS IN
  32:mpu6050.c     **** THE SOFTWARE.
  33:mpu6050.c     **** ===============================================
  34:mpu6050.c     **** */
  35:mpu6050.c     **** 
  36:mpu6050.c     **** 
  37:mpu6050.c     **** #include <stdint.h>
  38:mpu6050.c     **** #include "mpu6050.h"
  39:mpu6050.c     **** 
  40:mpu6050.c     **** /** Default constructor, uses default I2C address.
  41:mpu6050.c     ****  * @see MPU6050_DEFAULT_ADDRESS
  42:mpu6050.c     ****  */
  43:mpu6050.c     **** void MPU6050_init() {
  28              		.loc 1 43 0
  29              		.cfi_startproc
  30              		@ args = 0, pretend = 0, frame = 0
  31              		@ frame_needed = 0, uses_anonymous_args = 0
  32              		@ link register save eliminated.
  44:mpu6050.c     ****     devAddr = MPU6050_DEFAULT_ADDRESS;
  33              		.loc 1 44 0
  34 0000 6822     		movs	r2, #104
  35 0002 014B     		ldr	r3, .L2
  36 0004 1A70     		strb	r2, [r3]
  45:mpu6050.c     **** }
  37              		.loc 1 45 0
  38              		@ sp needed
  39 0006 7047     		bx	lr
  40              	.L3:
  41              		.align	2
  42              	.L2:
  43 0008 00000000 		.word	devAddr
  44              		.cfi_endproc
  45              	.LFE0:
  46              		.size	MPU6050_init, .-MPU6050_init
  47              		.section	.text.I2C_MPU6050_I2CAddress,"ax",%progbits
  48              		.align	2
  49              		.global	I2C_MPU6050_I2CAddress
  50              		.code	16
  51              		.thumb_func
  52              		.type	I2C_MPU6050_I2CAddress, %function
  53              	I2C_MPU6050_I2CAddress:
  54              	.LFB1:
  46:mpu6050.c     **** 
  47:mpu6050.c     **** /** Specific address constructor.
  48:mpu6050.c     ****  * @param address I2C address
  49:mpu6050.c     ****  * @see MPU6050_DEFAULT_ADDRESS
  50:mpu6050.c     ****  * @see MPU6050_ADDRESS_AD0_LOW
  51:mpu6050.c     ****  * @see MPU6050_ADDRESS_AD0_HIGH
  52:mpu6050.c     ****  */
  53:mpu6050.c     **** void I2C_MPU6050_I2CAddress(uint8_t address) {
  55              		.loc 1 53 0
  56              		.cfi_startproc
  57              		@ args = 0, pretend = 0, frame = 0
  58              		@ frame_needed = 0, uses_anonymous_args = 0
  59              		@ link register save eliminated.
  60              	.LVL0:
  54:mpu6050.c     ****     devAddr = address;
ARM GAS  C:\Users\Asus\AppData\Local\Temp\cc7ymLuX.s 			page 3


  61              		.loc 1 54 0
  62 0000 014B     		ldr	r3, .L5
  63 0002 1870     		strb	r0, [r3]
  55:mpu6050.c     **** }
  64              		.loc 1 55 0
  65              		@ sp needed
  66 0004 7047     		bx	lr
  67              	.L6:
  68 0006 C046     		.align	2
  69              	.L5:
  70 0008 00000000 		.word	devAddr
  71              		.cfi_endproc
  72              	.LFE1:
  73              		.size	I2C_MPU6050_I2CAddress, .-I2C_MPU6050_I2CAddress
  74              		.section	.text.MPU6050_getAuxVDDIOLevel,"ax",%progbits
  75              		.align	2
  76              		.global	MPU6050_getAuxVDDIOLevel
  77              		.code	16
  78              		.thumb_func
  79              		.type	MPU6050_getAuxVDDIOLevel, %function
  80              	MPU6050_getAuxVDDIOLevel:
  81              	.LFB4:
  56:mpu6050.c     **** 
  57:mpu6050.c     **** /** Power on and prepare for general usage.
  58:mpu6050.c     ****  * This will activate the device and take it out of sleep mode (which must be done
  59:mpu6050.c     ****  * after start-up). This function also sets both the accelerometer and the gyroscope
  60:mpu6050.c     ****  * to their most sensitive settings, namely +/- 2g and +/- 250 degrees/sec, and sets
  61:mpu6050.c     ****  * the clock source to use the X Gyro for reference, which is slightly better than
  62:mpu6050.c     ****  * the default internal clock source.
  63:mpu6050.c     ****  */
  64:mpu6050.c     **** void MPU6050_initialize() {
  65:mpu6050.c     ****     MPU6050_setClockSource(MPU6050_CLOCK_PLL_XGYRO);
  66:mpu6050.c     ****     MPU6050_setFullScaleGyroRange(MPU6050_GYRO_FS_250);
  67:mpu6050.c     ****     MPU6050_setFullScaleAccelRange(MPU6050_ACCEL_FS_2);
  68:mpu6050.c     ****     MPU6050_setSleepEnabled(false); // thanks to Jack Elston for pointing this one out!
  69:mpu6050.c     **** }
  70:mpu6050.c     **** 
  71:mpu6050.c     **** /** Verify the I2C connection.
  72:mpu6050.c     ****  * Make sure the device is connected and responds as expected.
  73:mpu6050.c     ****  * @return True if connection is valid, false otherwise
  74:mpu6050.c     ****  */
  75:mpu6050.c     **** bool MPU6050_testConnection() {
  76:mpu6050.c     ****     return MPU6050_getDeviceID() == 0x34;
  77:mpu6050.c     **** }
  78:mpu6050.c     **** 
  79:mpu6050.c     **** // AUX_VDDIO register (InvenSense demo code calls this RA_*G_OFFS_TC)
  80:mpu6050.c     **** 
  81:mpu6050.c     **** /** Get the auxiliary I2C supply voltage level.
  82:mpu6050.c     ****  * When set to 1, the auxiliary I2C bus high logic level is VDD. When cleared to
  83:mpu6050.c     ****  * 0, the auxiliary I2C bus high logic level is VLOGIC. This does not apply to
  84:mpu6050.c     ****  * the MPU-6000, which does not have a VLOGIC pin.
  85:mpu6050.c     ****  * @return I2C supply voltage level (0=VLOGIC, 1=VDD)
  86:mpu6050.c     ****  */
  87:mpu6050.c     **** uint8_t MPU6050_getAuxVDDIOLevel() {
  82              		.loc 1 87 0
  83              		.cfi_startproc
  84              		@ args = 0, pretend = 0, frame = 0
ARM GAS  C:\Users\Asus\AppData\Local\Temp\cc7ymLuX.s 			page 4


  85              		@ frame_needed = 0, uses_anonymous_args = 0
  86 0000 10B5     		push	{r4, lr}
  87              		.cfi_def_cfa_offset 8
  88              		.cfi_offset 4, -8
  89              		.cfi_offset 14, -4
  88:mpu6050.c     ****     I2CReadBit(devAddr, MPU6050_RA_YG_OFFS_TC, MPU6050_TC_PWR_MODE_BIT, buffer);
  90              		.loc 1 88 0
  91 0002 054C     		ldr	r4, .L8
  92 0004 054B     		ldr	r3, .L8+4
  93 0006 1878     		ldrb	r0, [r3]
  94 0008 2300     		movs	r3, r4
  95 000a 0722     		movs	r2, #7
  96 000c 0121     		movs	r1, #1
  97 000e FFF7FEFF 		bl	I2CReadBit
  98              	.LVL1:
  89:mpu6050.c     ****     return buffer[0];
  99              		.loc 1 89 0
 100 0012 2078     		ldrb	r0, [r4]
  90:mpu6050.c     **** }
 101              		.loc 1 90 0
 102              		@ sp needed
 103 0014 10BD     		pop	{r4, pc}
 104              	.L9:
 105 0016 C046     		.align	2
 106              	.L8:
 107 0018 00000000 		.word	buffer
 108 001c 00000000 		.word	devAddr
 109              		.cfi_endproc
 110              	.LFE4:
 111              		.size	MPU6050_getAuxVDDIOLevel, .-MPU6050_getAuxVDDIOLevel
 112              		.section	.text.MPU6050_setAuxVDDIOLevel,"ax",%progbits
 113              		.align	2
 114              		.global	MPU6050_setAuxVDDIOLevel
 115              		.code	16
 116              		.thumb_func
 117              		.type	MPU6050_setAuxVDDIOLevel, %function
 118              	MPU6050_setAuxVDDIOLevel:
 119              	.LFB5:
  91:mpu6050.c     **** /** Set the auxiliary I2C supply voltage level.
  92:mpu6050.c     ****  * When set to 1, the auxiliary I2C bus high logic level is VDD. When cleared to
  93:mpu6050.c     ****  * 0, the auxiliary I2C bus high logic level is VLOGIC. This does not apply to
  94:mpu6050.c     ****  * the MPU-6000, which does not have a VLOGIC pin.
  95:mpu6050.c     ****  * @param level I2C supply voltage level (0=VLOGIC, 1=VDD)
  96:mpu6050.c     ****  */
  97:mpu6050.c     **** void MPU6050_setAuxVDDIOLevel(uint8_t level) {
 120              		.loc 1 97 0
 121              		.cfi_startproc
 122              		@ args = 0, pretend = 0, frame = 0
 123              		@ frame_needed = 0, uses_anonymous_args = 0
 124              	.LVL2:
 125 0000 10B5     		push	{r4, lr}
 126              		.cfi_def_cfa_offset 8
 127              		.cfi_offset 4, -8
 128              		.cfi_offset 14, -4
 129 0002 0300     		movs	r3, r0
  98:mpu6050.c     ****     I2CWriteBit(devAddr, MPU6050_RA_YG_OFFS_TC, MPU6050_TC_PWR_MODE_BIT, level);
 130              		.loc 1 98 0
ARM GAS  C:\Users\Asus\AppData\Local\Temp\cc7ymLuX.s 			page 5


 131 0004 034A     		ldr	r2, .L11
 132 0006 1078     		ldrb	r0, [r2]
 133              	.LVL3:
 134 0008 0722     		movs	r2, #7
 135 000a 0121     		movs	r1, #1
 136 000c FFF7FEFF 		bl	I2CWriteBit
 137              	.LVL4:
  99:mpu6050.c     **** }
 138              		.loc 1 99 0
 139              		@ sp needed
 140 0010 10BD     		pop	{r4, pc}
 141              	.L12:
 142 0012 C046     		.align	2
 143              	.L11:
 144 0014 00000000 		.word	devAddr
 145              		.cfi_endproc
 146              	.LFE5:
 147              		.size	MPU6050_setAuxVDDIOLevel, .-MPU6050_setAuxVDDIOLevel
 148              		.section	.text.MPU6050_getRate,"ax",%progbits
 149              		.align	2
 150              		.global	MPU6050_getRate
 151              		.code	16
 152              		.thumb_func
 153              		.type	MPU6050_getRate, %function
 154              	MPU6050_getRate:
 155              	.LFB6:
 100:mpu6050.c     **** 
 101:mpu6050.c     **** // SMPLRT_DIV register
 102:mpu6050.c     **** 
 103:mpu6050.c     **** /** Get gyroscope output rate divider.
 104:mpu6050.c     ****  * The sensor register output, FIFO output, DMP sampling, Motion detection, Zero
 105:mpu6050.c     ****  * Motion detection, and Free Fall detection are all based on the Sample Rate.
 106:mpu6050.c     ****  * The Sample Rate is generated by dividing the gyroscope output rate by
 107:mpu6050.c     ****  * SMPLRT_DIV:
 108:mpu6050.c     ****  *
 109:mpu6050.c     ****  * Sample Rate = Gyroscope Output Rate / (1 + SMPLRT_DIV)
 110:mpu6050.c     ****  *
 111:mpu6050.c     ****  * where Gyroscope Output Rate = 8kHz when the DLPF is disabled (DLPF_CFG = 0 or
 112:mpu6050.c     ****  * 7), and 1kHz when the DLPF is enabled (see Register 26).
 113:mpu6050.c     ****  *
 114:mpu6050.c     ****  * Note: The accelerometer output rate is 1kHz. This means that for a Sample
 115:mpu6050.c     ****  * Rate greater than 1kHz, the same accelerometer sample may be output to the
 116:mpu6050.c     ****  * FIFO, DMP, and sensor registers more than once.
 117:mpu6050.c     ****  *
 118:mpu6050.c     ****  * For a diagram of the gyroscope and accelerometer signal paths, see Section 8
 119:mpu6050.c     ****  * of the MPU-6000/MPU-6050 Product Specification document.
 120:mpu6050.c     ****  *
 121:mpu6050.c     ****  * @return Current sample rate
 122:mpu6050.c     ****  * @see MPU6050_RA_SMPLRT_DIV
 123:mpu6050.c     ****  */
 124:mpu6050.c     **** uint8_t MPU6050_getRate() {
 156              		.loc 1 124 0
 157              		.cfi_startproc
 158              		@ args = 0, pretend = 0, frame = 0
 159              		@ frame_needed = 0, uses_anonymous_args = 0
 160 0000 10B5     		push	{r4, lr}
 161              		.cfi_def_cfa_offset 8
ARM GAS  C:\Users\Asus\AppData\Local\Temp\cc7ymLuX.s 			page 6


 162              		.cfi_offset 4, -8
 163              		.cfi_offset 14, -4
 125:mpu6050.c     ****     I2CReadByte(devAddr, MPU6050_RA_SMPLRT_DIV, buffer);
 164              		.loc 1 125 0
 165 0002 044C     		ldr	r4, .L14
 166 0004 044B     		ldr	r3, .L14+4
 167 0006 1878     		ldrb	r0, [r3]
 168 0008 2200     		movs	r2, r4
 169 000a 1921     		movs	r1, #25
 170 000c FFF7FEFF 		bl	I2CReadByte
 171              	.LVL5:
 126:mpu6050.c     ****     return buffer[0];
 172              		.loc 1 126 0
 173 0010 2078     		ldrb	r0, [r4]
 127:mpu6050.c     **** }
 174              		.loc 1 127 0
 175              		@ sp needed
 176 0012 10BD     		pop	{r4, pc}
 177              	.L15:
 178              		.align	2
 179              	.L14:
 180 0014 00000000 		.word	buffer
 181 0018 00000000 		.word	devAddr
 182              		.cfi_endproc
 183              	.LFE6:
 184              		.size	MPU6050_getRate, .-MPU6050_getRate
 185              		.section	.text.MPU6050_setRate,"ax",%progbits
 186              		.align	2
 187              		.global	MPU6050_setRate
 188              		.code	16
 189              		.thumb_func
 190              		.type	MPU6050_setRate, %function
 191              	MPU6050_setRate:
 192              	.LFB7:
 128:mpu6050.c     **** /** Set gyroscope sample rate divider.
 129:mpu6050.c     ****  * @param rate New sample rate divider
 130:mpu6050.c     ****  * @see getRate()
 131:mpu6050.c     ****  * @see MPU6050_RA_SMPLRT_DIV
 132:mpu6050.c     ****  */
 133:mpu6050.c     **** void MPU6050_setRate(uint8_t rate) {
 193              		.loc 1 133 0
 194              		.cfi_startproc
 195              		@ args = 0, pretend = 0, frame = 0
 196              		@ frame_needed = 0, uses_anonymous_args = 0
 197              	.LVL6:
 198 0000 10B5     		push	{r4, lr}
 199              		.cfi_def_cfa_offset 8
 200              		.cfi_offset 4, -8
 201              		.cfi_offset 14, -4
 202 0002 0200     		movs	r2, r0
 134:mpu6050.c     ****     I2CWriteByte(devAddr, MPU6050_RA_SMPLRT_DIV, rate);
 203              		.loc 1 134 0
 204 0004 024B     		ldr	r3, .L17
 205 0006 1878     		ldrb	r0, [r3]
 206              	.LVL7:
 207 0008 1921     		movs	r1, #25
 208 000a FFF7FEFF 		bl	I2CWriteByte
ARM GAS  C:\Users\Asus\AppData\Local\Temp\cc7ymLuX.s 			page 7


 209              	.LVL8:
 135:mpu6050.c     **** }
 210              		.loc 1 135 0
 211              		@ sp needed
 212 000e 10BD     		pop	{r4, pc}
 213              	.L18:
 214              		.align	2
 215              	.L17:
 216 0010 00000000 		.word	devAddr
 217              		.cfi_endproc
 218              	.LFE7:
 219              		.size	MPU6050_setRate, .-MPU6050_setRate
 220              		.section	.text.MPU6050_getExternalFrameSync,"ax",%progbits
 221              		.align	2
 222              		.global	MPU6050_getExternalFrameSync
 223              		.code	16
 224              		.thumb_func
 225              		.type	MPU6050_getExternalFrameSync, %function
 226              	MPU6050_getExternalFrameSync:
 227              	.LFB8:
 136:mpu6050.c     **** 
 137:mpu6050.c     **** // CONFIG register
 138:mpu6050.c     **** 
 139:mpu6050.c     **** /** Get external FSYNC configuration.
 140:mpu6050.c     ****  * Configures the external Frame Synchronization (FSYNC) pin sampling. An
 141:mpu6050.c     ****  * external signal connected to the FSYNC pin can be sampled by configuring
 142:mpu6050.c     ****  * EXT_SYNC_SET. Signal changes to the FSYNC pin are latched so that short
 143:mpu6050.c     ****  * strobes may be captured. The latched FSYNC signal will be sampled at the
 144:mpu6050.c     ****  * Sampling Rate, as defined in register 25. After sampling, the latch will
 145:mpu6050.c     ****  * reset to the current FSYNC signal state.
 146:mpu6050.c     ****  *
 147:mpu6050.c     ****  * The sampled value will be reported in place of the least significant bit in
 148:mpu6050.c     ****  * a sensor data register determined by the value of EXT_SYNC_SET according to
 149:mpu6050.c     ****  * the following table.
 150:mpu6050.c     ****  *
 151:mpu6050.c     ****  * <pre>
 152:mpu6050.c     ****  * EXT_SYNC_SET | FSYNC Bit Location
 153:mpu6050.c     ****  * -------------+-------------------
 154:mpu6050.c     ****  * 0            | Input disabled
 155:mpu6050.c     ****  * 1            | TEMP_OUT_L[0]
 156:mpu6050.c     ****  * 2            | GYRO_XOUT_L[0]
 157:mpu6050.c     ****  * 3            | GYRO_YOUT_L[0]
 158:mpu6050.c     ****  * 4            | GYRO_ZOUT_L[0]
 159:mpu6050.c     ****  * 5            | ACCEL_XOUT_L[0]
 160:mpu6050.c     ****  * 6            | ACCEL_YOUT_L[0]
 161:mpu6050.c     ****  * 7            | ACCEL_ZOUT_L[0]
 162:mpu6050.c     ****  * </pre>
 163:mpu6050.c     ****  *
 164:mpu6050.c     ****  * @return FSYNC configuration value
 165:mpu6050.c     ****  */
 166:mpu6050.c     **** uint8_t MPU6050_getExternalFrameSync() {
 228              		.loc 1 166 0
 229              		.cfi_startproc
 230              		@ args = 0, pretend = 0, frame = 0
 231              		@ frame_needed = 0, uses_anonymous_args = 0
 232 0000 10B5     		push	{r4, lr}
 233              		.cfi_def_cfa_offset 8
ARM GAS  C:\Users\Asus\AppData\Local\Temp\cc7ymLuX.s 			page 8


 234              		.cfi_offset 4, -8
 235              		.cfi_offset 14, -4
 236 0002 82B0     		sub	sp, sp, #8
 237              		.cfi_def_cfa_offset 16
 167:mpu6050.c     ****     I2CReadBits(devAddr, MPU6050_RA_CONFIG, MPU6050_CFG_EXT_SYNC_SET_BIT, MPU6050_CFG_EXT_SYNC_SET_
 238              		.loc 1 167 0
 239 0004 054B     		ldr	r3, .L20
 240 0006 1878     		ldrb	r0, [r3]
 241 0008 054C     		ldr	r4, .L20+4
 242 000a 0094     		str	r4, [sp]
 243 000c 0323     		movs	r3, #3
 244 000e 0522     		movs	r2, #5
 245 0010 1A21     		movs	r1, #26
 246 0012 FFF7FEFF 		bl	I2CReadBits
 247              	.LVL9:
 168:mpu6050.c     ****     return buffer[0];
 248              		.loc 1 168 0
 249 0016 2078     		ldrb	r0, [r4]
 169:mpu6050.c     **** }
 250              		.loc 1 169 0
 251 0018 02B0     		add	sp, sp, #8
 252              		@ sp needed
 253 001a 10BD     		pop	{r4, pc}
 254              	.L21:
 255              		.align	2
 256              	.L20:
 257 001c 00000000 		.word	devAddr
 258 0020 00000000 		.word	buffer
 259              		.cfi_endproc
 260              	.LFE8:
 261              		.size	MPU6050_getExternalFrameSync, .-MPU6050_getExternalFrameSync
 262              		.section	.text.MPU6050_setExternalFrameSync,"ax",%progbits
 263              		.align	2
 264              		.global	MPU6050_setExternalFrameSync
 265              		.code	16
 266              		.thumb_func
 267              		.type	MPU6050_setExternalFrameSync, %function
 268              	MPU6050_setExternalFrameSync:
 269              	.LFB9:
 170:mpu6050.c     **** /** Set external FSYNC configuration.
 171:mpu6050.c     ****  * @see getExternalFrameSync()
 172:mpu6050.c     ****  * @see MPU6050_RA_CONFIG
 173:mpu6050.c     ****  * @param sync New FSYNC configuration value
 174:mpu6050.c     ****  */
 175:mpu6050.c     **** void MPU6050_setExternalFrameSync(uint8_t sync) {
 270              		.loc 1 175 0
 271              		.cfi_startproc
 272              		@ args = 0, pretend = 0, frame = 0
 273              		@ frame_needed = 0, uses_anonymous_args = 0
 274              	.LVL10:
 275 0000 00B5     		push	{lr}
 276              		.cfi_def_cfa_offset 4
 277              		.cfi_offset 14, -4
 278 0002 83B0     		sub	sp, sp, #12
 279              		.cfi_def_cfa_offset 16
 280 0004 0300     		movs	r3, r0
 176:mpu6050.c     ****     I2CWriteBits(devAddr, MPU6050_RA_CONFIG, MPU6050_CFG_EXT_SYNC_SET_BIT, MPU6050_CFG_EXT_SYNC_SET
ARM GAS  C:\Users\Asus\AppData\Local\Temp\cc7ymLuX.s 			page 9


 281              		.loc 1 176 0
 282 0006 054A     		ldr	r2, .L23
 283 0008 1078     		ldrb	r0, [r2]
 284              	.LVL11:
 285 000a 0093     		str	r3, [sp]
 286 000c 0323     		movs	r3, #3
 287 000e 0522     		movs	r2, #5
 288 0010 1A21     		movs	r1, #26
 289 0012 FFF7FEFF 		bl	I2CWriteBits
 290              	.LVL12:
 177:mpu6050.c     **** }
 291              		.loc 1 177 0
 292 0016 03B0     		add	sp, sp, #12
 293              		@ sp needed
 294 0018 00BD     		pop	{pc}
 295              	.L24:
 296 001a C046     		.align	2
 297              	.L23:
 298 001c 00000000 		.word	devAddr
 299              		.cfi_endproc
 300              	.LFE9:
 301              		.size	MPU6050_setExternalFrameSync, .-MPU6050_setExternalFrameSync
 302              		.section	.text.MPU6050_getDLPFMode,"ax",%progbits
 303              		.align	2
 304              		.global	MPU6050_getDLPFMode
 305              		.code	16
 306              		.thumb_func
 307              		.type	MPU6050_getDLPFMode, %function
 308              	MPU6050_getDLPFMode:
 309              	.LFB10:
 178:mpu6050.c     **** /** Get digital low-pass filter configuration.
 179:mpu6050.c     ****  * The DLPF_CFG parameter sets the digital low pass filter configuration. It
 180:mpu6050.c     ****  * also determines the internal sampling rate used by the device as shown in
 181:mpu6050.c     ****  * the table below.
 182:mpu6050.c     ****  *
 183:mpu6050.c     ****  * Note: The accelerometer output rate is 1kHz. This means that for a Sample
 184:mpu6050.c     ****  * Rate greater than 1kHz, the same accelerometer sample may be output to the
 185:mpu6050.c     ****  * FIFO, DMP, and sensor registers more than once.
 186:mpu6050.c     ****  *
 187:mpu6050.c     ****  * <pre>
 188:mpu6050.c     ****  *          |   ACCELEROMETER    |           GYROSCOPE
 189:mpu6050.c     ****  * DLPF_CFG | Bandwidth | Delay  | Bandwidth | Delay  | Sample Rate
 190:mpu6050.c     ****  * ---------+-----------+--------+-----------+--------+-------------
 191:mpu6050.c     ****  * 0        | 260Hz     | 0ms    | 256Hz     | 0.98ms | 8kHz
 192:mpu6050.c     ****  * 1        | 184Hz     | 2.0ms  | 188Hz     | 1.9ms  | 1kHz
 193:mpu6050.c     ****  * 2        | 94Hz      | 3.0ms  | 98Hz      | 2.8ms  | 1kHz
 194:mpu6050.c     ****  * 3        | 44Hz      | 4.9ms  | 42Hz      | 4.8ms  | 1kHz
 195:mpu6050.c     ****  * 4        | 21Hz      | 8.5ms  | 20Hz      | 8.3ms  | 1kHz
 196:mpu6050.c     ****  * 5        | 10Hz      | 13.8ms | 10Hz      | 13.4ms | 1kHz
 197:mpu6050.c     ****  * 6        | 5Hz       | 19.0ms | 5Hz       | 18.6ms | 1kHz
 198:mpu6050.c     ****  * 7        |   -- Reserved --   |   -- Reserved --   | Reserved
 199:mpu6050.c     ****  * </pre>
 200:mpu6050.c     ****  *
 201:mpu6050.c     ****  * @return DLFP configuration
 202:mpu6050.c     ****  * @see MPU6050_RA_CONFIG
 203:mpu6050.c     ****  * @see MPU6050_CFG_DLPF_CFG_BIT
 204:mpu6050.c     ****  * @see MPU6050_CFG_DLPF_CFG_LENGTH
ARM GAS  C:\Users\Asus\AppData\Local\Temp\cc7ymLuX.s 			page 10


 205:mpu6050.c     ****  */
 206:mpu6050.c     **** uint8_t MPU6050_getDLPFMode() {
 310              		.loc 1 206 0
 311              		.cfi_startproc
 312              		@ args = 0, pretend = 0, frame = 0
 313              		@ frame_needed = 0, uses_anonymous_args = 0
 314 0000 10B5     		push	{r4, lr}
 315              		.cfi_def_cfa_offset 8
 316              		.cfi_offset 4, -8
 317              		.cfi_offset 14, -4
 318 0002 82B0     		sub	sp, sp, #8
 319              		.cfi_def_cfa_offset 16
 207:mpu6050.c     ****     I2CReadBits(devAddr, MPU6050_RA_CONFIG, MPU6050_CFG_DLPF_CFG_BIT, MPU6050_CFG_DLPF_CFG_LENGTH, 
 320              		.loc 1 207 0
 321 0004 054B     		ldr	r3, .L26
 322 0006 1878     		ldrb	r0, [r3]
 323 0008 054C     		ldr	r4, .L26+4
 324 000a 0094     		str	r4, [sp]
 325 000c 0323     		movs	r3, #3
 326 000e 0222     		movs	r2, #2
 327 0010 1A21     		movs	r1, #26
 328 0012 FFF7FEFF 		bl	I2CReadBits
 329              	.LVL13:
 208:mpu6050.c     ****     return buffer[0];
 330              		.loc 1 208 0
 331 0016 2078     		ldrb	r0, [r4]
 209:mpu6050.c     **** }
 332              		.loc 1 209 0
 333 0018 02B0     		add	sp, sp, #8
 334              		@ sp needed
 335 001a 10BD     		pop	{r4, pc}
 336              	.L27:
 337              		.align	2
 338              	.L26:
 339 001c 00000000 		.word	devAddr
 340 0020 00000000 		.word	buffer
 341              		.cfi_endproc
 342              	.LFE10:
 343              		.size	MPU6050_getDLPFMode, .-MPU6050_getDLPFMode
 344              		.section	.text.MPU6050_setDLPFMode,"ax",%progbits
 345              		.align	2
 346              		.global	MPU6050_setDLPFMode
 347              		.code	16
 348              		.thumb_func
 349              		.type	MPU6050_setDLPFMode, %function
 350              	MPU6050_setDLPFMode:
 351              	.LFB11:
 210:mpu6050.c     **** /** Set digital low-pass filter configuration.
 211:mpu6050.c     ****  * @param mode New DLFP configuration setting
 212:mpu6050.c     ****  * @see getDLPFBandwidth()
 213:mpu6050.c     ****  * @see MPU6050_DLPF_BW_256
 214:mpu6050.c     ****  * @see MPU6050_RA_CONFIG
 215:mpu6050.c     ****  * @see MPU6050_CFG_DLPF_CFG_BIT
 216:mpu6050.c     ****  * @see MPU6050_CFG_DLPF_CFG_LENGTH
 217:mpu6050.c     ****  */
 218:mpu6050.c     **** void MPU6050_setDLPFMode(uint8_t mode) {
 352              		.loc 1 218 0
ARM GAS  C:\Users\Asus\AppData\Local\Temp\cc7ymLuX.s 			page 11


 353              		.cfi_startproc
 354              		@ args = 0, pretend = 0, frame = 0
 355              		@ frame_needed = 0, uses_anonymous_args = 0
 356              	.LVL14:
 357 0000 00B5     		push	{lr}
 358              		.cfi_def_cfa_offset 4
 359              		.cfi_offset 14, -4
 360 0002 83B0     		sub	sp, sp, #12
 361              		.cfi_def_cfa_offset 16
 362 0004 0300     		movs	r3, r0
 219:mpu6050.c     ****     I2CWriteBits(devAddr, MPU6050_RA_CONFIG, MPU6050_CFG_DLPF_CFG_BIT, MPU6050_CFG_DLPF_CFG_LENGTH,
 363              		.loc 1 219 0
 364 0006 054A     		ldr	r2, .L29
 365 0008 1078     		ldrb	r0, [r2]
 366              	.LVL15:
 367 000a 0093     		str	r3, [sp]
 368 000c 0323     		movs	r3, #3
 369 000e 0222     		movs	r2, #2
 370 0010 1A21     		movs	r1, #26
 371 0012 FFF7FEFF 		bl	I2CWriteBits
 372              	.LVL16:
 220:mpu6050.c     **** }
 373              		.loc 1 220 0
 374 0016 03B0     		add	sp, sp, #12
 375              		@ sp needed
 376 0018 00BD     		pop	{pc}
 377              	.L30:
 378 001a C046     		.align	2
 379              	.L29:
 380 001c 00000000 		.word	devAddr
 381              		.cfi_endproc
 382              	.LFE11:
 383              		.size	MPU6050_setDLPFMode, .-MPU6050_setDLPFMode
 384              		.section	.text.MPU6050_getFullScaleGyroRange,"ax",%progbits
 385              		.align	2
 386              		.global	MPU6050_getFullScaleGyroRange
 387              		.code	16
 388              		.thumb_func
 389              		.type	MPU6050_getFullScaleGyroRange, %function
 390              	MPU6050_getFullScaleGyroRange:
 391              	.LFB12:
 221:mpu6050.c     **** 
 222:mpu6050.c     **** // GYRO_CONFIG register
 223:mpu6050.c     **** 
 224:mpu6050.c     **** /** Get full-scale gyroscope range.
 225:mpu6050.c     ****  * The FS_SEL parameter allows setting the full-scale range of the gyro sensors,
 226:mpu6050.c     ****  * as described in the table below.
 227:mpu6050.c     ****  *
 228:mpu6050.c     ****  * <pre>
 229:mpu6050.c     ****  * 0 = +/- 250 degrees/sec
 230:mpu6050.c     ****  * 1 = +/- 500 degrees/sec
 231:mpu6050.c     ****  * 2 = +/- 1000 degrees/sec
 232:mpu6050.c     ****  * 3 = +/- 2000 degrees/sec
 233:mpu6050.c     ****  * </pre>
 234:mpu6050.c     ****  *
 235:mpu6050.c     ****  * @return Current full-scale gyroscope range setting
 236:mpu6050.c     ****  * @see MPU6050_GYRO_FS_250
ARM GAS  C:\Users\Asus\AppData\Local\Temp\cc7ymLuX.s 			page 12


 237:mpu6050.c     ****  * @see MPU6050_RA_GYRO_CONFIG
 238:mpu6050.c     ****  * @see MPU6050_GCONFIG_FS_SEL_BIT
 239:mpu6050.c     ****  * @see MPU6050_GCONFIG_FS_SEL_LENGTH
 240:mpu6050.c     ****  */
 241:mpu6050.c     **** uint8_t MPU6050_getFullScaleGyroRange() {
 392              		.loc 1 241 0
 393              		.cfi_startproc
 394              		@ args = 0, pretend = 0, frame = 0
 395              		@ frame_needed = 0, uses_anonymous_args = 0
 396 0000 10B5     		push	{r4, lr}
 397              		.cfi_def_cfa_offset 8
 398              		.cfi_offset 4, -8
 399              		.cfi_offset 14, -4
 400 0002 82B0     		sub	sp, sp, #8
 401              		.cfi_def_cfa_offset 16
 242:mpu6050.c     ****     I2CReadBits(devAddr, MPU6050_RA_GYRO_CONFIG, MPU6050_GCONFIG_FS_SEL_BIT, MPU6050_GCONFIG_FS_SEL
 402              		.loc 1 242 0
 403 0004 054B     		ldr	r3, .L32
 404 0006 1878     		ldrb	r0, [r3]
 405 0008 054C     		ldr	r4, .L32+4
 406 000a 0094     		str	r4, [sp]
 407 000c 0223     		movs	r3, #2
 408 000e 0422     		movs	r2, #4
 409 0010 1B21     		movs	r1, #27
 410 0012 FFF7FEFF 		bl	I2CReadBits
 411              	.LVL17:
 243:mpu6050.c     ****     return buffer[0];
 412              		.loc 1 243 0
 413 0016 2078     		ldrb	r0, [r4]
 244:mpu6050.c     **** }
 414              		.loc 1 244 0
 415 0018 02B0     		add	sp, sp, #8
 416              		@ sp needed
 417 001a 10BD     		pop	{r4, pc}
 418              	.L33:
 419              		.align	2
 420              	.L32:
 421 001c 00000000 		.word	devAddr
 422 0020 00000000 		.word	buffer
 423              		.cfi_endproc
 424              	.LFE12:
 425              		.size	MPU6050_getFullScaleGyroRange, .-MPU6050_getFullScaleGyroRange
 426              		.section	.text.MPU6050_setFullScaleGyroRange,"ax",%progbits
 427              		.align	2
 428              		.global	MPU6050_setFullScaleGyroRange
 429              		.code	16
 430              		.thumb_func
 431              		.type	MPU6050_setFullScaleGyroRange, %function
 432              	MPU6050_setFullScaleGyroRange:
 433              	.LFB13:
 245:mpu6050.c     **** /** Set full-scale gyroscope range.
 246:mpu6050.c     ****  * @param range New full-scale gyroscope range value
 247:mpu6050.c     ****  * @see getFullScaleRange()
 248:mpu6050.c     ****  * @see MPU6050_GYRO_FS_250
 249:mpu6050.c     ****  * @see MPU6050_RA_GYRO_CONFIG
 250:mpu6050.c     ****  * @see MPU6050_GCONFIG_FS_SEL_BIT
 251:mpu6050.c     ****  * @see MPU6050_GCONFIG_FS_SEL_LENGTH
ARM GAS  C:\Users\Asus\AppData\Local\Temp\cc7ymLuX.s 			page 13


 252:mpu6050.c     ****  */
 253:mpu6050.c     **** void MPU6050_setFullScaleGyroRange(uint8_t range) {
 434              		.loc 1 253 0
 435              		.cfi_startproc
 436              		@ args = 0, pretend = 0, frame = 0
 437              		@ frame_needed = 0, uses_anonymous_args = 0
 438              	.LVL18:
 439 0000 00B5     		push	{lr}
 440              		.cfi_def_cfa_offset 4
 441              		.cfi_offset 14, -4
 442 0002 83B0     		sub	sp, sp, #12
 443              		.cfi_def_cfa_offset 16
 444 0004 0300     		movs	r3, r0
 254:mpu6050.c     ****     I2CWriteBits(devAddr, MPU6050_RA_GYRO_CONFIG, MPU6050_GCONFIG_FS_SEL_BIT, MPU6050_GCONFIG_FS_SE
 445              		.loc 1 254 0
 446 0006 054A     		ldr	r2, .L35
 447 0008 1078     		ldrb	r0, [r2]
 448              	.LVL19:
 449 000a 0093     		str	r3, [sp]
 450 000c 0223     		movs	r3, #2
 451 000e 0422     		movs	r2, #4
 452 0010 1B21     		movs	r1, #27
 453 0012 FFF7FEFF 		bl	I2CWriteBits
 454              	.LVL20:
 255:mpu6050.c     **** }
 455              		.loc 1 255 0
 456 0016 03B0     		add	sp, sp, #12
 457              		@ sp needed
 458 0018 00BD     		pop	{pc}
 459              	.L36:
 460 001a C046     		.align	2
 461              	.L35:
 462 001c 00000000 		.word	devAddr
 463              		.cfi_endproc
 464              	.LFE13:
 465              		.size	MPU6050_setFullScaleGyroRange, .-MPU6050_setFullScaleGyroRange
 466              		.section	.text.MPU6050_getAccelXSelfTest,"ax",%progbits
 467              		.align	2
 468              		.global	MPU6050_getAccelXSelfTest
 469              		.code	16
 470              		.thumb_func
 471              		.type	MPU6050_getAccelXSelfTest, %function
 472              	MPU6050_getAccelXSelfTest:
 473              	.LFB14:
 256:mpu6050.c     **** 
 257:mpu6050.c     **** // ACCEL_CONFIG register
 258:mpu6050.c     **** 
 259:mpu6050.c     **** /** Get self-test enabled setting for accelerometer X axis.
 260:mpu6050.c     ****  * @return Self-test enabled value
 261:mpu6050.c     ****  * @see MPU6050_RA_ACCEL_CONFIG
 262:mpu6050.c     ****  */
 263:mpu6050.c     **** bool MPU6050_getAccelXSelfTest() {
 474              		.loc 1 263 0
 475              		.cfi_startproc
 476              		@ args = 0, pretend = 0, frame = 0
 477              		@ frame_needed = 0, uses_anonymous_args = 0
 478 0000 10B5     		push	{r4, lr}
ARM GAS  C:\Users\Asus\AppData\Local\Temp\cc7ymLuX.s 			page 14


 479              		.cfi_def_cfa_offset 8
 480              		.cfi_offset 4, -8
 481              		.cfi_offset 14, -4
 264:mpu6050.c     ****     I2CReadBit(devAddr, MPU6050_RA_ACCEL_CONFIG, MPU6050_ACONFIG_XA_ST_BIT, buffer);
 482              		.loc 1 264 0
 483 0002 064C     		ldr	r4, .L38
 484 0004 064B     		ldr	r3, .L38+4
 485 0006 1878     		ldrb	r0, [r3]
 486 0008 2300     		movs	r3, r4
 487 000a 0722     		movs	r2, #7
 488 000c 1C21     		movs	r1, #28
 489 000e FFF7FEFF 		bl	I2CReadBit
 490              	.LVL21:
 265:mpu6050.c     ****     return buffer[0];
 491              		.loc 1 265 0
 492 0012 2078     		ldrb	r0, [r4]
 493 0014 431E     		subs	r3, r0, #1
 494 0016 9841     		sbcs	r0, r0, r3
 495 0018 C0B2     		uxtb	r0, r0
 266:mpu6050.c     **** }
 496              		.loc 1 266 0
 497              		@ sp needed
 498 001a 10BD     		pop	{r4, pc}
 499              	.L39:
 500              		.align	2
 501              	.L38:
 502 001c 00000000 		.word	buffer
 503 0020 00000000 		.word	devAddr
 504              		.cfi_endproc
 505              	.LFE14:
 506              		.size	MPU6050_getAccelXSelfTest, .-MPU6050_getAccelXSelfTest
 507              		.section	.text.MPU6050_setAccelXSelfTest,"ax",%progbits
 508              		.align	2
 509              		.global	MPU6050_setAccelXSelfTest
 510              		.code	16
 511              		.thumb_func
 512              		.type	MPU6050_setAccelXSelfTest, %function
 513              	MPU6050_setAccelXSelfTest:
 514              	.LFB15:
 267:mpu6050.c     **** /** Set self-test enabled setting for accelerometer X axis.
 268:mpu6050.c     ****  * @param enabled Self-test enabled value
 269:mpu6050.c     ****  * @see MPU6050_RA_ACCEL_CONFIG
 270:mpu6050.c     ****  */
 271:mpu6050.c     **** void MPU6050_setAccelXSelfTest(bool enabled) {
 515              		.loc 1 271 0
 516              		.cfi_startproc
 517              		@ args = 0, pretend = 0, frame = 0
 518              		@ frame_needed = 0, uses_anonymous_args = 0
 519              	.LVL22:
 520 0000 10B5     		push	{r4, lr}
 521              		.cfi_def_cfa_offset 8
 522              		.cfi_offset 4, -8
 523              		.cfi_offset 14, -4
 524 0002 0300     		movs	r3, r0
 272:mpu6050.c     ****     I2CWriteBit(devAddr, MPU6050_RA_ACCEL_CONFIG, MPU6050_ACONFIG_XA_ST_BIT, enabled);
 525              		.loc 1 272 0
 526 0004 034A     		ldr	r2, .L41
ARM GAS  C:\Users\Asus\AppData\Local\Temp\cc7ymLuX.s 			page 15


 527 0006 1078     		ldrb	r0, [r2]
 528              	.LVL23:
 529 0008 0722     		movs	r2, #7
 530 000a 1C21     		movs	r1, #28
 531 000c FFF7FEFF 		bl	I2CWriteBit
 532              	.LVL24:
 273:mpu6050.c     **** }
 533              		.loc 1 273 0
 534              		@ sp needed
 535 0010 10BD     		pop	{r4, pc}
 536              	.L42:
 537 0012 C046     		.align	2
 538              	.L41:
 539 0014 00000000 		.word	devAddr
 540              		.cfi_endproc
 541              	.LFE15:
 542              		.size	MPU6050_setAccelXSelfTest, .-MPU6050_setAccelXSelfTest
 543              		.section	.text.MPU6050_getAccelYSelfTest,"ax",%progbits
 544              		.align	2
 545              		.global	MPU6050_getAccelYSelfTest
 546              		.code	16
 547              		.thumb_func
 548              		.type	MPU6050_getAccelYSelfTest, %function
 549              	MPU6050_getAccelYSelfTest:
 550              	.LFB16:
 274:mpu6050.c     **** /** Get self-test enabled value for accelerometer Y axis.
 275:mpu6050.c     ****  * @return Self-test enabled value
 276:mpu6050.c     ****  * @see MPU6050_RA_ACCEL_CONFIG
 277:mpu6050.c     ****  */
 278:mpu6050.c     **** bool MPU6050_getAccelYSelfTest() {
 551              		.loc 1 278 0
 552              		.cfi_startproc
 553              		@ args = 0, pretend = 0, frame = 0
 554              		@ frame_needed = 0, uses_anonymous_args = 0
 555 0000 10B5     		push	{r4, lr}
 556              		.cfi_def_cfa_offset 8
 557              		.cfi_offset 4, -8
 558              		.cfi_offset 14, -4
 279:mpu6050.c     ****     I2CReadBit(devAddr, MPU6050_RA_ACCEL_CONFIG, MPU6050_ACONFIG_YA_ST_BIT, buffer);
 559              		.loc 1 279 0
 560 0002 064C     		ldr	r4, .L44
 561 0004 064B     		ldr	r3, .L44+4
 562 0006 1878     		ldrb	r0, [r3]
 563 0008 2300     		movs	r3, r4
 564 000a 0622     		movs	r2, #6
 565 000c 1C21     		movs	r1, #28
 566 000e FFF7FEFF 		bl	I2CReadBit
 567              	.LVL25:
 280:mpu6050.c     ****     return buffer[0];
 568              		.loc 1 280 0
 569 0012 2078     		ldrb	r0, [r4]
 570 0014 431E     		subs	r3, r0, #1
 571 0016 9841     		sbcs	r0, r0, r3
 572 0018 C0B2     		uxtb	r0, r0
 281:mpu6050.c     **** }
 573              		.loc 1 281 0
 574              		@ sp needed
ARM GAS  C:\Users\Asus\AppData\Local\Temp\cc7ymLuX.s 			page 16


 575 001a 10BD     		pop	{r4, pc}
 576              	.L45:
 577              		.align	2
 578              	.L44:
 579 001c 00000000 		.word	buffer
 580 0020 00000000 		.word	devAddr
 581              		.cfi_endproc
 582              	.LFE16:
 583              		.size	MPU6050_getAccelYSelfTest, .-MPU6050_getAccelYSelfTest
 584              		.section	.text.MPU6050_setAccelYSelfTest,"ax",%progbits
 585              		.align	2
 586              		.global	MPU6050_setAccelYSelfTest
 587              		.code	16
 588              		.thumb_func
 589              		.type	MPU6050_setAccelYSelfTest, %function
 590              	MPU6050_setAccelYSelfTest:
 591              	.LFB17:
 282:mpu6050.c     **** /** Set self-test enabled value for accelerometer Y axis.
 283:mpu6050.c     ****  * @param enabled Self-test enabled value
 284:mpu6050.c     ****  * @see MPU6050_RA_ACCEL_CONFIG
 285:mpu6050.c     ****  */
 286:mpu6050.c     **** void MPU6050_setAccelYSelfTest(bool enabled) {
 592              		.loc 1 286 0
 593              		.cfi_startproc
 594              		@ args = 0, pretend = 0, frame = 0
 595              		@ frame_needed = 0, uses_anonymous_args = 0
 596              	.LVL26:
 597 0000 10B5     		push	{r4, lr}
 598              		.cfi_def_cfa_offset 8
 599              		.cfi_offset 4, -8
 600              		.cfi_offset 14, -4
 601 0002 0300     		movs	r3, r0
 287:mpu6050.c     ****     I2CWriteBit(devAddr, MPU6050_RA_ACCEL_CONFIG, MPU6050_ACONFIG_YA_ST_BIT, enabled);
 602              		.loc 1 287 0
 603 0004 034A     		ldr	r2, .L47
 604 0006 1078     		ldrb	r0, [r2]
 605              	.LVL27:
 606 0008 0622     		movs	r2, #6
 607 000a 1C21     		movs	r1, #28
 608 000c FFF7FEFF 		bl	I2CWriteBit
 609              	.LVL28:
 288:mpu6050.c     **** }
 610              		.loc 1 288 0
 611              		@ sp needed
 612 0010 10BD     		pop	{r4, pc}
 613              	.L48:
 614 0012 C046     		.align	2
 615              	.L47:
 616 0014 00000000 		.word	devAddr
 617              		.cfi_endproc
 618              	.LFE17:
 619              		.size	MPU6050_setAccelYSelfTest, .-MPU6050_setAccelYSelfTest
 620              		.section	.text.MPU6050_getAccelZSelfTest,"ax",%progbits
 621              		.align	2
 622              		.global	MPU6050_getAccelZSelfTest
 623              		.code	16
 624              		.thumb_func
ARM GAS  C:\Users\Asus\AppData\Local\Temp\cc7ymLuX.s 			page 17


 625              		.type	MPU6050_getAccelZSelfTest, %function
 626              	MPU6050_getAccelZSelfTest:
 627              	.LFB18:
 289:mpu6050.c     **** /** Get self-test enabled value for accelerometer Z axis.
 290:mpu6050.c     ****  * @return Self-test enabled value
 291:mpu6050.c     ****  * @see MPU6050_RA_ACCEL_CONFIG
 292:mpu6050.c     ****  */
 293:mpu6050.c     **** bool MPU6050_getAccelZSelfTest() {
 628              		.loc 1 293 0
 629              		.cfi_startproc
 630              		@ args = 0, pretend = 0, frame = 0
 631              		@ frame_needed = 0, uses_anonymous_args = 0
 632 0000 10B5     		push	{r4, lr}
 633              		.cfi_def_cfa_offset 8
 634              		.cfi_offset 4, -8
 635              		.cfi_offset 14, -4
 294:mpu6050.c     ****     I2CReadBit(devAddr, MPU6050_RA_ACCEL_CONFIG, MPU6050_ACONFIG_ZA_ST_BIT, buffer);
 636              		.loc 1 294 0
 637 0002 064C     		ldr	r4, .L50
 638 0004 064B     		ldr	r3, .L50+4
 639 0006 1878     		ldrb	r0, [r3]
 640 0008 2300     		movs	r3, r4
 641 000a 0522     		movs	r2, #5
 642 000c 1C21     		movs	r1, #28
 643 000e FFF7FEFF 		bl	I2CReadBit
 644              	.LVL29:
 295:mpu6050.c     ****     return buffer[0];
 645              		.loc 1 295 0
 646 0012 2078     		ldrb	r0, [r4]
 647 0014 431E     		subs	r3, r0, #1
 648 0016 9841     		sbcs	r0, r0, r3
 649 0018 C0B2     		uxtb	r0, r0
 296:mpu6050.c     **** }
 650              		.loc 1 296 0
 651              		@ sp needed
 652 001a 10BD     		pop	{r4, pc}
 653              	.L51:
 654              		.align	2
 655              	.L50:
 656 001c 00000000 		.word	buffer
 657 0020 00000000 		.word	devAddr
 658              		.cfi_endproc
 659              	.LFE18:
 660              		.size	MPU6050_getAccelZSelfTest, .-MPU6050_getAccelZSelfTest
 661              		.section	.text.MPU6050_setAccelZSelfTest,"ax",%progbits
 662              		.align	2
 663              		.global	MPU6050_setAccelZSelfTest
 664              		.code	16
 665              		.thumb_func
 666              		.type	MPU6050_setAccelZSelfTest, %function
 667              	MPU6050_setAccelZSelfTest:
 668              	.LFB19:
 297:mpu6050.c     **** /** Set self-test enabled value for accelerometer Z axis.
 298:mpu6050.c     ****  * @param enabled Self-test enabled value
 299:mpu6050.c     ****  * @see MPU6050_RA_ACCEL_CONFIG
 300:mpu6050.c     ****  */
 301:mpu6050.c     **** void MPU6050_setAccelZSelfTest(bool enabled) {
ARM GAS  C:\Users\Asus\AppData\Local\Temp\cc7ymLuX.s 			page 18


 669              		.loc 1 301 0
 670              		.cfi_startproc
 671              		@ args = 0, pretend = 0, frame = 0
 672              		@ frame_needed = 0, uses_anonymous_args = 0
 673              	.LVL30:
 674 0000 10B5     		push	{r4, lr}
 675              		.cfi_def_cfa_offset 8
 676              		.cfi_offset 4, -8
 677              		.cfi_offset 14, -4
 678 0002 0300     		movs	r3, r0
 302:mpu6050.c     ****     I2CWriteBit(devAddr, MPU6050_RA_ACCEL_CONFIG, MPU6050_ACONFIG_ZA_ST_BIT, enabled);
 679              		.loc 1 302 0
 680 0004 034A     		ldr	r2, .L53
 681 0006 1078     		ldrb	r0, [r2]
 682              	.LVL31:
 683 0008 0522     		movs	r2, #5
 684 000a 1C21     		movs	r1, #28
 685 000c FFF7FEFF 		bl	I2CWriteBit
 686              	.LVL32:
 303:mpu6050.c     **** }
 687              		.loc 1 303 0
 688              		@ sp needed
 689 0010 10BD     		pop	{r4, pc}
 690              	.L54:
 691 0012 C046     		.align	2
 692              	.L53:
 693 0014 00000000 		.word	devAddr
 694              		.cfi_endproc
 695              	.LFE19:
 696              		.size	MPU6050_setAccelZSelfTest, .-MPU6050_setAccelZSelfTest
 697              		.section	.text.MPU6050_getFullScaleAccelRange,"ax",%progbits
 698              		.align	2
 699              		.global	MPU6050_getFullScaleAccelRange
 700              		.code	16
 701              		.thumb_func
 702              		.type	MPU6050_getFullScaleAccelRange, %function
 703              	MPU6050_getFullScaleAccelRange:
 704              	.LFB20:
 304:mpu6050.c     **** /** Get full-scale accelerometer range.
 305:mpu6050.c     ****  * The FS_SEL parameter allows setting the full-scale range of the accelerometer
 306:mpu6050.c     ****  * sensors, as described in the table below.
 307:mpu6050.c     ****  *
 308:mpu6050.c     ****  * <pre>
 309:mpu6050.c     ****  * 0 = +/- 2g
 310:mpu6050.c     ****  * 1 = +/- 4g
 311:mpu6050.c     ****  * 2 = +/- 8g
 312:mpu6050.c     ****  * 3 = +/- 16g
 313:mpu6050.c     ****  * </pre>
 314:mpu6050.c     ****  *
 315:mpu6050.c     ****  * @return Current full-scale accelerometer range setting
 316:mpu6050.c     ****  * @see MPU6050_ACCEL_FS_2
 317:mpu6050.c     ****  * @see MPU6050_RA_ACCEL_CONFIG
 318:mpu6050.c     ****  * @see MPU6050_ACONFIG_AFS_SEL_BIT
 319:mpu6050.c     ****  * @see MPU6050_ACONFIG_AFS_SEL_LENGTH
 320:mpu6050.c     ****  */
 321:mpu6050.c     **** uint8_t MPU6050_getFullScaleAccelRange() {
 705              		.loc 1 321 0
ARM GAS  C:\Users\Asus\AppData\Local\Temp\cc7ymLuX.s 			page 19


 706              		.cfi_startproc
 707              		@ args = 0, pretend = 0, frame = 0
 708              		@ frame_needed = 0, uses_anonymous_args = 0
 709 0000 10B5     		push	{r4, lr}
 710              		.cfi_def_cfa_offset 8
 711              		.cfi_offset 4, -8
 712              		.cfi_offset 14, -4
 713 0002 82B0     		sub	sp, sp, #8
 714              		.cfi_def_cfa_offset 16
 322:mpu6050.c     ****     I2CReadBits(devAddr, MPU6050_RA_ACCEL_CONFIG, MPU6050_ACONFIG_AFS_SEL_BIT, MPU6050_ACONFIG_AFS_
 715              		.loc 1 322 0
 716 0004 054B     		ldr	r3, .L56
 717 0006 1878     		ldrb	r0, [r3]
 718 0008 054C     		ldr	r4, .L56+4
 719 000a 0094     		str	r4, [sp]
 720 000c 0223     		movs	r3, #2
 721 000e 0422     		movs	r2, #4
 722 0010 1C21     		movs	r1, #28
 723 0012 FFF7FEFF 		bl	I2CReadBits
 724              	.LVL33:
 323:mpu6050.c     ****     return buffer[0];
 725              		.loc 1 323 0
 726 0016 2078     		ldrb	r0, [r4]
 324:mpu6050.c     **** }
 727              		.loc 1 324 0
 728 0018 02B0     		add	sp, sp, #8
 729              		@ sp needed
 730 001a 10BD     		pop	{r4, pc}
 731              	.L57:
 732              		.align	2
 733              	.L56:
 734 001c 00000000 		.word	devAddr
 735 0020 00000000 		.word	buffer
 736              		.cfi_endproc
 737              	.LFE20:
 738              		.size	MPU6050_getFullScaleAccelRange, .-MPU6050_getFullScaleAccelRange
 739              		.section	.text.MPU6050_setFullScaleAccelRange,"ax",%progbits
 740              		.align	2
 741              		.global	MPU6050_setFullScaleAccelRange
 742              		.code	16
 743              		.thumb_func
 744              		.type	MPU6050_setFullScaleAccelRange, %function
 745              	MPU6050_setFullScaleAccelRange:
 746              	.LFB21:
 325:mpu6050.c     **** /** Set full-scale accelerometer range.
 326:mpu6050.c     ****  * @param range New full-scale accelerometer range setting
 327:mpu6050.c     ****  * @see getFullScaleAccelRange()
 328:mpu6050.c     ****  */
 329:mpu6050.c     **** void MPU6050_setFullScaleAccelRange(uint8_t range) {
 747              		.loc 1 329 0
 748              		.cfi_startproc
 749              		@ args = 0, pretend = 0, frame = 0
 750              		@ frame_needed = 0, uses_anonymous_args = 0
 751              	.LVL34:
 752 0000 00B5     		push	{lr}
 753              		.cfi_def_cfa_offset 4
 754              		.cfi_offset 14, -4
ARM GAS  C:\Users\Asus\AppData\Local\Temp\cc7ymLuX.s 			page 20


 755 0002 83B0     		sub	sp, sp, #12
 756              		.cfi_def_cfa_offset 16
 757 0004 0300     		movs	r3, r0
 330:mpu6050.c     ****     I2CWriteBits(devAddr, MPU6050_RA_ACCEL_CONFIG, MPU6050_ACONFIG_AFS_SEL_BIT, MPU6050_ACONFIG_AFS
 758              		.loc 1 330 0
 759 0006 054A     		ldr	r2, .L59
 760 0008 1078     		ldrb	r0, [r2]
 761              	.LVL35:
 762 000a 0093     		str	r3, [sp]
 763 000c 0223     		movs	r3, #2
 764 000e 0422     		movs	r2, #4
 765 0010 1C21     		movs	r1, #28
 766 0012 FFF7FEFF 		bl	I2CWriteBits
 767              	.LVL36:
 331:mpu6050.c     **** }
 768              		.loc 1 331 0
 769 0016 03B0     		add	sp, sp, #12
 770              		@ sp needed
 771 0018 00BD     		pop	{pc}
 772              	.L60:
 773 001a C046     		.align	2
 774              	.L59:
 775 001c 00000000 		.word	devAddr
 776              		.cfi_endproc
 777              	.LFE21:
 778              		.size	MPU6050_setFullScaleAccelRange, .-MPU6050_setFullScaleAccelRange
 779              		.section	.text.MPU6050_getDHPFMode,"ax",%progbits
 780              		.align	2
 781              		.global	MPU6050_getDHPFMode
 782              		.code	16
 783              		.thumb_func
 784              		.type	MPU6050_getDHPFMode, %function
 785              	MPU6050_getDHPFMode:
 786              	.LFB22:
 332:mpu6050.c     **** /** Get the high-pass filter configuration.
 333:mpu6050.c     ****  * The DHPF is a filter module in the path leading to motion detectors (Free
 334:mpu6050.c     ****  * Fall, Motion threshold, and Zero Motion). The high pass filter output is not
 335:mpu6050.c     ****  * available to the data registers (see Figure in Section 8 of the MPU-6000/
 336:mpu6050.c     ****  * MPU-6050 Product Specification document).
 337:mpu6050.c     ****  *
 338:mpu6050.c     ****  * The high pass filter has three modes:
 339:mpu6050.c     ****  *
 340:mpu6050.c     ****  * <pre>
 341:mpu6050.c     ****  *    Reset: The filter output settles to zero within one sample. This
 342:mpu6050.c     ****  *           effectively disables the high pass filter. This mode may be toggled
 343:mpu6050.c     ****  *           to quickly settle the filter.
 344:mpu6050.c     ****  *
 345:mpu6050.c     ****  *    On:    The high pass filter will pass signals above the cut off frequency.
 346:mpu6050.c     ****  *
 347:mpu6050.c     ****  *    Hold:  When triggered, the filter holds the present sample. The filter
 348:mpu6050.c     ****  *           output will be the difference between the input sample and the held
 349:mpu6050.c     ****  *           sample.
 350:mpu6050.c     ****  * </pre>
 351:mpu6050.c     ****  *
 352:mpu6050.c     ****  * <pre>
 353:mpu6050.c     ****  * ACCEL_HPF | Filter Mode | Cut-off Frequency
 354:mpu6050.c     ****  * ----------+-------------+------------------
ARM GAS  C:\Users\Asus\AppData\Local\Temp\cc7ymLuX.s 			page 21


 355:mpu6050.c     ****  * 0         | Reset       | None
 356:mpu6050.c     ****  * 1         | On          | 5Hz
 357:mpu6050.c     ****  * 2         | On          | 2.5Hz
 358:mpu6050.c     ****  * 3         | On          | 1.25Hz
 359:mpu6050.c     ****  * 4         | On          | 0.63Hz
 360:mpu6050.c     ****  * 7         | Hold        | None
 361:mpu6050.c     ****  * </pre>
 362:mpu6050.c     ****  *
 363:mpu6050.c     ****  * @return Current high-pass filter configuration
 364:mpu6050.c     ****  * @see MPU6050_DHPF_RESET
 365:mpu6050.c     ****  * @see MPU6050_RA_ACCEL_CONFIG
 366:mpu6050.c     ****  */
 367:mpu6050.c     **** uint8_t MPU6050_getDHPFMode() {
 787              		.loc 1 367 0
 788              		.cfi_startproc
 789              		@ args = 0, pretend = 0, frame = 0
 790              		@ frame_needed = 0, uses_anonymous_args = 0
 791 0000 10B5     		push	{r4, lr}
 792              		.cfi_def_cfa_offset 8
 793              		.cfi_offset 4, -8
 794              		.cfi_offset 14, -4
 795 0002 82B0     		sub	sp, sp, #8
 796              		.cfi_def_cfa_offset 16
 368:mpu6050.c     ****     I2CReadBits(devAddr, MPU6050_RA_ACCEL_CONFIG, MPU6050_ACONFIG_ACCEL_HPF_BIT, MPU6050_ACONFIG_AC
 797              		.loc 1 368 0
 798 0004 054B     		ldr	r3, .L62
 799 0006 1878     		ldrb	r0, [r3]
 800 0008 054C     		ldr	r4, .L62+4
 801 000a 0094     		str	r4, [sp]
 802 000c 0323     		movs	r3, #3
 803 000e 0222     		movs	r2, #2
 804 0010 1C21     		movs	r1, #28
 805 0012 FFF7FEFF 		bl	I2CReadBits
 806              	.LVL37:
 369:mpu6050.c     ****     return buffer[0];
 807              		.loc 1 369 0
 808 0016 2078     		ldrb	r0, [r4]
 370:mpu6050.c     **** }
 809              		.loc 1 370 0
 810 0018 02B0     		add	sp, sp, #8
 811              		@ sp needed
 812 001a 10BD     		pop	{r4, pc}
 813              	.L63:
 814              		.align	2
 815              	.L62:
 816 001c 00000000 		.word	devAddr
 817 0020 00000000 		.word	buffer
 818              		.cfi_endproc
 819              	.LFE22:
 820              		.size	MPU6050_getDHPFMode, .-MPU6050_getDHPFMode
 821              		.section	.text.MPU6050_setDHPFMode,"ax",%progbits
 822              		.align	2
 823              		.global	MPU6050_setDHPFMode
 824              		.code	16
 825              		.thumb_func
 826              		.type	MPU6050_setDHPFMode, %function
 827              	MPU6050_setDHPFMode:
ARM GAS  C:\Users\Asus\AppData\Local\Temp\cc7ymLuX.s 			page 22


 828              	.LFB23:
 371:mpu6050.c     **** /** Set the high-pass filter configuration.
 372:mpu6050.c     ****  * @param bandwidth New high-pass filter configuration
 373:mpu6050.c     ****  * @see setDHPFMode()
 374:mpu6050.c     ****  * @see MPU6050_DHPF_RESET
 375:mpu6050.c     ****  * @see MPU6050_RA_ACCEL_CONFIG
 376:mpu6050.c     ****  */
 377:mpu6050.c     **** void MPU6050_setDHPFMode(uint8_t bandwidth) {
 829              		.loc 1 377 0
 830              		.cfi_startproc
 831              		@ args = 0, pretend = 0, frame = 0
 832              		@ frame_needed = 0, uses_anonymous_args = 0
 833              	.LVL38:
 834 0000 00B5     		push	{lr}
 835              		.cfi_def_cfa_offset 4
 836              		.cfi_offset 14, -4
 837 0002 83B0     		sub	sp, sp, #12
 838              		.cfi_def_cfa_offset 16
 839 0004 0300     		movs	r3, r0
 378:mpu6050.c     ****     I2CWriteBits(devAddr, MPU6050_RA_ACCEL_CONFIG, MPU6050_ACONFIG_ACCEL_HPF_BIT, MPU6050_ACONFIG_A
 840              		.loc 1 378 0
 841 0006 054A     		ldr	r2, .L65
 842 0008 1078     		ldrb	r0, [r2]
 843              	.LVL39:
 844 000a 0093     		str	r3, [sp]
 845 000c 0323     		movs	r3, #3
 846 000e 0222     		movs	r2, #2
 847 0010 1C21     		movs	r1, #28
 848 0012 FFF7FEFF 		bl	I2CWriteBits
 849              	.LVL40:
 379:mpu6050.c     **** }
 850              		.loc 1 379 0
 851 0016 03B0     		add	sp, sp, #12
 852              		@ sp needed
 853 0018 00BD     		pop	{pc}
 854              	.L66:
 855 001a C046     		.align	2
 856              	.L65:
 857 001c 00000000 		.word	devAddr
 858              		.cfi_endproc
 859              	.LFE23:
 860              		.size	MPU6050_setDHPFMode, .-MPU6050_setDHPFMode
 861              		.section	.text.MPU6050_getFreefallDetectionThreshold,"ax",%progbits
 862              		.align	2
 863              		.global	MPU6050_getFreefallDetectionThreshold
 864              		.code	16
 865              		.thumb_func
 866              		.type	MPU6050_getFreefallDetectionThreshold, %function
 867              	MPU6050_getFreefallDetectionThreshold:
 868              	.LFB24:
 380:mpu6050.c     **** 
 381:mpu6050.c     **** // FF_THR register
 382:mpu6050.c     **** 
 383:mpu6050.c     **** /** Get free-fall event acceleration threshold.
 384:mpu6050.c     ****  * This register configures the detection threshold for Free Fall event
 385:mpu6050.c     ****  * detection. The unit of FF_THR is 1LSB = 2mg. Free Fall is detected when the
 386:mpu6050.c     ****  * absolute value of the accelerometer measurements for the three axes are each
ARM GAS  C:\Users\Asus\AppData\Local\Temp\cc7ymLuX.s 			page 23


 387:mpu6050.c     ****  * less than the detection threshold. This condition increments the Free Fall
 388:mpu6050.c     ****  * duration counter (Register 30). The Free Fall interrupt is triggered when the
 389:mpu6050.c     ****  * Free Fall duration counter reaches the time specified in FF_DUR.
 390:mpu6050.c     ****  *
 391:mpu6050.c     ****  * For more details on the Free Fall detection interrupt, see Section 8.2 of the
 392:mpu6050.c     ****  * MPU-6000/MPU-6050 Product Specification document as well as Registers 56 and
 393:mpu6050.c     ****  * 58 of this document.
 394:mpu6050.c     ****  *
 395:mpu6050.c     ****  * @return Current free-fall acceleration threshold value (LSB = 2mg)
 396:mpu6050.c     ****  * @see MPU6050_RA_FF_THR
 397:mpu6050.c     ****  */
 398:mpu6050.c     **** uint8_t MPU6050_getFreefallDetectionThreshold() {
 869              		.loc 1 398 0
 870              		.cfi_startproc
 871              		@ args = 0, pretend = 0, frame = 0
 872              		@ frame_needed = 0, uses_anonymous_args = 0
 873 0000 10B5     		push	{r4, lr}
 874              		.cfi_def_cfa_offset 8
 875              		.cfi_offset 4, -8
 876              		.cfi_offset 14, -4
 399:mpu6050.c     ****     I2CReadByte(devAddr, MPU6050_RA_FF_THR, buffer);
 877              		.loc 1 399 0
 878 0002 044C     		ldr	r4, .L68
 879 0004 044B     		ldr	r3, .L68+4
 880 0006 1878     		ldrb	r0, [r3]
 881 0008 2200     		movs	r2, r4
 882 000a 1D21     		movs	r1, #29
 883 000c FFF7FEFF 		bl	I2CReadByte
 884              	.LVL41:
 400:mpu6050.c     ****     return buffer[0];
 885              		.loc 1 400 0
 886 0010 2078     		ldrb	r0, [r4]
 401:mpu6050.c     **** }
 887              		.loc 1 401 0
 888              		@ sp needed
 889 0012 10BD     		pop	{r4, pc}
 890              	.L69:
 891              		.align	2
 892              	.L68:
 893 0014 00000000 		.word	buffer
 894 0018 00000000 		.word	devAddr
 895              		.cfi_endproc
 896              	.LFE24:
 897              		.size	MPU6050_getFreefallDetectionThreshold, .-MPU6050_getFreefallDetectionThreshold
 898              		.section	.text.MPU6050_setFreefallDetectionThreshold,"ax",%progbits
 899              		.align	2
 900              		.global	MPU6050_setFreefallDetectionThreshold
 901              		.code	16
 902              		.thumb_func
 903              		.type	MPU6050_setFreefallDetectionThreshold, %function
 904              	MPU6050_setFreefallDetectionThreshold:
 905              	.LFB25:
 402:mpu6050.c     **** /** Get free-fall event acceleration threshold.
 403:mpu6050.c     ****  * @param threshold New free-fall acceleration threshold value (LSB = 2mg)
 404:mpu6050.c     ****  * @see getFreefallDetectionThreshold()
 405:mpu6050.c     ****  * @see MPU6050_RA_FF_THR
 406:mpu6050.c     ****  */
ARM GAS  C:\Users\Asus\AppData\Local\Temp\cc7ymLuX.s 			page 24


 407:mpu6050.c     **** void MPU6050_setFreefallDetectionThreshold(uint8_t threshold) {
 906              		.loc 1 407 0
 907              		.cfi_startproc
 908              		@ args = 0, pretend = 0, frame = 0
 909              		@ frame_needed = 0, uses_anonymous_args = 0
 910              	.LVL42:
 911 0000 10B5     		push	{r4, lr}
 912              		.cfi_def_cfa_offset 8
 913              		.cfi_offset 4, -8
 914              		.cfi_offset 14, -4
 915 0002 0200     		movs	r2, r0
 408:mpu6050.c     ****     I2CWriteByte(devAddr, MPU6050_RA_FF_THR, threshold);
 916              		.loc 1 408 0
 917 0004 024B     		ldr	r3, .L71
 918 0006 1878     		ldrb	r0, [r3]
 919              	.LVL43:
 920 0008 1D21     		movs	r1, #29
 921 000a FFF7FEFF 		bl	I2CWriteByte
 922              	.LVL44:
 409:mpu6050.c     **** }
 923              		.loc 1 409 0
 924              		@ sp needed
 925 000e 10BD     		pop	{r4, pc}
 926              	.L72:
 927              		.align	2
 928              	.L71:
 929 0010 00000000 		.word	devAddr
 930              		.cfi_endproc
 931              	.LFE25:
 932              		.size	MPU6050_setFreefallDetectionThreshold, .-MPU6050_setFreefallDetectionThreshold
 933              		.section	.text.MPU6050_getFreefallDetectionDuration,"ax",%progbits
 934              		.align	2
 935              		.global	MPU6050_getFreefallDetectionDuration
 936              		.code	16
 937              		.thumb_func
 938              		.type	MPU6050_getFreefallDetectionDuration, %function
 939              	MPU6050_getFreefallDetectionDuration:
 940              	.LFB26:
 410:mpu6050.c     **** 
 411:mpu6050.c     **** // FF_DUR register
 412:mpu6050.c     **** 
 413:mpu6050.c     **** /** Get free-fall event duration threshold.
 414:mpu6050.c     ****  * This register configures the duration counter threshold for Free Fall event
 415:mpu6050.c     ****  * detection. The duration counter ticks at 1kHz, therefore FF_DUR has a unit
 416:mpu6050.c     ****  * of 1 LSB = 1 ms.
 417:mpu6050.c     ****  *
 418:mpu6050.c     ****  * The Free Fall duration counter increments while the absolute value of the
 419:mpu6050.c     ****  * accelerometer measurements are each less than the detection threshold
 420:mpu6050.c     ****  * (Register 29). The Free Fall interrupt is triggered when the Free Fall
 421:mpu6050.c     ****  * duration counter reaches the time specified in this register.
 422:mpu6050.c     ****  *
 423:mpu6050.c     ****  * For more details on the Free Fall detection interrupt, see Section 8.2 of
 424:mpu6050.c     ****  * the MPU-6000/MPU-6050 Product Specification document as well as Registers 56
 425:mpu6050.c     ****  * and 58 of this document.
 426:mpu6050.c     ****  *
 427:mpu6050.c     ****  * @return Current free-fall duration threshold value (LSB = 1ms)
 428:mpu6050.c     ****  * @see MPU6050_RA_FF_DUR
ARM GAS  C:\Users\Asus\AppData\Local\Temp\cc7ymLuX.s 			page 25


 429:mpu6050.c     ****  */
 430:mpu6050.c     **** uint8_t MPU6050_getFreefallDetectionDuration() {
 941              		.loc 1 430 0
 942              		.cfi_startproc
 943              		@ args = 0, pretend = 0, frame = 0
 944              		@ frame_needed = 0, uses_anonymous_args = 0
 945 0000 10B5     		push	{r4, lr}
 946              		.cfi_def_cfa_offset 8
 947              		.cfi_offset 4, -8
 948              		.cfi_offset 14, -4
 431:mpu6050.c     ****     I2CReadByte(devAddr, MPU6050_RA_FF_DUR, buffer);
 949              		.loc 1 431 0
 950 0002 044C     		ldr	r4, .L74
 951 0004 044B     		ldr	r3, .L74+4
 952 0006 1878     		ldrb	r0, [r3]
 953 0008 2200     		movs	r2, r4
 954 000a 1E21     		movs	r1, #30
 955 000c FFF7FEFF 		bl	I2CReadByte
 956              	.LVL45:
 432:mpu6050.c     ****     return buffer[0];
 957              		.loc 1 432 0
 958 0010 2078     		ldrb	r0, [r4]
 433:mpu6050.c     **** }
 959              		.loc 1 433 0
 960              		@ sp needed
 961 0012 10BD     		pop	{r4, pc}
 962              	.L75:
 963              		.align	2
 964              	.L74:
 965 0014 00000000 		.word	buffer
 966 0018 00000000 		.word	devAddr
 967              		.cfi_endproc
 968              	.LFE26:
 969              		.size	MPU6050_getFreefallDetectionDuration, .-MPU6050_getFreefallDetectionDuration
 970              		.section	.text.MPU6050_setFreefallDetectionDuration,"ax",%progbits
 971              		.align	2
 972              		.global	MPU6050_setFreefallDetectionDuration
 973              		.code	16
 974              		.thumb_func
 975              		.type	MPU6050_setFreefallDetectionDuration, %function
 976              	MPU6050_setFreefallDetectionDuration:
 977              	.LFB27:
 434:mpu6050.c     **** /** Get free-fall event duration threshold.
 435:mpu6050.c     ****  * @param duration New free-fall duration threshold value (LSB = 1ms)
 436:mpu6050.c     ****  * @see getFreefallDetectionDuration()
 437:mpu6050.c     ****  * @see MPU6050_RA_FF_DUR
 438:mpu6050.c     ****  */
 439:mpu6050.c     **** void MPU6050_setFreefallDetectionDuration(uint8_t duration) {
 978              		.loc 1 439 0
 979              		.cfi_startproc
 980              		@ args = 0, pretend = 0, frame = 0
 981              		@ frame_needed = 0, uses_anonymous_args = 0
 982              	.LVL46:
 983 0000 10B5     		push	{r4, lr}
 984              		.cfi_def_cfa_offset 8
 985              		.cfi_offset 4, -8
 986              		.cfi_offset 14, -4
ARM GAS  C:\Users\Asus\AppData\Local\Temp\cc7ymLuX.s 			page 26


 987 0002 0200     		movs	r2, r0
 440:mpu6050.c     ****     I2CWriteByte(devAddr, MPU6050_RA_FF_DUR, duration);
 988              		.loc 1 440 0
 989 0004 024B     		ldr	r3, .L77
 990 0006 1878     		ldrb	r0, [r3]
 991              	.LVL47:
 992 0008 1E21     		movs	r1, #30
 993 000a FFF7FEFF 		bl	I2CWriteByte
 994              	.LVL48:
 441:mpu6050.c     **** }
 995              		.loc 1 441 0
 996              		@ sp needed
 997 000e 10BD     		pop	{r4, pc}
 998              	.L78:
 999              		.align	2
 1000              	.L77:
 1001 0010 00000000 		.word	devAddr
 1002              		.cfi_endproc
 1003              	.LFE27:
 1004              		.size	MPU6050_setFreefallDetectionDuration, .-MPU6050_setFreefallDetectionDuration
 1005              		.section	.text.MPU6050_getMotionDetectionThreshold,"ax",%progbits
 1006              		.align	2
 1007              		.global	MPU6050_getMotionDetectionThreshold
 1008              		.code	16
 1009              		.thumb_func
 1010              		.type	MPU6050_getMotionDetectionThreshold, %function
 1011              	MPU6050_getMotionDetectionThreshold:
 1012              	.LFB28:
 442:mpu6050.c     **** 
 443:mpu6050.c     **** // MOT_THR register
 444:mpu6050.c     **** 
 445:mpu6050.c     **** /** Get motion detection event acceleration threshold.
 446:mpu6050.c     ****  * This register configures the detection threshold for Motion interrupt
 447:mpu6050.c     ****  * generation. The unit of MOT_THR is 1LSB = 2mg. Motion is detected when the
 448:mpu6050.c     ****  * absolute value of any of the accelerometer measurements exceeds this Motion
 449:mpu6050.c     ****  * detection threshold. This condition increments the Motion detection duration
 450:mpu6050.c     ****  * counter (Register 32). The Motion detection interrupt is triggered when the
 451:mpu6050.c     ****  * Motion Detection counter reaches the time count specified in MOT_DUR
 452:mpu6050.c     ****  * (Register 32).
 453:mpu6050.c     ****  *
 454:mpu6050.c     ****  * The Motion interrupt will indicate the axis and polarity of detected motion
 455:mpu6050.c     ****  * in MOT_DETECT_STATUS (Register 97).
 456:mpu6050.c     ****  *
 457:mpu6050.c     ****  * For more details on the Motion detection interrupt, see Section 8.3 of the
 458:mpu6050.c     ****  * MPU-6000/MPU-6050 Product Specification document as well as Registers 56 and
 459:mpu6050.c     ****  * 58 of this document.
 460:mpu6050.c     ****  *
 461:mpu6050.c     ****  * @return Current motion detection acceleration threshold value (LSB = 2mg)
 462:mpu6050.c     ****  * @see MPU6050_RA_MOT_THR
 463:mpu6050.c     ****  */
 464:mpu6050.c     **** uint8_t MPU6050_getMotionDetectionThreshold() {
 1013              		.loc 1 464 0
 1014              		.cfi_startproc
 1015              		@ args = 0, pretend = 0, frame = 0
 1016              		@ frame_needed = 0, uses_anonymous_args = 0
 1017 0000 10B5     		push	{r4, lr}
 1018              		.cfi_def_cfa_offset 8
ARM GAS  C:\Users\Asus\AppData\Local\Temp\cc7ymLuX.s 			page 27


 1019              		.cfi_offset 4, -8
 1020              		.cfi_offset 14, -4
 465:mpu6050.c     ****     I2CReadByte(devAddr, MPU6050_RA_MOT_THR, buffer);
 1021              		.loc 1 465 0
 1022 0002 044C     		ldr	r4, .L80
 1023 0004 044B     		ldr	r3, .L80+4
 1024 0006 1878     		ldrb	r0, [r3]
 1025 0008 2200     		movs	r2, r4
 1026 000a 1F21     		movs	r1, #31
 1027 000c FFF7FEFF 		bl	I2CReadByte
 1028              	.LVL49:
 466:mpu6050.c     ****     return buffer[0];
 1029              		.loc 1 466 0
 1030 0010 2078     		ldrb	r0, [r4]
 467:mpu6050.c     **** }
 1031              		.loc 1 467 0
 1032              		@ sp needed
 1033 0012 10BD     		pop	{r4, pc}
 1034              	.L81:
 1035              		.align	2
 1036              	.L80:
 1037 0014 00000000 		.word	buffer
 1038 0018 00000000 		.word	devAddr
 1039              		.cfi_endproc
 1040              	.LFE28:
 1041              		.size	MPU6050_getMotionDetectionThreshold, .-MPU6050_getMotionDetectionThreshold
 1042              		.section	.text.MPU6050_setMotionDetectionThreshold,"ax",%progbits
 1043              		.align	2
 1044              		.global	MPU6050_setMotionDetectionThreshold
 1045              		.code	16
 1046              		.thumb_func
 1047              		.type	MPU6050_setMotionDetectionThreshold, %function
 1048              	MPU6050_setMotionDetectionThreshold:
 1049              	.LFB29:
 468:mpu6050.c     **** /** Set free-fall event acceleration threshold.
 469:mpu6050.c     ****  * @param threshold New motion detection acceleration threshold value (LSB = 2mg)
 470:mpu6050.c     ****  * @see getMotionDetectionThreshold()
 471:mpu6050.c     ****  * @see MPU6050_RA_MOT_THR
 472:mpu6050.c     ****  */
 473:mpu6050.c     **** void MPU6050_setMotionDetectionThreshold(uint8_t threshold) {
 1050              		.loc 1 473 0
 1051              		.cfi_startproc
 1052              		@ args = 0, pretend = 0, frame = 0
 1053              		@ frame_needed = 0, uses_anonymous_args = 0
 1054              	.LVL50:
 1055 0000 10B5     		push	{r4, lr}
 1056              		.cfi_def_cfa_offset 8
 1057              		.cfi_offset 4, -8
 1058              		.cfi_offset 14, -4
 1059 0002 0200     		movs	r2, r0
 474:mpu6050.c     ****     I2CWriteByte(devAddr, MPU6050_RA_MOT_THR, threshold);
 1060              		.loc 1 474 0
 1061 0004 024B     		ldr	r3, .L83
 1062 0006 1878     		ldrb	r0, [r3]
 1063              	.LVL51:
 1064 0008 1F21     		movs	r1, #31
 1065 000a FFF7FEFF 		bl	I2CWriteByte
ARM GAS  C:\Users\Asus\AppData\Local\Temp\cc7ymLuX.s 			page 28


 1066              	.LVL52:
 475:mpu6050.c     **** }
 1067              		.loc 1 475 0
 1068              		@ sp needed
 1069 000e 10BD     		pop	{r4, pc}
 1070              	.L84:
 1071              		.align	2
 1072              	.L83:
 1073 0010 00000000 		.word	devAddr
 1074              		.cfi_endproc
 1075              	.LFE29:
 1076              		.size	MPU6050_setMotionDetectionThreshold, .-MPU6050_setMotionDetectionThreshold
 1077              		.section	.text.MPU6050_getMotionDetectionDuration,"ax",%progbits
 1078              		.align	2
 1079              		.global	MPU6050_getMotionDetectionDuration
 1080              		.code	16
 1081              		.thumb_func
 1082              		.type	MPU6050_getMotionDetectionDuration, %function
 1083              	MPU6050_getMotionDetectionDuration:
 1084              	.LFB30:
 476:mpu6050.c     **** 
 477:mpu6050.c     **** // MOT_DUR register
 478:mpu6050.c     **** 
 479:mpu6050.c     **** /** Get motion detection event duration threshold.
 480:mpu6050.c     ****  * This register configures the duration counter threshold for Motion interrupt
 481:mpu6050.c     ****  * generation. The duration counter ticks at 1 kHz, therefore MOT_DUR has a unit
 482:mpu6050.c     ****  * of 1LSB = 1ms. The Motion detection duration counter increments when the
 483:mpu6050.c     ****  * absolute value of any of the accelerometer measurements exceeds the Motion
 484:mpu6050.c     ****  * detection threshold (Register 31). The Motion detection interrupt is
 485:mpu6050.c     ****  * triggered when the Motion detection counter reaches the time count specified
 486:mpu6050.c     ****  * in this register.
 487:mpu6050.c     ****  *
 488:mpu6050.c     ****  * For more details on the Motion detection interrupt, see Section 8.3 of the
 489:mpu6050.c     ****  * MPU-6000/MPU-6050 Product Specification document.
 490:mpu6050.c     ****  *
 491:mpu6050.c     ****  * @return Current motion detection duration threshold value (LSB = 1ms)
 492:mpu6050.c     ****  * @see MPU6050_RA_MOT_DUR
 493:mpu6050.c     ****  */
 494:mpu6050.c     **** uint8_t MPU6050_getMotionDetectionDuration() {
 1085              		.loc 1 494 0
 1086              		.cfi_startproc
 1087              		@ args = 0, pretend = 0, frame = 0
 1088              		@ frame_needed = 0, uses_anonymous_args = 0
 1089 0000 10B5     		push	{r4, lr}
 1090              		.cfi_def_cfa_offset 8
 1091              		.cfi_offset 4, -8
 1092              		.cfi_offset 14, -4
 495:mpu6050.c     ****     I2CReadByte(devAddr, MPU6050_RA_MOT_DUR, buffer);
 1093              		.loc 1 495 0
 1094 0002 044C     		ldr	r4, .L86
 1095 0004 044B     		ldr	r3, .L86+4
 1096 0006 1878     		ldrb	r0, [r3]
 1097 0008 2200     		movs	r2, r4
 1098 000a 2021     		movs	r1, #32
 1099 000c FFF7FEFF 		bl	I2CReadByte
 1100              	.LVL53:
 496:mpu6050.c     ****     return buffer[0];
ARM GAS  C:\Users\Asus\AppData\Local\Temp\cc7ymLuX.s 			page 29


 1101              		.loc 1 496 0
 1102 0010 2078     		ldrb	r0, [r4]
 497:mpu6050.c     **** }
 1103              		.loc 1 497 0
 1104              		@ sp needed
 1105 0012 10BD     		pop	{r4, pc}
 1106              	.L87:
 1107              		.align	2
 1108              	.L86:
 1109 0014 00000000 		.word	buffer
 1110 0018 00000000 		.word	devAddr
 1111              		.cfi_endproc
 1112              	.LFE30:
 1113              		.size	MPU6050_getMotionDetectionDuration, .-MPU6050_getMotionDetectionDuration
 1114              		.section	.text.MPU6050_setMotionDetectionDuration,"ax",%progbits
 1115              		.align	2
 1116              		.global	MPU6050_setMotionDetectionDuration
 1117              		.code	16
 1118              		.thumb_func
 1119              		.type	MPU6050_setMotionDetectionDuration, %function
 1120              	MPU6050_setMotionDetectionDuration:
 1121              	.LFB31:
 498:mpu6050.c     **** /** Set motion detection event duration threshold.
 499:mpu6050.c     ****  * @param duration New motion detection duration threshold value (LSB = 1ms)
 500:mpu6050.c     ****  * @see getMotionDetectionDuration()
 501:mpu6050.c     ****  * @see MPU6050_RA_MOT_DUR
 502:mpu6050.c     ****  */
 503:mpu6050.c     **** void MPU6050_setMotionDetectionDuration(uint8_t duration) {
 1122              		.loc 1 503 0
 1123              		.cfi_startproc
 1124              		@ args = 0, pretend = 0, frame = 0
 1125              		@ frame_needed = 0, uses_anonymous_args = 0
 1126              	.LVL54:
 1127 0000 10B5     		push	{r4, lr}
 1128              		.cfi_def_cfa_offset 8
 1129              		.cfi_offset 4, -8
 1130              		.cfi_offset 14, -4
 1131 0002 0200     		movs	r2, r0
 504:mpu6050.c     ****     I2CWriteByte(devAddr, MPU6050_RA_MOT_DUR, duration);
 1132              		.loc 1 504 0
 1133 0004 024B     		ldr	r3, .L89
 1134 0006 1878     		ldrb	r0, [r3]
 1135              	.LVL55:
 1136 0008 2021     		movs	r1, #32
 1137 000a FFF7FEFF 		bl	I2CWriteByte
 1138              	.LVL56:
 505:mpu6050.c     **** }
 1139              		.loc 1 505 0
 1140              		@ sp needed
 1141 000e 10BD     		pop	{r4, pc}
 1142              	.L90:
 1143              		.align	2
 1144              	.L89:
 1145 0010 00000000 		.word	devAddr
 1146              		.cfi_endproc
 1147              	.LFE31:
 1148              		.size	MPU6050_setMotionDetectionDuration, .-MPU6050_setMotionDetectionDuration
ARM GAS  C:\Users\Asus\AppData\Local\Temp\cc7ymLuX.s 			page 30


 1149              		.section	.text.MPU6050_getZeroMotionDetectionThreshold,"ax",%progbits
 1150              		.align	2
 1151              		.global	MPU6050_getZeroMotionDetectionThreshold
 1152              		.code	16
 1153              		.thumb_func
 1154              		.type	MPU6050_getZeroMotionDetectionThreshold, %function
 1155              	MPU6050_getZeroMotionDetectionThreshold:
 1156              	.LFB32:
 506:mpu6050.c     **** 
 507:mpu6050.c     **** // ZRMOT_THR register
 508:mpu6050.c     **** 
 509:mpu6050.c     **** /** Get zero motion detection event acceleration threshold.
 510:mpu6050.c     ****  * This register configures the detection threshold for Zero Motion interrupt
 511:mpu6050.c     ****  * generation. The unit of ZRMOT_THR is 1LSB = 2mg. Zero Motion is detected when
 512:mpu6050.c     ****  * the absolute value of the accelerometer measurements for the 3 axes are each
 513:mpu6050.c     ****  * less than the detection threshold. This condition increments the Zero Motion
 514:mpu6050.c     ****  * duration counter (Register 34). The Zero Motion interrupt is triggered when
 515:mpu6050.c     ****  * the Zero Motion duration counter reaches the time count specified in
 516:mpu6050.c     ****  * ZRMOT_DUR (Register 34).
 517:mpu6050.c     ****  *
 518:mpu6050.c     ****  * Unlike Free Fall or Motion detection, Zero Motion detection triggers an
 519:mpu6050.c     ****  * interrupt both when Zero Motion is first detected and when Zero Motion is no
 520:mpu6050.c     ****  * longer detected.
 521:mpu6050.c     ****  *
 522:mpu6050.c     ****  * When a zero motion event is detected, a Zero Motion Status will be indicated
 523:mpu6050.c     ****  * in the MOT_DETECT_STATUS register (Register 97). When a motion-to-zero-motion
 524:mpu6050.c     ****  * condition is detected, the status bit is set to 1. When a zero-motion-to-
 525:mpu6050.c     ****  * motion condition is detected, the status bit is set to 0.
 526:mpu6050.c     ****  *
 527:mpu6050.c     ****  * For more details on the Zero Motion detection interrupt, see Section 8.4 of
 528:mpu6050.c     ****  * the MPU-6000/MPU-6050 Product Specification document as well as Registers 56
 529:mpu6050.c     ****  * and 58 of this document.
 530:mpu6050.c     ****  *
 531:mpu6050.c     ****  * @return Current zero motion detection acceleration threshold value (LSB = 2mg)
 532:mpu6050.c     ****  * @see MPU6050_RA_ZRMOT_THR
 533:mpu6050.c     ****  */
 534:mpu6050.c     **** uint8_t MPU6050_getZeroMotionDetectionThreshold() {
 1157              		.loc 1 534 0
 1158              		.cfi_startproc
 1159              		@ args = 0, pretend = 0, frame = 0
 1160              		@ frame_needed = 0, uses_anonymous_args = 0
 1161 0000 10B5     		push	{r4, lr}
 1162              		.cfi_def_cfa_offset 8
 1163              		.cfi_offset 4, -8
 1164              		.cfi_offset 14, -4
 535:mpu6050.c     ****     I2CReadByte(devAddr, MPU6050_RA_ZRMOT_THR, buffer);
 1165              		.loc 1 535 0
 1166 0002 044C     		ldr	r4, .L92
 1167 0004 044B     		ldr	r3, .L92+4
 1168 0006 1878     		ldrb	r0, [r3]
 1169 0008 2200     		movs	r2, r4
 1170 000a 2121     		movs	r1, #33
 1171 000c FFF7FEFF 		bl	I2CReadByte
 1172              	.LVL57:
 536:mpu6050.c     ****     return buffer[0];
 1173              		.loc 1 536 0
 1174 0010 2078     		ldrb	r0, [r4]
ARM GAS  C:\Users\Asus\AppData\Local\Temp\cc7ymLuX.s 			page 31


 537:mpu6050.c     **** }
 1175              		.loc 1 537 0
 1176              		@ sp needed
 1177 0012 10BD     		pop	{r4, pc}
 1178              	.L93:
 1179              		.align	2
 1180              	.L92:
 1181 0014 00000000 		.word	buffer
 1182 0018 00000000 		.word	devAddr
 1183              		.cfi_endproc
 1184              	.LFE32:
 1185              		.size	MPU6050_getZeroMotionDetectionThreshold, .-MPU6050_getZeroMotionDetectionThreshold
 1186              		.section	.text.MPU6050_setZeroMotionDetectionThreshold,"ax",%progbits
 1187              		.align	2
 1188              		.global	MPU6050_setZeroMotionDetectionThreshold
 1189              		.code	16
 1190              		.thumb_func
 1191              		.type	MPU6050_setZeroMotionDetectionThreshold, %function
 1192              	MPU6050_setZeroMotionDetectionThreshold:
 1193              	.LFB33:
 538:mpu6050.c     **** /** Set zero motion detection event acceleration threshold.
 539:mpu6050.c     ****  * @param threshold New zero motion detection acceleration threshold value (LSB = 2mg)
 540:mpu6050.c     ****  * @see getZeroMotionDetectionThreshold()
 541:mpu6050.c     ****  * @see MPU6050_RA_ZRMOT_THR
 542:mpu6050.c     ****  */
 543:mpu6050.c     **** void MPU6050_setZeroMotionDetectionThreshold(uint8_t threshold) {
 1194              		.loc 1 543 0
 1195              		.cfi_startproc
 1196              		@ args = 0, pretend = 0, frame = 0
 1197              		@ frame_needed = 0, uses_anonymous_args = 0
 1198              	.LVL58:
 1199 0000 10B5     		push	{r4, lr}
 1200              		.cfi_def_cfa_offset 8
 1201              		.cfi_offset 4, -8
 1202              		.cfi_offset 14, -4
 1203 0002 0200     		movs	r2, r0
 544:mpu6050.c     ****     I2CWriteByte(devAddr, MPU6050_RA_ZRMOT_THR, threshold);
 1204              		.loc 1 544 0
 1205 0004 024B     		ldr	r3, .L95
 1206 0006 1878     		ldrb	r0, [r3]
 1207              	.LVL59:
 1208 0008 2121     		movs	r1, #33
 1209 000a FFF7FEFF 		bl	I2CWriteByte
 1210              	.LVL60:
 545:mpu6050.c     **** }
 1211              		.loc 1 545 0
 1212              		@ sp needed
 1213 000e 10BD     		pop	{r4, pc}
 1214              	.L96:
 1215              		.align	2
 1216              	.L95:
 1217 0010 00000000 		.word	devAddr
 1218              		.cfi_endproc
 1219              	.LFE33:
 1220              		.size	MPU6050_setZeroMotionDetectionThreshold, .-MPU6050_setZeroMotionDetectionThreshold
 1221              		.section	.text.MPU6050_getZeroMotionDetectionDuration,"ax",%progbits
 1222              		.align	2
ARM GAS  C:\Users\Asus\AppData\Local\Temp\cc7ymLuX.s 			page 32


 1223              		.global	MPU6050_getZeroMotionDetectionDuration
 1224              		.code	16
 1225              		.thumb_func
 1226              		.type	MPU6050_getZeroMotionDetectionDuration, %function
 1227              	MPU6050_getZeroMotionDetectionDuration:
 1228              	.LFB34:
 546:mpu6050.c     **** 
 547:mpu6050.c     **** // ZRMOT_DUR register
 548:mpu6050.c     **** 
 549:mpu6050.c     **** /** Get zero motion detection event duration threshold.
 550:mpu6050.c     ****  * This register configures the duration counter threshold for Zero Motion
 551:mpu6050.c     ****  * interrupt generation. The duration counter ticks at 16 Hz, therefore
 552:mpu6050.c     ****  * ZRMOT_DUR has a unit of 1 LSB = 64 ms. The Zero Motion duration counter
 553:mpu6050.c     ****  * increments while the absolute value of the accelerometer measurements are
 554:mpu6050.c     ****  * each less than the detection threshold (Register 33). The Zero Motion
 555:mpu6050.c     ****  * interrupt is triggered when the Zero Motion duration counter reaches the time
 556:mpu6050.c     ****  * count specified in this register.
 557:mpu6050.c     ****  *
 558:mpu6050.c     ****  * For more details on the Zero Motion detection interrupt, see Section 8.4 of
 559:mpu6050.c     ****  * the MPU-6000/MPU-6050 Product Specification document, as well as Registers 56
 560:mpu6050.c     ****  * and 58 of this document.
 561:mpu6050.c     ****  *
 562:mpu6050.c     ****  * @return Current zero motion detection duration threshold value (LSB = 64ms)
 563:mpu6050.c     ****  * @see MPU6050_RA_ZRMOT_DUR
 564:mpu6050.c     ****  */
 565:mpu6050.c     **** uint8_t MPU6050_getZeroMotionDetectionDuration() {
 1229              		.loc 1 565 0
 1230              		.cfi_startproc
 1231              		@ args = 0, pretend = 0, frame = 0
 1232              		@ frame_needed = 0, uses_anonymous_args = 0
 1233 0000 10B5     		push	{r4, lr}
 1234              		.cfi_def_cfa_offset 8
 1235              		.cfi_offset 4, -8
 1236              		.cfi_offset 14, -4
 566:mpu6050.c     ****     I2CReadByte(devAddr, MPU6050_RA_ZRMOT_DUR, buffer);
 1237              		.loc 1 566 0
 1238 0002 044C     		ldr	r4, .L98
 1239 0004 044B     		ldr	r3, .L98+4
 1240 0006 1878     		ldrb	r0, [r3]
 1241 0008 2200     		movs	r2, r4
 1242 000a 2221     		movs	r1, #34
 1243 000c FFF7FEFF 		bl	I2CReadByte
 1244              	.LVL61:
 567:mpu6050.c     ****     return buffer[0];
 1245              		.loc 1 567 0
 1246 0010 2078     		ldrb	r0, [r4]
 568:mpu6050.c     **** }
 1247              		.loc 1 568 0
 1248              		@ sp needed
 1249 0012 10BD     		pop	{r4, pc}
 1250              	.L99:
 1251              		.align	2
 1252              	.L98:
 1253 0014 00000000 		.word	buffer
 1254 0018 00000000 		.word	devAddr
 1255              		.cfi_endproc
 1256              	.LFE34:
ARM GAS  C:\Users\Asus\AppData\Local\Temp\cc7ymLuX.s 			page 33


 1257              		.size	MPU6050_getZeroMotionDetectionDuration, .-MPU6050_getZeroMotionDetectionDuration
 1258              		.section	.text.MPU6050_setZeroMotionDetectionDuration,"ax",%progbits
 1259              		.align	2
 1260              		.global	MPU6050_setZeroMotionDetectionDuration
 1261              		.code	16
 1262              		.thumb_func
 1263              		.type	MPU6050_setZeroMotionDetectionDuration, %function
 1264              	MPU6050_setZeroMotionDetectionDuration:
 1265              	.LFB35:
 569:mpu6050.c     **** /** Set zero motion detection event duration threshold.
 570:mpu6050.c     ****  * @param duration New zero motion detection duration threshold value (LSB = 1ms)
 571:mpu6050.c     ****  * @see getZeroMotionDetectionDuration()
 572:mpu6050.c     ****  * @see MPU6050_RA_ZRMOT_DUR
 573:mpu6050.c     ****  */
 574:mpu6050.c     **** void MPU6050_setZeroMotionDetectionDuration(uint8_t duration) {
 1266              		.loc 1 574 0
 1267              		.cfi_startproc
 1268              		@ args = 0, pretend = 0, frame = 0
 1269              		@ frame_needed = 0, uses_anonymous_args = 0
 1270              	.LVL62:
 1271 0000 10B5     		push	{r4, lr}
 1272              		.cfi_def_cfa_offset 8
 1273              		.cfi_offset 4, -8
 1274              		.cfi_offset 14, -4
 1275 0002 0200     		movs	r2, r0
 575:mpu6050.c     ****     I2CWriteByte(devAddr, MPU6050_RA_ZRMOT_DUR, duration);
 1276              		.loc 1 575 0
 1277 0004 024B     		ldr	r3, .L101
 1278 0006 1878     		ldrb	r0, [r3]
 1279              	.LVL63:
 1280 0008 2221     		movs	r1, #34
 1281 000a FFF7FEFF 		bl	I2CWriteByte
 1282              	.LVL64:
 576:mpu6050.c     **** }
 1283              		.loc 1 576 0
 1284              		@ sp needed
 1285 000e 10BD     		pop	{r4, pc}
 1286              	.L102:
 1287              		.align	2
 1288              	.L101:
 1289 0010 00000000 		.word	devAddr
 1290              		.cfi_endproc
 1291              	.LFE35:
 1292              		.size	MPU6050_setZeroMotionDetectionDuration, .-MPU6050_setZeroMotionDetectionDuration
 1293              		.section	.text.MPU6050_getTempFIFOEnabled,"ax",%progbits
 1294              		.align	2
 1295              		.global	MPU6050_getTempFIFOEnabled
 1296              		.code	16
 1297              		.thumb_func
 1298              		.type	MPU6050_getTempFIFOEnabled, %function
 1299              	MPU6050_getTempFIFOEnabled:
 1300              	.LFB36:
 577:mpu6050.c     **** 
 578:mpu6050.c     **** // FIFO_EN register
 579:mpu6050.c     **** 
 580:mpu6050.c     **** /** Get temperature FIFO enabled value.
 581:mpu6050.c     ****  * When set to 1, this bit enables TEMP_OUT_H and TEMP_OUT_L (Registers 65 and
ARM GAS  C:\Users\Asus\AppData\Local\Temp\cc7ymLuX.s 			page 34


 582:mpu6050.c     ****  * 66) to be written into the FIFO buffer.
 583:mpu6050.c     ****  * @return Current temperature FIFO enabled value
 584:mpu6050.c     ****  * @see MPU6050_RA_FIFO_EN
 585:mpu6050.c     ****  */
 586:mpu6050.c     **** bool MPU6050_getTempFIFOEnabled() {
 1301              		.loc 1 586 0
 1302              		.cfi_startproc
 1303              		@ args = 0, pretend = 0, frame = 0
 1304              		@ frame_needed = 0, uses_anonymous_args = 0
 1305 0000 10B5     		push	{r4, lr}
 1306              		.cfi_def_cfa_offset 8
 1307              		.cfi_offset 4, -8
 1308              		.cfi_offset 14, -4
 587:mpu6050.c     ****     I2CReadBit(devAddr, MPU6050_RA_FIFO_EN, MPU6050_TEMP_FIFO_EN_BIT, buffer);
 1309              		.loc 1 587 0
 1310 0002 064C     		ldr	r4, .L104
 1311 0004 064B     		ldr	r3, .L104+4
 1312 0006 1878     		ldrb	r0, [r3]
 1313 0008 2300     		movs	r3, r4
 1314 000a 0722     		movs	r2, #7
 1315 000c 2321     		movs	r1, #35
 1316 000e FFF7FEFF 		bl	I2CReadBit
 1317              	.LVL65:
 588:mpu6050.c     ****     return buffer[0];
 1318              		.loc 1 588 0
 1319 0012 2078     		ldrb	r0, [r4]
 1320 0014 431E     		subs	r3, r0, #1
 1321 0016 9841     		sbcs	r0, r0, r3
 1322 0018 C0B2     		uxtb	r0, r0
 589:mpu6050.c     **** }
 1323              		.loc 1 589 0
 1324              		@ sp needed
 1325 001a 10BD     		pop	{r4, pc}
 1326              	.L105:
 1327              		.align	2
 1328              	.L104:
 1329 001c 00000000 		.word	buffer
 1330 0020 00000000 		.word	devAddr
 1331              		.cfi_endproc
 1332              	.LFE36:
 1333              		.size	MPU6050_getTempFIFOEnabled, .-MPU6050_getTempFIFOEnabled
 1334              		.section	.text.MPU6050_setTempFIFOEnabled,"ax",%progbits
 1335              		.align	2
 1336              		.global	MPU6050_setTempFIFOEnabled
 1337              		.code	16
 1338              		.thumb_func
 1339              		.type	MPU6050_setTempFIFOEnabled, %function
 1340              	MPU6050_setTempFIFOEnabled:
 1341              	.LFB37:
 590:mpu6050.c     **** /** Set temperature FIFO enabled value.
 591:mpu6050.c     ****  * @param enabled New temperature FIFO enabled value
 592:mpu6050.c     ****  * @see getTempFIFOEnabled()
 593:mpu6050.c     ****  * @see MPU6050_RA_FIFO_EN
 594:mpu6050.c     ****  */
 595:mpu6050.c     **** void MPU6050_setTempFIFOEnabled(bool enabled) {
 1342              		.loc 1 595 0
 1343              		.cfi_startproc
ARM GAS  C:\Users\Asus\AppData\Local\Temp\cc7ymLuX.s 			page 35


 1344              		@ args = 0, pretend = 0, frame = 0
 1345              		@ frame_needed = 0, uses_anonymous_args = 0
 1346              	.LVL66:
 1347 0000 10B5     		push	{r4, lr}
 1348              		.cfi_def_cfa_offset 8
 1349              		.cfi_offset 4, -8
 1350              		.cfi_offset 14, -4
 1351 0002 0300     		movs	r3, r0
 596:mpu6050.c     ****     I2CWriteBit(devAddr, MPU6050_RA_FIFO_EN, MPU6050_TEMP_FIFO_EN_BIT, enabled);
 1352              		.loc 1 596 0
 1353 0004 034A     		ldr	r2, .L107
 1354 0006 1078     		ldrb	r0, [r2]
 1355              	.LVL67:
 1356 0008 0722     		movs	r2, #7
 1357 000a 2321     		movs	r1, #35
 1358 000c FFF7FEFF 		bl	I2CWriteBit
 1359              	.LVL68:
 597:mpu6050.c     **** }
 1360              		.loc 1 597 0
 1361              		@ sp needed
 1362 0010 10BD     		pop	{r4, pc}
 1363              	.L108:
 1364 0012 C046     		.align	2
 1365              	.L107:
 1366 0014 00000000 		.word	devAddr
 1367              		.cfi_endproc
 1368              	.LFE37:
 1369              		.size	MPU6050_setTempFIFOEnabled, .-MPU6050_setTempFIFOEnabled
 1370              		.section	.text.MPU6050_getXGyroFIFOEnabled,"ax",%progbits
 1371              		.align	2
 1372              		.global	MPU6050_getXGyroFIFOEnabled
 1373              		.code	16
 1374              		.thumb_func
 1375              		.type	MPU6050_getXGyroFIFOEnabled, %function
 1376              	MPU6050_getXGyroFIFOEnabled:
 1377              	.LFB38:
 598:mpu6050.c     **** /** Get gyroscope X-axis FIFO enabled value.
 599:mpu6050.c     ****  * When set to 1, this bit enables GYRO_XOUT_H and GYRO_XOUT_L (Registers 67 and
 600:mpu6050.c     ****  * 68) to be written into the FIFO buffer.
 601:mpu6050.c     ****  * @return Current gyroscope X-axis FIFO enabled value
 602:mpu6050.c     ****  * @see MPU6050_RA_FIFO_EN
 603:mpu6050.c     ****  */
 604:mpu6050.c     **** bool MPU6050_getXGyroFIFOEnabled() {
 1378              		.loc 1 604 0
 1379              		.cfi_startproc
 1380              		@ args = 0, pretend = 0, frame = 0
 1381              		@ frame_needed = 0, uses_anonymous_args = 0
 1382 0000 10B5     		push	{r4, lr}
 1383              		.cfi_def_cfa_offset 8
 1384              		.cfi_offset 4, -8
 1385              		.cfi_offset 14, -4
 605:mpu6050.c     ****     I2CReadBit(devAddr, MPU6050_RA_FIFO_EN, MPU6050_XG_FIFO_EN_BIT, buffer);
 1386              		.loc 1 605 0
 1387 0002 064C     		ldr	r4, .L110
 1388 0004 064B     		ldr	r3, .L110+4
 1389 0006 1878     		ldrb	r0, [r3]
 1390 0008 2300     		movs	r3, r4
ARM GAS  C:\Users\Asus\AppData\Local\Temp\cc7ymLuX.s 			page 36


 1391 000a 0622     		movs	r2, #6
 1392 000c 2321     		movs	r1, #35
 1393 000e FFF7FEFF 		bl	I2CReadBit
 1394              	.LVL69:
 606:mpu6050.c     ****     return buffer[0];
 1395              		.loc 1 606 0
 1396 0012 2078     		ldrb	r0, [r4]
 1397 0014 431E     		subs	r3, r0, #1
 1398 0016 9841     		sbcs	r0, r0, r3
 1399 0018 C0B2     		uxtb	r0, r0
 607:mpu6050.c     **** }
 1400              		.loc 1 607 0
 1401              		@ sp needed
 1402 001a 10BD     		pop	{r4, pc}
 1403              	.L111:
 1404              		.align	2
 1405              	.L110:
 1406 001c 00000000 		.word	buffer
 1407 0020 00000000 		.word	devAddr
 1408              		.cfi_endproc
 1409              	.LFE38:
 1410              		.size	MPU6050_getXGyroFIFOEnabled, .-MPU6050_getXGyroFIFOEnabled
 1411              		.section	.text.MPU6050_setXGyroFIFOEnabled,"ax",%progbits
 1412              		.align	2
 1413              		.global	MPU6050_setXGyroFIFOEnabled
 1414              		.code	16
 1415              		.thumb_func
 1416              		.type	MPU6050_setXGyroFIFOEnabled, %function
 1417              	MPU6050_setXGyroFIFOEnabled:
 1418              	.LFB39:
 608:mpu6050.c     **** /** Set gyroscope X-axis FIFO enabled value.
 609:mpu6050.c     ****  * @param enabled New gyroscope X-axis FIFO enabled value
 610:mpu6050.c     ****  * @see getXGyroFIFOEnabled()
 611:mpu6050.c     ****  * @see MPU6050_RA_FIFO_EN
 612:mpu6050.c     ****  */
 613:mpu6050.c     **** void MPU6050_setXGyroFIFOEnabled(bool enabled) {
 1419              		.loc 1 613 0
 1420              		.cfi_startproc
 1421              		@ args = 0, pretend = 0, frame = 0
 1422              		@ frame_needed = 0, uses_anonymous_args = 0
 1423              	.LVL70:
 1424 0000 10B5     		push	{r4, lr}
 1425              		.cfi_def_cfa_offset 8
 1426              		.cfi_offset 4, -8
 1427              		.cfi_offset 14, -4
 1428 0002 0300     		movs	r3, r0
 614:mpu6050.c     ****     I2CWriteBit(devAddr, MPU6050_RA_FIFO_EN, MPU6050_XG_FIFO_EN_BIT, enabled);
 1429              		.loc 1 614 0
 1430 0004 034A     		ldr	r2, .L113
 1431 0006 1078     		ldrb	r0, [r2]
 1432              	.LVL71:
 1433 0008 0622     		movs	r2, #6
 1434 000a 2321     		movs	r1, #35
 1435 000c FFF7FEFF 		bl	I2CWriteBit
 1436              	.LVL72:
 615:mpu6050.c     **** }
 1437              		.loc 1 615 0
ARM GAS  C:\Users\Asus\AppData\Local\Temp\cc7ymLuX.s 			page 37


 1438              		@ sp needed
 1439 0010 10BD     		pop	{r4, pc}
 1440              	.L114:
 1441 0012 C046     		.align	2
 1442              	.L113:
 1443 0014 00000000 		.word	devAddr
 1444              		.cfi_endproc
 1445              	.LFE39:
 1446              		.size	MPU6050_setXGyroFIFOEnabled, .-MPU6050_setXGyroFIFOEnabled
 1447              		.section	.text.MPU6050_getYGyroFIFOEnabled,"ax",%progbits
 1448              		.align	2
 1449              		.global	MPU6050_getYGyroFIFOEnabled
 1450              		.code	16
 1451              		.thumb_func
 1452              		.type	MPU6050_getYGyroFIFOEnabled, %function
 1453              	MPU6050_getYGyroFIFOEnabled:
 1454              	.LFB40:
 616:mpu6050.c     **** /** Get gyroscope Y-axis FIFO enabled value.
 617:mpu6050.c     ****  * When set to 1, this bit enables GYRO_YOUT_H and GYRO_YOUT_L (Registers 69 and
 618:mpu6050.c     ****  * 70) to be written into the FIFO buffer.
 619:mpu6050.c     ****  * @return Current gyroscope Y-axis FIFO enabled value
 620:mpu6050.c     ****  * @see MPU6050_RA_FIFO_EN
 621:mpu6050.c     ****  */
 622:mpu6050.c     **** bool MPU6050_getYGyroFIFOEnabled() {
 1455              		.loc 1 622 0
 1456              		.cfi_startproc
 1457              		@ args = 0, pretend = 0, frame = 0
 1458              		@ frame_needed = 0, uses_anonymous_args = 0
 1459 0000 10B5     		push	{r4, lr}
 1460              		.cfi_def_cfa_offset 8
 1461              		.cfi_offset 4, -8
 1462              		.cfi_offset 14, -4
 623:mpu6050.c     ****     I2CReadBit(devAddr, MPU6050_RA_FIFO_EN, MPU6050_YG_FIFO_EN_BIT, buffer);
 1463              		.loc 1 623 0
 1464 0002 064C     		ldr	r4, .L116
 1465 0004 064B     		ldr	r3, .L116+4
 1466 0006 1878     		ldrb	r0, [r3]
 1467 0008 2300     		movs	r3, r4
 1468 000a 0522     		movs	r2, #5
 1469 000c 2321     		movs	r1, #35
 1470 000e FFF7FEFF 		bl	I2CReadBit
 1471              	.LVL73:
 624:mpu6050.c     ****     return buffer[0];
 1472              		.loc 1 624 0
 1473 0012 2078     		ldrb	r0, [r4]
 1474 0014 431E     		subs	r3, r0, #1
 1475 0016 9841     		sbcs	r0, r0, r3
 1476 0018 C0B2     		uxtb	r0, r0
 625:mpu6050.c     **** }
 1477              		.loc 1 625 0
 1478              		@ sp needed
 1479 001a 10BD     		pop	{r4, pc}
 1480              	.L117:
 1481              		.align	2
 1482              	.L116:
 1483 001c 00000000 		.word	buffer
 1484 0020 00000000 		.word	devAddr
ARM GAS  C:\Users\Asus\AppData\Local\Temp\cc7ymLuX.s 			page 38


 1485              		.cfi_endproc
 1486              	.LFE40:
 1487              		.size	MPU6050_getYGyroFIFOEnabled, .-MPU6050_getYGyroFIFOEnabled
 1488              		.section	.text.MPU6050_setYGyroFIFOEnabled,"ax",%progbits
 1489              		.align	2
 1490              		.global	MPU6050_setYGyroFIFOEnabled
 1491              		.code	16
 1492              		.thumb_func
 1493              		.type	MPU6050_setYGyroFIFOEnabled, %function
 1494              	MPU6050_setYGyroFIFOEnabled:
 1495              	.LFB41:
 626:mpu6050.c     **** /** Set gyroscope Y-axis FIFO enabled value.
 627:mpu6050.c     ****  * @param enabled New gyroscope Y-axis FIFO enabled value
 628:mpu6050.c     ****  * @see getYGyroFIFOEnabled()
 629:mpu6050.c     ****  * @see MPU6050_RA_FIFO_EN
 630:mpu6050.c     ****  */
 631:mpu6050.c     **** void MPU6050_setYGyroFIFOEnabled(bool enabled) {
 1496              		.loc 1 631 0
 1497              		.cfi_startproc
 1498              		@ args = 0, pretend = 0, frame = 0
 1499              		@ frame_needed = 0, uses_anonymous_args = 0
 1500              	.LVL74:
 1501 0000 10B5     		push	{r4, lr}
 1502              		.cfi_def_cfa_offset 8
 1503              		.cfi_offset 4, -8
 1504              		.cfi_offset 14, -4
 1505 0002 0300     		movs	r3, r0
 632:mpu6050.c     ****     I2CWriteBit(devAddr, MPU6050_RA_FIFO_EN, MPU6050_YG_FIFO_EN_BIT, enabled);
 1506              		.loc 1 632 0
 1507 0004 034A     		ldr	r2, .L119
 1508 0006 1078     		ldrb	r0, [r2]
 1509              	.LVL75:
 1510 0008 0522     		movs	r2, #5
 1511 000a 2321     		movs	r1, #35
 1512 000c FFF7FEFF 		bl	I2CWriteBit
 1513              	.LVL76:
 633:mpu6050.c     **** }
 1514              		.loc 1 633 0
 1515              		@ sp needed
 1516 0010 10BD     		pop	{r4, pc}
 1517              	.L120:
 1518 0012 C046     		.align	2
 1519              	.L119:
 1520 0014 00000000 		.word	devAddr
 1521              		.cfi_endproc
 1522              	.LFE41:
 1523              		.size	MPU6050_setYGyroFIFOEnabled, .-MPU6050_setYGyroFIFOEnabled
 1524              		.section	.text.MPU6050_getZGyroFIFOEnabled,"ax",%progbits
 1525              		.align	2
 1526              		.global	MPU6050_getZGyroFIFOEnabled
 1527              		.code	16
 1528              		.thumb_func
 1529              		.type	MPU6050_getZGyroFIFOEnabled, %function
 1530              	MPU6050_getZGyroFIFOEnabled:
 1531              	.LFB42:
 634:mpu6050.c     **** /** Get gyroscope Z-axis FIFO enabled value.
 635:mpu6050.c     ****  * When set to 1, this bit enables GYRO_ZOUT_H and GYRO_ZOUT_L (Registers 71 and
ARM GAS  C:\Users\Asus\AppData\Local\Temp\cc7ymLuX.s 			page 39


 636:mpu6050.c     ****  * 72) to be written into the FIFO buffer.
 637:mpu6050.c     ****  * @return Current gyroscope Z-axis FIFO enabled value
 638:mpu6050.c     ****  * @see MPU6050_RA_FIFO_EN
 639:mpu6050.c     ****  */
 640:mpu6050.c     **** bool MPU6050_getZGyroFIFOEnabled() {
 1532              		.loc 1 640 0
 1533              		.cfi_startproc
 1534              		@ args = 0, pretend = 0, frame = 0
 1535              		@ frame_needed = 0, uses_anonymous_args = 0
 1536 0000 10B5     		push	{r4, lr}
 1537              		.cfi_def_cfa_offset 8
 1538              		.cfi_offset 4, -8
 1539              		.cfi_offset 14, -4
 641:mpu6050.c     ****     I2CReadBit(devAddr, MPU6050_RA_FIFO_EN, MPU6050_ZG_FIFO_EN_BIT, buffer);
 1540              		.loc 1 641 0
 1541 0002 064C     		ldr	r4, .L122
 1542 0004 064B     		ldr	r3, .L122+4
 1543 0006 1878     		ldrb	r0, [r3]
 1544 0008 2300     		movs	r3, r4
 1545 000a 0422     		movs	r2, #4
 1546 000c 2321     		movs	r1, #35
 1547 000e FFF7FEFF 		bl	I2CReadBit
 1548              	.LVL77:
 642:mpu6050.c     ****     return buffer[0];
 1549              		.loc 1 642 0
 1550 0012 2078     		ldrb	r0, [r4]
 1551 0014 431E     		subs	r3, r0, #1
 1552 0016 9841     		sbcs	r0, r0, r3
 1553 0018 C0B2     		uxtb	r0, r0
 643:mpu6050.c     **** }
 1554              		.loc 1 643 0
 1555              		@ sp needed
 1556 001a 10BD     		pop	{r4, pc}
 1557              	.L123:
 1558              		.align	2
 1559              	.L122:
 1560 001c 00000000 		.word	buffer
 1561 0020 00000000 		.word	devAddr
 1562              		.cfi_endproc
 1563              	.LFE42:
 1564              		.size	MPU6050_getZGyroFIFOEnabled, .-MPU6050_getZGyroFIFOEnabled
 1565              		.section	.text.MPU6050_setZGyroFIFOEnabled,"ax",%progbits
 1566              		.align	2
 1567              		.global	MPU6050_setZGyroFIFOEnabled
 1568              		.code	16
 1569              		.thumb_func
 1570              		.type	MPU6050_setZGyroFIFOEnabled, %function
 1571              	MPU6050_setZGyroFIFOEnabled:
 1572              	.LFB43:
 644:mpu6050.c     **** /** Set gyroscope Z-axis FIFO enabled value.
 645:mpu6050.c     ****  * @param enabled New gyroscope Z-axis FIFO enabled value
 646:mpu6050.c     ****  * @see getZGyroFIFOEnabled()
 647:mpu6050.c     ****  * @see MPU6050_RA_FIFO_EN
 648:mpu6050.c     ****  */
 649:mpu6050.c     **** void MPU6050_setZGyroFIFOEnabled(bool enabled) {
 1573              		.loc 1 649 0
 1574              		.cfi_startproc
ARM GAS  C:\Users\Asus\AppData\Local\Temp\cc7ymLuX.s 			page 40


 1575              		@ args = 0, pretend = 0, frame = 0
 1576              		@ frame_needed = 0, uses_anonymous_args = 0
 1577              	.LVL78:
 1578 0000 10B5     		push	{r4, lr}
 1579              		.cfi_def_cfa_offset 8
 1580              		.cfi_offset 4, -8
 1581              		.cfi_offset 14, -4
 1582 0002 0300     		movs	r3, r0
 650:mpu6050.c     ****     I2CWriteBit(devAddr, MPU6050_RA_FIFO_EN, MPU6050_ZG_FIFO_EN_BIT, enabled);
 1583              		.loc 1 650 0
 1584 0004 034A     		ldr	r2, .L125
 1585 0006 1078     		ldrb	r0, [r2]
 1586              	.LVL79:
 1587 0008 0422     		movs	r2, #4
 1588 000a 2321     		movs	r1, #35
 1589 000c FFF7FEFF 		bl	I2CWriteBit
 1590              	.LVL80:
 651:mpu6050.c     **** }
 1591              		.loc 1 651 0
 1592              		@ sp needed
 1593 0010 10BD     		pop	{r4, pc}
 1594              	.L126:
 1595 0012 C046     		.align	2
 1596              	.L125:
 1597 0014 00000000 		.word	devAddr
 1598              		.cfi_endproc
 1599              	.LFE43:
 1600              		.size	MPU6050_setZGyroFIFOEnabled, .-MPU6050_setZGyroFIFOEnabled
 1601              		.section	.text.MPU6050_getAccelFIFOEnabled,"ax",%progbits
 1602              		.align	2
 1603              		.global	MPU6050_getAccelFIFOEnabled
 1604              		.code	16
 1605              		.thumb_func
 1606              		.type	MPU6050_getAccelFIFOEnabled, %function
 1607              	MPU6050_getAccelFIFOEnabled:
 1608              	.LFB44:
 652:mpu6050.c     **** /** Get accelerometer FIFO enabled value.
 653:mpu6050.c     ****  * When set to 1, this bit enables ACCEL_XOUT_H, ACCEL_XOUT_L, ACCEL_YOUT_H,
 654:mpu6050.c     ****  * ACCEL_YOUT_L, ACCEL_ZOUT_H, and ACCEL_ZOUT_L (Registers 59 to 64) to be
 655:mpu6050.c     ****  * written into the FIFO buffer.
 656:mpu6050.c     ****  * @return Current accelerometer FIFO enabled value
 657:mpu6050.c     ****  * @see MPU6050_RA_FIFO_EN
 658:mpu6050.c     ****  */
 659:mpu6050.c     **** bool MPU6050_getAccelFIFOEnabled() {
 1609              		.loc 1 659 0
 1610              		.cfi_startproc
 1611              		@ args = 0, pretend = 0, frame = 0
 1612              		@ frame_needed = 0, uses_anonymous_args = 0
 1613 0000 10B5     		push	{r4, lr}
 1614              		.cfi_def_cfa_offset 8
 1615              		.cfi_offset 4, -8
 1616              		.cfi_offset 14, -4
 660:mpu6050.c     ****     I2CReadBit(devAddr, MPU6050_RA_FIFO_EN, MPU6050_ACCEL_FIFO_EN_BIT, buffer);
 1617              		.loc 1 660 0
 1618 0002 064C     		ldr	r4, .L128
 1619 0004 064B     		ldr	r3, .L128+4
 1620 0006 1878     		ldrb	r0, [r3]
ARM GAS  C:\Users\Asus\AppData\Local\Temp\cc7ymLuX.s 			page 41


 1621 0008 2300     		movs	r3, r4
 1622 000a 0322     		movs	r2, #3
 1623 000c 2321     		movs	r1, #35
 1624 000e FFF7FEFF 		bl	I2CReadBit
 1625              	.LVL81:
 661:mpu6050.c     ****     return buffer[0];
 1626              		.loc 1 661 0
 1627 0012 2078     		ldrb	r0, [r4]
 1628 0014 431E     		subs	r3, r0, #1
 1629 0016 9841     		sbcs	r0, r0, r3
 1630 0018 C0B2     		uxtb	r0, r0
 662:mpu6050.c     **** }
 1631              		.loc 1 662 0
 1632              		@ sp needed
 1633 001a 10BD     		pop	{r4, pc}
 1634              	.L129:
 1635              		.align	2
 1636              	.L128:
 1637 001c 00000000 		.word	buffer
 1638 0020 00000000 		.word	devAddr
 1639              		.cfi_endproc
 1640              	.LFE44:
 1641              		.size	MPU6050_getAccelFIFOEnabled, .-MPU6050_getAccelFIFOEnabled
 1642              		.section	.text.MPU6050_setAccelFIFOEnabled,"ax",%progbits
 1643              		.align	2
 1644              		.global	MPU6050_setAccelFIFOEnabled
 1645              		.code	16
 1646              		.thumb_func
 1647              		.type	MPU6050_setAccelFIFOEnabled, %function
 1648              	MPU6050_setAccelFIFOEnabled:
 1649              	.LFB45:
 663:mpu6050.c     **** /** Set accelerometer FIFO enabled value.
 664:mpu6050.c     ****  * @param enabled New accelerometer FIFO enabled value
 665:mpu6050.c     ****  * @see getAccelFIFOEnabled()
 666:mpu6050.c     ****  * @see MPU6050_RA_FIFO_EN
 667:mpu6050.c     ****  */
 668:mpu6050.c     **** void MPU6050_setAccelFIFOEnabled(bool enabled) {
 1650              		.loc 1 668 0
 1651              		.cfi_startproc
 1652              		@ args = 0, pretend = 0, frame = 0
 1653              		@ frame_needed = 0, uses_anonymous_args = 0
 1654              	.LVL82:
 1655 0000 10B5     		push	{r4, lr}
 1656              		.cfi_def_cfa_offset 8
 1657              		.cfi_offset 4, -8
 1658              		.cfi_offset 14, -4
 1659 0002 0300     		movs	r3, r0
 669:mpu6050.c     ****     I2CWriteBit(devAddr, MPU6050_RA_FIFO_EN, MPU6050_ACCEL_FIFO_EN_BIT, enabled);
 1660              		.loc 1 669 0
 1661 0004 034A     		ldr	r2, .L131
 1662 0006 1078     		ldrb	r0, [r2]
 1663              	.LVL83:
 1664 0008 0322     		movs	r2, #3
 1665 000a 2321     		movs	r1, #35
 1666 000c FFF7FEFF 		bl	I2CWriteBit
 1667              	.LVL84:
 670:mpu6050.c     **** }
ARM GAS  C:\Users\Asus\AppData\Local\Temp\cc7ymLuX.s 			page 42


 1668              		.loc 1 670 0
 1669              		@ sp needed
 1670 0010 10BD     		pop	{r4, pc}
 1671              	.L132:
 1672 0012 C046     		.align	2
 1673              	.L131:
 1674 0014 00000000 		.word	devAddr
 1675              		.cfi_endproc
 1676              	.LFE45:
 1677              		.size	MPU6050_setAccelFIFOEnabled, .-MPU6050_setAccelFIFOEnabled
 1678              		.section	.text.MPU6050_getSlave2FIFOEnabled,"ax",%progbits
 1679              		.align	2
 1680              		.global	MPU6050_getSlave2FIFOEnabled
 1681              		.code	16
 1682              		.thumb_func
 1683              		.type	MPU6050_getSlave2FIFOEnabled, %function
 1684              	MPU6050_getSlave2FIFOEnabled:
 1685              	.LFB46:
 671:mpu6050.c     **** /** Get Slave 2 FIFO enabled value.
 672:mpu6050.c     ****  * When set to 1, this bit enables EXT_SENS_DATA registers (Registers 73 to 96)
 673:mpu6050.c     ****  * associated with Slave 2 to be written into the FIFO buffer.
 674:mpu6050.c     ****  * @return Current Slave 2 FIFO enabled value
 675:mpu6050.c     ****  * @see MPU6050_RA_FIFO_EN
 676:mpu6050.c     ****  */
 677:mpu6050.c     **** bool MPU6050_getSlave2FIFOEnabled() {
 1686              		.loc 1 677 0
 1687              		.cfi_startproc
 1688              		@ args = 0, pretend = 0, frame = 0
 1689              		@ frame_needed = 0, uses_anonymous_args = 0
 1690 0000 10B5     		push	{r4, lr}
 1691              		.cfi_def_cfa_offset 8
 1692              		.cfi_offset 4, -8
 1693              		.cfi_offset 14, -4
 678:mpu6050.c     ****     I2CReadBit(devAddr, MPU6050_RA_FIFO_EN, MPU6050_SLV2_FIFO_EN_BIT, buffer);
 1694              		.loc 1 678 0
 1695 0002 064C     		ldr	r4, .L134
 1696 0004 064B     		ldr	r3, .L134+4
 1697 0006 1878     		ldrb	r0, [r3]
 1698 0008 2300     		movs	r3, r4
 1699 000a 0222     		movs	r2, #2
 1700 000c 2321     		movs	r1, #35
 1701 000e FFF7FEFF 		bl	I2CReadBit
 1702              	.LVL85:
 679:mpu6050.c     ****     return buffer[0];
 1703              		.loc 1 679 0
 1704 0012 2078     		ldrb	r0, [r4]
 1705 0014 431E     		subs	r3, r0, #1
 1706 0016 9841     		sbcs	r0, r0, r3
 1707 0018 C0B2     		uxtb	r0, r0
 680:mpu6050.c     **** }
 1708              		.loc 1 680 0
 1709              		@ sp needed
 1710 001a 10BD     		pop	{r4, pc}
 1711              	.L135:
 1712              		.align	2
 1713              	.L134:
 1714 001c 00000000 		.word	buffer
ARM GAS  C:\Users\Asus\AppData\Local\Temp\cc7ymLuX.s 			page 43


 1715 0020 00000000 		.word	devAddr
 1716              		.cfi_endproc
 1717              	.LFE46:
 1718              		.size	MPU6050_getSlave2FIFOEnabled, .-MPU6050_getSlave2FIFOEnabled
 1719              		.section	.text.MPU6050_setSlave2FIFOEnabled,"ax",%progbits
 1720              		.align	2
 1721              		.global	MPU6050_setSlave2FIFOEnabled
 1722              		.code	16
 1723              		.thumb_func
 1724              		.type	MPU6050_setSlave2FIFOEnabled, %function
 1725              	MPU6050_setSlave2FIFOEnabled:
 1726              	.LFB47:
 681:mpu6050.c     **** /** Set Slave 2 FIFO enabled value.
 682:mpu6050.c     ****  * @param enabled New Slave 2 FIFO enabled value
 683:mpu6050.c     ****  * @see getSlave2FIFOEnabled()
 684:mpu6050.c     ****  * @see MPU6050_RA_FIFO_EN
 685:mpu6050.c     ****  */
 686:mpu6050.c     **** void MPU6050_setSlave2FIFOEnabled(bool enabled) {
 1727              		.loc 1 686 0
 1728              		.cfi_startproc
 1729              		@ args = 0, pretend = 0, frame = 0
 1730              		@ frame_needed = 0, uses_anonymous_args = 0
 1731              	.LVL86:
 1732 0000 10B5     		push	{r4, lr}
 1733              		.cfi_def_cfa_offset 8
 1734              		.cfi_offset 4, -8
 1735              		.cfi_offset 14, -4
 1736 0002 0300     		movs	r3, r0
 687:mpu6050.c     ****     I2CWriteBit(devAddr, MPU6050_RA_FIFO_EN, MPU6050_SLV2_FIFO_EN_BIT, enabled);
 1737              		.loc 1 687 0
 1738 0004 034A     		ldr	r2, .L137
 1739 0006 1078     		ldrb	r0, [r2]
 1740              	.LVL87:
 1741 0008 0222     		movs	r2, #2
 1742 000a 2321     		movs	r1, #35
 1743 000c FFF7FEFF 		bl	I2CWriteBit
 1744              	.LVL88:
 688:mpu6050.c     **** }
 1745              		.loc 1 688 0
 1746              		@ sp needed
 1747 0010 10BD     		pop	{r4, pc}
 1748              	.L138:
 1749 0012 C046     		.align	2
 1750              	.L137:
 1751 0014 00000000 		.word	devAddr
 1752              		.cfi_endproc
 1753              	.LFE47:
 1754              		.size	MPU6050_setSlave2FIFOEnabled, .-MPU6050_setSlave2FIFOEnabled
 1755              		.section	.text.MPU6050_getSlave1FIFOEnabled,"ax",%progbits
 1756              		.align	2
 1757              		.global	MPU6050_getSlave1FIFOEnabled
 1758              		.code	16
 1759              		.thumb_func
 1760              		.type	MPU6050_getSlave1FIFOEnabled, %function
 1761              	MPU6050_getSlave1FIFOEnabled:
 1762              	.LFB48:
 689:mpu6050.c     **** /** Get Slave 1 FIFO enabled value.
ARM GAS  C:\Users\Asus\AppData\Local\Temp\cc7ymLuX.s 			page 44


 690:mpu6050.c     ****  * When set to 1, this bit enables EXT_SENS_DATA registers (Registers 73 to 96)
 691:mpu6050.c     ****  * associated with Slave 1 to be written into the FIFO buffer.
 692:mpu6050.c     ****  * @return Current Slave 1 FIFO enabled value
 693:mpu6050.c     ****  * @see MPU6050_RA_FIFO_EN
 694:mpu6050.c     ****  */
 695:mpu6050.c     **** bool MPU6050_getSlave1FIFOEnabled() {
 1763              		.loc 1 695 0
 1764              		.cfi_startproc
 1765              		@ args = 0, pretend = 0, frame = 0
 1766              		@ frame_needed = 0, uses_anonymous_args = 0
 1767 0000 10B5     		push	{r4, lr}
 1768              		.cfi_def_cfa_offset 8
 1769              		.cfi_offset 4, -8
 1770              		.cfi_offset 14, -4
 696:mpu6050.c     ****     I2CReadBit(devAddr, MPU6050_RA_FIFO_EN, MPU6050_SLV1_FIFO_EN_BIT, buffer);
 1771              		.loc 1 696 0
 1772 0002 064C     		ldr	r4, .L140
 1773 0004 064B     		ldr	r3, .L140+4
 1774 0006 1878     		ldrb	r0, [r3]
 1775 0008 2300     		movs	r3, r4
 1776 000a 0122     		movs	r2, #1
 1777 000c 2321     		movs	r1, #35
 1778 000e FFF7FEFF 		bl	I2CReadBit
 1779              	.LVL89:
 697:mpu6050.c     ****     return buffer[0];
 1780              		.loc 1 697 0
 1781 0012 2078     		ldrb	r0, [r4]
 1782 0014 431E     		subs	r3, r0, #1
 1783 0016 9841     		sbcs	r0, r0, r3
 1784 0018 C0B2     		uxtb	r0, r0
 698:mpu6050.c     **** }
 1785              		.loc 1 698 0
 1786              		@ sp needed
 1787 001a 10BD     		pop	{r4, pc}
 1788              	.L141:
 1789              		.align	2
 1790              	.L140:
 1791 001c 00000000 		.word	buffer
 1792 0020 00000000 		.word	devAddr
 1793              		.cfi_endproc
 1794              	.LFE48:
 1795              		.size	MPU6050_getSlave1FIFOEnabled, .-MPU6050_getSlave1FIFOEnabled
 1796              		.section	.text.MPU6050_setSlave1FIFOEnabled,"ax",%progbits
 1797              		.align	2
 1798              		.global	MPU6050_setSlave1FIFOEnabled
 1799              		.code	16
 1800              		.thumb_func
 1801              		.type	MPU6050_setSlave1FIFOEnabled, %function
 1802              	MPU6050_setSlave1FIFOEnabled:
 1803              	.LFB49:
 699:mpu6050.c     **** /** Set Slave 1 FIFO enabled value.
 700:mpu6050.c     ****  * @param enabled New Slave 1 FIFO enabled value
 701:mpu6050.c     ****  * @see getSlave1FIFOEnabled()
 702:mpu6050.c     ****  * @see MPU6050_RA_FIFO_EN
 703:mpu6050.c     ****  */
 704:mpu6050.c     **** void MPU6050_setSlave1FIFOEnabled(bool enabled) {
 1804              		.loc 1 704 0
ARM GAS  C:\Users\Asus\AppData\Local\Temp\cc7ymLuX.s 			page 45


 1805              		.cfi_startproc
 1806              		@ args = 0, pretend = 0, frame = 0
 1807              		@ frame_needed = 0, uses_anonymous_args = 0
 1808              	.LVL90:
 1809 0000 10B5     		push	{r4, lr}
 1810              		.cfi_def_cfa_offset 8
 1811              		.cfi_offset 4, -8
 1812              		.cfi_offset 14, -4
 1813 0002 0300     		movs	r3, r0
 705:mpu6050.c     ****     I2CWriteBit(devAddr, MPU6050_RA_FIFO_EN, MPU6050_SLV1_FIFO_EN_BIT, enabled);
 1814              		.loc 1 705 0
 1815 0004 034A     		ldr	r2, .L143
 1816 0006 1078     		ldrb	r0, [r2]
 1817              	.LVL91:
 1818 0008 0122     		movs	r2, #1
 1819 000a 2321     		movs	r1, #35
 1820 000c FFF7FEFF 		bl	I2CWriteBit
 1821              	.LVL92:
 706:mpu6050.c     **** }
 1822              		.loc 1 706 0
 1823              		@ sp needed
 1824 0010 10BD     		pop	{r4, pc}
 1825              	.L144:
 1826 0012 C046     		.align	2
 1827              	.L143:
 1828 0014 00000000 		.word	devAddr
 1829              		.cfi_endproc
 1830              	.LFE49:
 1831              		.size	MPU6050_setSlave1FIFOEnabled, .-MPU6050_setSlave1FIFOEnabled
 1832              		.section	.text.MPU6050_getSlave0FIFOEnabled,"ax",%progbits
 1833              		.align	2
 1834              		.global	MPU6050_getSlave0FIFOEnabled
 1835              		.code	16
 1836              		.thumb_func
 1837              		.type	MPU6050_getSlave0FIFOEnabled, %function
 1838              	MPU6050_getSlave0FIFOEnabled:
 1839              	.LFB50:
 707:mpu6050.c     **** /** Get Slave 0 FIFO enabled value.
 708:mpu6050.c     ****  * When set to 1, this bit enables EXT_SENS_DATA registers (Registers 73 to 96)
 709:mpu6050.c     ****  * associated with Slave 0 to be written into the FIFO buffer.
 710:mpu6050.c     ****  * @return Current Slave 0 FIFO enabled value
 711:mpu6050.c     ****  * @see MPU6050_RA_FIFO_EN
 712:mpu6050.c     ****  */
 713:mpu6050.c     **** bool MPU6050_getSlave0FIFOEnabled() {
 1840              		.loc 1 713 0
 1841              		.cfi_startproc
 1842              		@ args = 0, pretend = 0, frame = 0
 1843              		@ frame_needed = 0, uses_anonymous_args = 0
 1844 0000 10B5     		push	{r4, lr}
 1845              		.cfi_def_cfa_offset 8
 1846              		.cfi_offset 4, -8
 1847              		.cfi_offset 14, -4
 714:mpu6050.c     ****     I2CReadBit(devAddr, MPU6050_RA_FIFO_EN, MPU6050_SLV0_FIFO_EN_BIT, buffer);
 1848              		.loc 1 714 0
 1849 0002 064C     		ldr	r4, .L146
 1850 0004 064B     		ldr	r3, .L146+4
 1851 0006 1878     		ldrb	r0, [r3]
ARM GAS  C:\Users\Asus\AppData\Local\Temp\cc7ymLuX.s 			page 46


 1852 0008 2300     		movs	r3, r4
 1853 000a 0022     		movs	r2, #0
 1854 000c 2321     		movs	r1, #35
 1855 000e FFF7FEFF 		bl	I2CReadBit
 1856              	.LVL93:
 715:mpu6050.c     ****     return buffer[0];
 1857              		.loc 1 715 0
 1858 0012 2078     		ldrb	r0, [r4]
 1859 0014 431E     		subs	r3, r0, #1
 1860 0016 9841     		sbcs	r0, r0, r3
 1861 0018 C0B2     		uxtb	r0, r0
 716:mpu6050.c     **** }
 1862              		.loc 1 716 0
 1863              		@ sp needed
 1864 001a 10BD     		pop	{r4, pc}
 1865              	.L147:
 1866              		.align	2
 1867              	.L146:
 1868 001c 00000000 		.word	buffer
 1869 0020 00000000 		.word	devAddr
 1870              		.cfi_endproc
 1871              	.LFE50:
 1872              		.size	MPU6050_getSlave0FIFOEnabled, .-MPU6050_getSlave0FIFOEnabled
 1873              		.section	.text.MPU6050_setSlave0FIFOEnabled,"ax",%progbits
 1874              		.align	2
 1875              		.global	MPU6050_setSlave0FIFOEnabled
 1876              		.code	16
 1877              		.thumb_func
 1878              		.type	MPU6050_setSlave0FIFOEnabled, %function
 1879              	MPU6050_setSlave0FIFOEnabled:
 1880              	.LFB51:
 717:mpu6050.c     **** /** Set Slave 0 FIFO enabled value.
 718:mpu6050.c     ****  * @param enabled New Slave 0 FIFO enabled value
 719:mpu6050.c     ****  * @see getSlave0FIFOEnabled()
 720:mpu6050.c     ****  * @see MPU6050_RA_FIFO_EN
 721:mpu6050.c     ****  */
 722:mpu6050.c     **** void MPU6050_setSlave0FIFOEnabled(bool enabled) {
 1881              		.loc 1 722 0
 1882              		.cfi_startproc
 1883              		@ args = 0, pretend = 0, frame = 0
 1884              		@ frame_needed = 0, uses_anonymous_args = 0
 1885              	.LVL94:
 1886 0000 10B5     		push	{r4, lr}
 1887              		.cfi_def_cfa_offset 8
 1888              		.cfi_offset 4, -8
 1889              		.cfi_offset 14, -4
 1890 0002 0300     		movs	r3, r0
 723:mpu6050.c     ****     I2CWriteBit(devAddr, MPU6050_RA_FIFO_EN, MPU6050_SLV0_FIFO_EN_BIT, enabled);
 1891              		.loc 1 723 0
 1892 0004 034A     		ldr	r2, .L149
 1893 0006 1078     		ldrb	r0, [r2]
 1894              	.LVL95:
 1895 0008 0022     		movs	r2, #0
 1896 000a 2321     		movs	r1, #35
 1897 000c FFF7FEFF 		bl	I2CWriteBit
 1898              	.LVL96:
 724:mpu6050.c     **** }
ARM GAS  C:\Users\Asus\AppData\Local\Temp\cc7ymLuX.s 			page 47


 1899              		.loc 1 724 0
 1900              		@ sp needed
 1901 0010 10BD     		pop	{r4, pc}
 1902              	.L150:
 1903 0012 C046     		.align	2
 1904              	.L149:
 1905 0014 00000000 		.word	devAddr
 1906              		.cfi_endproc
 1907              	.LFE51:
 1908              		.size	MPU6050_setSlave0FIFOEnabled, .-MPU6050_setSlave0FIFOEnabled
 1909              		.section	.text.MPU6050_getMultiMasterEnabled,"ax",%progbits
 1910              		.align	2
 1911              		.global	MPU6050_getMultiMasterEnabled
 1912              		.code	16
 1913              		.thumb_func
 1914              		.type	MPU6050_getMultiMasterEnabled, %function
 1915              	MPU6050_getMultiMasterEnabled:
 1916              	.LFB52:
 725:mpu6050.c     **** 
 726:mpu6050.c     **** // I2C_MST_CTRL register
 727:mpu6050.c     **** 
 728:mpu6050.c     **** /** Get multi-master enabled value.
 729:mpu6050.c     ****  * Multi-master capability allows multiple I2C masters to operate on the same
 730:mpu6050.c     ****  * bus. In circuits where multi-master capability is required, set MULT_MST_EN
 731:mpu6050.c     ****  * to 1. This will increase current drawn by approximately 30uA.
 732:mpu6050.c     ****  *
 733:mpu6050.c     ****  * In circuits where multi-master capability is required, the state of the I2C
 734:mpu6050.c     ****  * bus must always be monitored by each separate I2C Master. Before an I2C
 735:mpu6050.c     ****  * Master can assume arbitration of the bus, it must first confirm that no other
 736:mpu6050.c     ****  * I2C Master has arbitration of the bus. When MULT_MST_EN is set to 1, the
 737:mpu6050.c     ****  * MPU-60X0's bus arbitration detection logic is turned on, enabling it to
 738:mpu6050.c     ****  * detect when the bus is available.
 739:mpu6050.c     ****  *
 740:mpu6050.c     ****  * @return Current multi-master enabled value
 741:mpu6050.c     ****  * @see MPU6050_RA_I2C_MST_CTRL
 742:mpu6050.c     ****  */
 743:mpu6050.c     **** bool MPU6050_getMultiMasterEnabled() {
 1917              		.loc 1 743 0
 1918              		.cfi_startproc
 1919              		@ args = 0, pretend = 0, frame = 0
 1920              		@ frame_needed = 0, uses_anonymous_args = 0
 1921 0000 10B5     		push	{r4, lr}
 1922              		.cfi_def_cfa_offset 8
 1923              		.cfi_offset 4, -8
 1924              		.cfi_offset 14, -4
 744:mpu6050.c     ****     I2CReadBit(devAddr, MPU6050_RA_I2C_MST_CTRL, MPU6050_MULT_MST_EN_BIT, buffer);
 1925              		.loc 1 744 0
 1926 0002 064C     		ldr	r4, .L152
 1927 0004 064B     		ldr	r3, .L152+4
 1928 0006 1878     		ldrb	r0, [r3]
 1929 0008 2300     		movs	r3, r4
 1930 000a 0722     		movs	r2, #7
 1931 000c 2421     		movs	r1, #36
 1932 000e FFF7FEFF 		bl	I2CReadBit
 1933              	.LVL97:
 745:mpu6050.c     ****     return buffer[0];
 1934              		.loc 1 745 0
ARM GAS  C:\Users\Asus\AppData\Local\Temp\cc7ymLuX.s 			page 48


 1935 0012 2078     		ldrb	r0, [r4]
 1936 0014 431E     		subs	r3, r0, #1
 1937 0016 9841     		sbcs	r0, r0, r3
 1938 0018 C0B2     		uxtb	r0, r0
 746:mpu6050.c     **** }
 1939              		.loc 1 746 0
 1940              		@ sp needed
 1941 001a 10BD     		pop	{r4, pc}
 1942              	.L153:
 1943              		.align	2
 1944              	.L152:
 1945 001c 00000000 		.word	buffer
 1946 0020 00000000 		.word	devAddr
 1947              		.cfi_endproc
 1948              	.LFE52:
 1949              		.size	MPU6050_getMultiMasterEnabled, .-MPU6050_getMultiMasterEnabled
 1950              		.section	.text.MPU6050_setMultiMasterEnabled,"ax",%progbits
 1951              		.align	2
 1952              		.global	MPU6050_setMultiMasterEnabled
 1953              		.code	16
 1954              		.thumb_func
 1955              		.type	MPU6050_setMultiMasterEnabled, %function
 1956              	MPU6050_setMultiMasterEnabled:
 1957              	.LFB53:
 747:mpu6050.c     **** /** Set multi-master enabled value.
 748:mpu6050.c     ****  * @param enabled New multi-master enabled value
 749:mpu6050.c     ****  * @see getMultiMasterEnabled()
 750:mpu6050.c     ****  * @see MPU6050_RA_I2C_MST_CTRL
 751:mpu6050.c     ****  */
 752:mpu6050.c     **** void MPU6050_setMultiMasterEnabled(bool enabled) {
 1958              		.loc 1 752 0
 1959              		.cfi_startproc
 1960              		@ args = 0, pretend = 0, frame = 0
 1961              		@ frame_needed = 0, uses_anonymous_args = 0
 1962              	.LVL98:
 1963 0000 10B5     		push	{r4, lr}
 1964              		.cfi_def_cfa_offset 8
 1965              		.cfi_offset 4, -8
 1966              		.cfi_offset 14, -4
 1967 0002 0300     		movs	r3, r0
 753:mpu6050.c     ****     I2CWriteBit(devAddr, MPU6050_RA_I2C_MST_CTRL, MPU6050_MULT_MST_EN_BIT, enabled);
 1968              		.loc 1 753 0
 1969 0004 034A     		ldr	r2, .L155
 1970 0006 1078     		ldrb	r0, [r2]
 1971              	.LVL99:
 1972 0008 0722     		movs	r2, #7
 1973 000a 2421     		movs	r1, #36
 1974 000c FFF7FEFF 		bl	I2CWriteBit
 1975              	.LVL100:
 754:mpu6050.c     **** }
 1976              		.loc 1 754 0
 1977              		@ sp needed
 1978 0010 10BD     		pop	{r4, pc}
 1979              	.L156:
 1980 0012 C046     		.align	2
 1981              	.L155:
 1982 0014 00000000 		.word	devAddr
ARM GAS  C:\Users\Asus\AppData\Local\Temp\cc7ymLuX.s 			page 49


 1983              		.cfi_endproc
 1984              	.LFE53:
 1985              		.size	MPU6050_setMultiMasterEnabled, .-MPU6050_setMultiMasterEnabled
 1986              		.section	.text.MPU6050_getWaitForExternalSensorEnabled,"ax",%progbits
 1987              		.align	2
 1988              		.global	MPU6050_getWaitForExternalSensorEnabled
 1989              		.code	16
 1990              		.thumb_func
 1991              		.type	MPU6050_getWaitForExternalSensorEnabled, %function
 1992              	MPU6050_getWaitForExternalSensorEnabled:
 1993              	.LFB54:
 755:mpu6050.c     **** /** Get wait-for-external-sensor-data enabled value.
 756:mpu6050.c     ****  * When the WAIT_FOR_ES bit is set to 1, the Data Ready interrupt will be
 757:mpu6050.c     ****  * delayed until External Sensor data from the Slave Devices are loaded into the
 758:mpu6050.c     ****  * EXT_SENS_DATA registers. This is used to ensure that both the internal sensor
 759:mpu6050.c     ****  * data (i.e. from gyro and accel) and external sensor data have been loaded to
 760:mpu6050.c     ****  * their respective data registers (i.e. the data is synced) when the Data Ready
 761:mpu6050.c     ****  * interrupt is triggered.
 762:mpu6050.c     ****  *
 763:mpu6050.c     ****  * @return Current wait-for-external-sensor-data enabled value
 764:mpu6050.c     ****  * @see MPU6050_RA_I2C_MST_CTRL
 765:mpu6050.c     ****  */
 766:mpu6050.c     **** bool MPU6050_getWaitForExternalSensorEnabled() {
 1994              		.loc 1 766 0
 1995              		.cfi_startproc
 1996              		@ args = 0, pretend = 0, frame = 0
 1997              		@ frame_needed = 0, uses_anonymous_args = 0
 1998 0000 10B5     		push	{r4, lr}
 1999              		.cfi_def_cfa_offset 8
 2000              		.cfi_offset 4, -8
 2001              		.cfi_offset 14, -4
 767:mpu6050.c     ****     I2CReadBit(devAddr, MPU6050_RA_I2C_MST_CTRL, MPU6050_WAIT_FOR_ES_BIT, buffer);
 2002              		.loc 1 767 0
 2003 0002 064C     		ldr	r4, .L158
 2004 0004 064B     		ldr	r3, .L158+4
 2005 0006 1878     		ldrb	r0, [r3]
 2006 0008 2300     		movs	r3, r4
 2007 000a 0622     		movs	r2, #6
 2008 000c 2421     		movs	r1, #36
 2009 000e FFF7FEFF 		bl	I2CReadBit
 2010              	.LVL101:
 768:mpu6050.c     ****     return buffer[0];
 2011              		.loc 1 768 0
 2012 0012 2078     		ldrb	r0, [r4]
 2013 0014 431E     		subs	r3, r0, #1
 2014 0016 9841     		sbcs	r0, r0, r3
 2015 0018 C0B2     		uxtb	r0, r0
 769:mpu6050.c     **** }
 2016              		.loc 1 769 0
 2017              		@ sp needed
 2018 001a 10BD     		pop	{r4, pc}
 2019              	.L159:
 2020              		.align	2
 2021              	.L158:
 2022 001c 00000000 		.word	buffer
 2023 0020 00000000 		.word	devAddr
 2024              		.cfi_endproc
ARM GAS  C:\Users\Asus\AppData\Local\Temp\cc7ymLuX.s 			page 50


 2025              	.LFE54:
 2026              		.size	MPU6050_getWaitForExternalSensorEnabled, .-MPU6050_getWaitForExternalSensorEnabled
 2027              		.section	.text.MPU6050_setWaitForExternalSensorEnabled,"ax",%progbits
 2028              		.align	2
 2029              		.global	MPU6050_setWaitForExternalSensorEnabled
 2030              		.code	16
 2031              		.thumb_func
 2032              		.type	MPU6050_setWaitForExternalSensorEnabled, %function
 2033              	MPU6050_setWaitForExternalSensorEnabled:
 2034              	.LFB55:
 770:mpu6050.c     **** /** Set wait-for-external-sensor-data enabled value.
 771:mpu6050.c     ****  * @param enabled New wait-for-external-sensor-data enabled value
 772:mpu6050.c     ****  * @see getWaitForExternalSensorEnabled()
 773:mpu6050.c     ****  * @see MPU6050_RA_I2C_MST_CTRL
 774:mpu6050.c     ****  */
 775:mpu6050.c     **** void MPU6050_setWaitForExternalSensorEnabled(bool enabled) {
 2035              		.loc 1 775 0
 2036              		.cfi_startproc
 2037              		@ args = 0, pretend = 0, frame = 0
 2038              		@ frame_needed = 0, uses_anonymous_args = 0
 2039              	.LVL102:
 2040 0000 10B5     		push	{r4, lr}
 2041              		.cfi_def_cfa_offset 8
 2042              		.cfi_offset 4, -8
 2043              		.cfi_offset 14, -4
 2044 0002 0300     		movs	r3, r0
 776:mpu6050.c     ****     I2CWriteBit(devAddr, MPU6050_RA_I2C_MST_CTRL, MPU6050_WAIT_FOR_ES_BIT, enabled);
 2045              		.loc 1 776 0
 2046 0004 034A     		ldr	r2, .L161
 2047 0006 1078     		ldrb	r0, [r2]
 2048              	.LVL103:
 2049 0008 0622     		movs	r2, #6
 2050 000a 2421     		movs	r1, #36
 2051 000c FFF7FEFF 		bl	I2CWriteBit
 2052              	.LVL104:
 777:mpu6050.c     **** }
 2053              		.loc 1 777 0
 2054              		@ sp needed
 2055 0010 10BD     		pop	{r4, pc}
 2056              	.L162:
 2057 0012 C046     		.align	2
 2058              	.L161:
 2059 0014 00000000 		.word	devAddr
 2060              		.cfi_endproc
 2061              	.LFE55:
 2062              		.size	MPU6050_setWaitForExternalSensorEnabled, .-MPU6050_setWaitForExternalSensorEnabled
 2063              		.section	.text.MPU6050_getSlave3FIFOEnabled,"ax",%progbits
 2064              		.align	2
 2065              		.global	MPU6050_getSlave3FIFOEnabled
 2066              		.code	16
 2067              		.thumb_func
 2068              		.type	MPU6050_getSlave3FIFOEnabled, %function
 2069              	MPU6050_getSlave3FIFOEnabled:
 2070              	.LFB56:
 778:mpu6050.c     **** /** Get Slave 3 FIFO enabled value.
 779:mpu6050.c     ****  * When set to 1, this bit enables EXT_SENS_DATA registers (Registers 73 to 96)
 780:mpu6050.c     ****  * associated with Slave 3 to be written into the FIFO buffer.
ARM GAS  C:\Users\Asus\AppData\Local\Temp\cc7ymLuX.s 			page 51


 781:mpu6050.c     ****  * @return Current Slave 3 FIFO enabled value
 782:mpu6050.c     ****  * @see MPU6050_RA_MST_CTRL
 783:mpu6050.c     ****  */
 784:mpu6050.c     **** bool MPU6050_getSlave3FIFOEnabled() {
 2071              		.loc 1 784 0
 2072              		.cfi_startproc
 2073              		@ args = 0, pretend = 0, frame = 0
 2074              		@ frame_needed = 0, uses_anonymous_args = 0
 2075 0000 10B5     		push	{r4, lr}
 2076              		.cfi_def_cfa_offset 8
 2077              		.cfi_offset 4, -8
 2078              		.cfi_offset 14, -4
 785:mpu6050.c     ****     I2CReadBit(devAddr, MPU6050_RA_I2C_MST_CTRL, MPU6050_SLV_3_FIFO_EN_BIT, buffer);
 2079              		.loc 1 785 0
 2080 0002 064C     		ldr	r4, .L164
 2081 0004 064B     		ldr	r3, .L164+4
 2082 0006 1878     		ldrb	r0, [r3]
 2083 0008 2300     		movs	r3, r4
 2084 000a 0522     		movs	r2, #5
 2085 000c 2421     		movs	r1, #36
 2086 000e FFF7FEFF 		bl	I2CReadBit
 2087              	.LVL105:
 786:mpu6050.c     ****     return buffer[0];
 2088              		.loc 1 786 0
 2089 0012 2078     		ldrb	r0, [r4]
 2090 0014 431E     		subs	r3, r0, #1
 2091 0016 9841     		sbcs	r0, r0, r3
 2092 0018 C0B2     		uxtb	r0, r0
 787:mpu6050.c     **** }
 2093              		.loc 1 787 0
 2094              		@ sp needed
 2095 001a 10BD     		pop	{r4, pc}
 2096              	.L165:
 2097              		.align	2
 2098              	.L164:
 2099 001c 00000000 		.word	buffer
 2100 0020 00000000 		.word	devAddr
 2101              		.cfi_endproc
 2102              	.LFE56:
 2103              		.size	MPU6050_getSlave3FIFOEnabled, .-MPU6050_getSlave3FIFOEnabled
 2104              		.section	.text.MPU6050_setSlave3FIFOEnabled,"ax",%progbits
 2105              		.align	2
 2106              		.global	MPU6050_setSlave3FIFOEnabled
 2107              		.code	16
 2108              		.thumb_func
 2109              		.type	MPU6050_setSlave3FIFOEnabled, %function
 2110              	MPU6050_setSlave3FIFOEnabled:
 2111              	.LFB57:
 788:mpu6050.c     **** /** Set Slave 3 FIFO enabled value.
 789:mpu6050.c     ****  * @param enabled New Slave 3 FIFO enabled value
 790:mpu6050.c     ****  * @see getSlave3FIFOEnabled()
 791:mpu6050.c     ****  * @see MPU6050_RA_MST_CTRL
 792:mpu6050.c     ****  */
 793:mpu6050.c     **** void MPU6050_setSlave3FIFOEnabled(bool enabled) {
 2112              		.loc 1 793 0
 2113              		.cfi_startproc
 2114              		@ args = 0, pretend = 0, frame = 0
ARM GAS  C:\Users\Asus\AppData\Local\Temp\cc7ymLuX.s 			page 52


 2115              		@ frame_needed = 0, uses_anonymous_args = 0
 2116              	.LVL106:
 2117 0000 10B5     		push	{r4, lr}
 2118              		.cfi_def_cfa_offset 8
 2119              		.cfi_offset 4, -8
 2120              		.cfi_offset 14, -4
 2121 0002 0300     		movs	r3, r0
 794:mpu6050.c     ****     I2CWriteBit(devAddr, MPU6050_RA_I2C_MST_CTRL, MPU6050_SLV_3_FIFO_EN_BIT, enabled);
 2122              		.loc 1 794 0
 2123 0004 034A     		ldr	r2, .L167
 2124 0006 1078     		ldrb	r0, [r2]
 2125              	.LVL107:
 2126 0008 0522     		movs	r2, #5
 2127 000a 2421     		movs	r1, #36
 2128 000c FFF7FEFF 		bl	I2CWriteBit
 2129              	.LVL108:
 795:mpu6050.c     **** }
 2130              		.loc 1 795 0
 2131              		@ sp needed
 2132 0010 10BD     		pop	{r4, pc}
 2133              	.L168:
 2134 0012 C046     		.align	2
 2135              	.L167:
 2136 0014 00000000 		.word	devAddr
 2137              		.cfi_endproc
 2138              	.LFE57:
 2139              		.size	MPU6050_setSlave3FIFOEnabled, .-MPU6050_setSlave3FIFOEnabled
 2140              		.section	.text.MPU6050_getSlaveReadWriteTransitionEnabled,"ax",%progbits
 2141              		.align	2
 2142              		.global	MPU6050_getSlaveReadWriteTransitionEnabled
 2143              		.code	16
 2144              		.thumb_func
 2145              		.type	MPU6050_getSlaveReadWriteTransitionEnabled, %function
 2146              	MPU6050_getSlaveReadWriteTransitionEnabled:
 2147              	.LFB58:
 796:mpu6050.c     **** /** Get slave read/write transition enabled value.
 797:mpu6050.c     ****  * The I2C_MST_P_NSR bit configures the I2C Master's transition from one slave
 798:mpu6050.c     ****  * read to the next slave read. If the bit equals 0, there will be a restart
 799:mpu6050.c     ****  * between reads. If the bit equals 1, there will be a stop followed by a start
 800:mpu6050.c     ****  * of the following read. When a write transaction follows a read transaction,
 801:mpu6050.c     ****  * the stop followed by a start of the successive write will be always used.
 802:mpu6050.c     ****  *
 803:mpu6050.c     ****  * @return Current slave read/write transition enabled value
 804:mpu6050.c     ****  * @see MPU6050_RA_I2C_MST_CTRL
 805:mpu6050.c     ****  */
 806:mpu6050.c     **** bool MPU6050_getSlaveReadWriteTransitionEnabled() {
 2148              		.loc 1 806 0
 2149              		.cfi_startproc
 2150              		@ args = 0, pretend = 0, frame = 0
 2151              		@ frame_needed = 0, uses_anonymous_args = 0
 2152 0000 10B5     		push	{r4, lr}
 2153              		.cfi_def_cfa_offset 8
 2154              		.cfi_offset 4, -8
 2155              		.cfi_offset 14, -4
 807:mpu6050.c     ****     I2CReadBit(devAddr, MPU6050_RA_I2C_MST_CTRL, I2C_MPU6050_I2C_MST_P_NSR_BIT, buffer);
 2156              		.loc 1 807 0
 2157 0002 064C     		ldr	r4, .L170
ARM GAS  C:\Users\Asus\AppData\Local\Temp\cc7ymLuX.s 			page 53


 2158 0004 064B     		ldr	r3, .L170+4
 2159 0006 1878     		ldrb	r0, [r3]
 2160 0008 2300     		movs	r3, r4
 2161 000a 0422     		movs	r2, #4
 2162 000c 2421     		movs	r1, #36
 2163 000e FFF7FEFF 		bl	I2CReadBit
 2164              	.LVL109:
 808:mpu6050.c     ****     return buffer[0];
 2165              		.loc 1 808 0
 2166 0012 2078     		ldrb	r0, [r4]
 2167 0014 431E     		subs	r3, r0, #1
 2168 0016 9841     		sbcs	r0, r0, r3
 2169 0018 C0B2     		uxtb	r0, r0
 809:mpu6050.c     **** }
 2170              		.loc 1 809 0
 2171              		@ sp needed
 2172 001a 10BD     		pop	{r4, pc}
 2173              	.L171:
 2174              		.align	2
 2175              	.L170:
 2176 001c 00000000 		.word	buffer
 2177 0020 00000000 		.word	devAddr
 2178              		.cfi_endproc
 2179              	.LFE58:
 2180              		.size	MPU6050_getSlaveReadWriteTransitionEnabled, .-MPU6050_getSlaveReadWriteTransitionEnabled
 2181              		.section	.text.MPU6050_setSlaveReadWriteTransitionEnabled,"ax",%progbits
 2182              		.align	2
 2183              		.global	MPU6050_setSlaveReadWriteTransitionEnabled
 2184              		.code	16
 2185              		.thumb_func
 2186              		.type	MPU6050_setSlaveReadWriteTransitionEnabled, %function
 2187              	MPU6050_setSlaveReadWriteTransitionEnabled:
 2188              	.LFB59:
 810:mpu6050.c     **** /** Set slave read/write transition enabled value.
 811:mpu6050.c     ****  * @param enabled New slave read/write transition enabled value
 812:mpu6050.c     ****  * @see getSlaveReadWriteTransitionEnabled()
 813:mpu6050.c     ****  * @see MPU6050_RA_I2C_MST_CTRL
 814:mpu6050.c     ****  */
 815:mpu6050.c     **** void MPU6050_setSlaveReadWriteTransitionEnabled(bool enabled) {
 2189              		.loc 1 815 0
 2190              		.cfi_startproc
 2191              		@ args = 0, pretend = 0, frame = 0
 2192              		@ frame_needed = 0, uses_anonymous_args = 0
 2193              	.LVL110:
 2194 0000 10B5     		push	{r4, lr}
 2195              		.cfi_def_cfa_offset 8
 2196              		.cfi_offset 4, -8
 2197              		.cfi_offset 14, -4
 2198 0002 0300     		movs	r3, r0
 816:mpu6050.c     ****     I2CWriteBit(devAddr, MPU6050_RA_I2C_MST_CTRL, I2C_MPU6050_I2C_MST_P_NSR_BIT, enabled);
 2199              		.loc 1 816 0
 2200 0004 034A     		ldr	r2, .L173
 2201 0006 1078     		ldrb	r0, [r2]
 2202              	.LVL111:
 2203 0008 0422     		movs	r2, #4
 2204 000a 2421     		movs	r1, #36
 2205 000c FFF7FEFF 		bl	I2CWriteBit
ARM GAS  C:\Users\Asus\AppData\Local\Temp\cc7ymLuX.s 			page 54


 2206              	.LVL112:
 817:mpu6050.c     **** }
 2207              		.loc 1 817 0
 2208              		@ sp needed
 2209 0010 10BD     		pop	{r4, pc}
 2210              	.L174:
 2211 0012 C046     		.align	2
 2212              	.L173:
 2213 0014 00000000 		.word	devAddr
 2214              		.cfi_endproc
 2215              	.LFE59:
 2216              		.size	MPU6050_setSlaveReadWriteTransitionEnabled, .-MPU6050_setSlaveReadWriteTransitionEnabled
 2217              		.section	.text.MPU6050_getMasterClockSpeed,"ax",%progbits
 2218              		.align	2
 2219              		.global	MPU6050_getMasterClockSpeed
 2220              		.code	16
 2221              		.thumb_func
 2222              		.type	MPU6050_getMasterClockSpeed, %function
 2223              	MPU6050_getMasterClockSpeed:
 2224              	.LFB60:
 818:mpu6050.c     **** /** Get I2C master clock speed.
 819:mpu6050.c     ****  * I2C_MST_CLK is a 4 bit unsigned value which configures a divider on the
 820:mpu6050.c     ****  * MPU-60X0 internal 8MHz clock. It sets the I2C master clock speed according to
 821:mpu6050.c     ****  * the following table:
 822:mpu6050.c     ****  *
 823:mpu6050.c     ****  * <pre>
 824:mpu6050.c     ****  * I2C_MST_CLK | I2C Master Clock Speed | 8MHz Clock Divider
 825:mpu6050.c     ****  * ------------+------------------------+-------------------
 826:mpu6050.c     ****  * 0           | 348kHz                 | 23
 827:mpu6050.c     ****  * 1           | 333kHz                 | 24
 828:mpu6050.c     ****  * 2           | 320kHz                 | 25
 829:mpu6050.c     ****  * 3           | 308kHz                 | 26
 830:mpu6050.c     ****  * 4           | 296kHz                 | 27
 831:mpu6050.c     ****  * 5           | 286kHz                 | 28
 832:mpu6050.c     ****  * 6           | 276kHz                 | 29
 833:mpu6050.c     ****  * 7           | 267kHz                 | 30
 834:mpu6050.c     ****  * 8           | 258kHz                 | 31
 835:mpu6050.c     ****  * 9           | 500kHz                 | 16
 836:mpu6050.c     ****  * 10          | 471kHz                 | 17
 837:mpu6050.c     ****  * 11          | 444kHz                 | 18
 838:mpu6050.c     ****  * 12          | 421kHz                 | 19
 839:mpu6050.c     ****  * 13          | 400kHz                 | 20
 840:mpu6050.c     ****  * 14          | 381kHz                 | 21
 841:mpu6050.c     ****  * 15          | 364kHz                 | 22
 842:mpu6050.c     ****  * </pre>
 843:mpu6050.c     ****  *
 844:mpu6050.c     ****  * @return Current I2C master clock speed
 845:mpu6050.c     ****  * @see MPU6050_RA_I2C_MST_CTRL
 846:mpu6050.c     ****  */
 847:mpu6050.c     **** uint8_t MPU6050_getMasterClockSpeed() {
 2225              		.loc 1 847 0
 2226              		.cfi_startproc
 2227              		@ args = 0, pretend = 0, frame = 0
 2228              		@ frame_needed = 0, uses_anonymous_args = 0
 2229 0000 10B5     		push	{r4, lr}
 2230              		.cfi_def_cfa_offset 8
 2231              		.cfi_offset 4, -8
ARM GAS  C:\Users\Asus\AppData\Local\Temp\cc7ymLuX.s 			page 55


 2232              		.cfi_offset 14, -4
 2233 0002 82B0     		sub	sp, sp, #8
 2234              		.cfi_def_cfa_offset 16
 848:mpu6050.c     ****     I2CReadBits(devAddr, MPU6050_RA_I2C_MST_CTRL, I2C_MPU6050_I2C_MST_CLK_BIT, I2C_MPU6050_I2C_MST_
 2235              		.loc 1 848 0
 2236 0004 054B     		ldr	r3, .L176
 2237 0006 1878     		ldrb	r0, [r3]
 2238 0008 054C     		ldr	r4, .L176+4
 2239 000a 0094     		str	r4, [sp]
 2240 000c 0423     		movs	r3, #4
 2241 000e 0322     		movs	r2, #3
 2242 0010 2421     		movs	r1, #36
 2243 0012 FFF7FEFF 		bl	I2CReadBits
 2244              	.LVL113:
 849:mpu6050.c     ****     return buffer[0];
 2245              		.loc 1 849 0
 2246 0016 2078     		ldrb	r0, [r4]
 850:mpu6050.c     **** }
 2247              		.loc 1 850 0
 2248 0018 02B0     		add	sp, sp, #8
 2249              		@ sp needed
 2250 001a 10BD     		pop	{r4, pc}
 2251              	.L177:
 2252              		.align	2
 2253              	.L176:
 2254 001c 00000000 		.word	devAddr
 2255 0020 00000000 		.word	buffer
 2256              		.cfi_endproc
 2257              	.LFE60:
 2258              		.size	MPU6050_getMasterClockSpeed, .-MPU6050_getMasterClockSpeed
 2259              		.section	.text.MPU6050_setMasterClockSpeed,"ax",%progbits
 2260              		.align	2
 2261              		.global	MPU6050_setMasterClockSpeed
 2262              		.code	16
 2263              		.thumb_func
 2264              		.type	MPU6050_setMasterClockSpeed, %function
 2265              	MPU6050_setMasterClockSpeed:
 2266              	.LFB61:
 851:mpu6050.c     **** /** Set I2C master clock speed.
 852:mpu6050.c     ****  * @reparam speed Current I2C master clock speed
 853:mpu6050.c     ****  * @see MPU6050_RA_I2C_MST_CTRL
 854:mpu6050.c     ****  */
 855:mpu6050.c     **** void MPU6050_setMasterClockSpeed(uint8_t speed) {
 2267              		.loc 1 855 0
 2268              		.cfi_startproc
 2269              		@ args = 0, pretend = 0, frame = 0
 2270              		@ frame_needed = 0, uses_anonymous_args = 0
 2271              	.LVL114:
 2272 0000 00B5     		push	{lr}
 2273              		.cfi_def_cfa_offset 4
 2274              		.cfi_offset 14, -4
 2275 0002 83B0     		sub	sp, sp, #12
 2276              		.cfi_def_cfa_offset 16
 2277 0004 0300     		movs	r3, r0
 856:mpu6050.c     ****     I2CWriteBits(devAddr, MPU6050_RA_I2C_MST_CTRL, I2C_MPU6050_I2C_MST_CLK_BIT, I2C_MPU6050_I2C_MST
 2278              		.loc 1 856 0
 2279 0006 054A     		ldr	r2, .L179
ARM GAS  C:\Users\Asus\AppData\Local\Temp\cc7ymLuX.s 			page 56


 2280 0008 1078     		ldrb	r0, [r2]
 2281              	.LVL115:
 2282 000a 0093     		str	r3, [sp]
 2283 000c 0423     		movs	r3, #4
 2284 000e 0322     		movs	r2, #3
 2285 0010 2421     		movs	r1, #36
 2286 0012 FFF7FEFF 		bl	I2CWriteBits
 2287              	.LVL116:
 857:mpu6050.c     **** }
 2288              		.loc 1 857 0
 2289 0016 03B0     		add	sp, sp, #12
 2290              		@ sp needed
 2291 0018 00BD     		pop	{pc}
 2292              	.L180:
 2293 001a C046     		.align	2
 2294              	.L179:
 2295 001c 00000000 		.word	devAddr
 2296              		.cfi_endproc
 2297              	.LFE61:
 2298              		.size	MPU6050_setMasterClockSpeed, .-MPU6050_setMasterClockSpeed
 2299              		.section	.text.MPU6050_getSlaveAddress,"ax",%progbits
 2300              		.align	2
 2301              		.global	MPU6050_getSlaveAddress
 2302              		.code	16
 2303              		.thumb_func
 2304              		.type	MPU6050_getSlaveAddress, %function
 2305              	MPU6050_getSlaveAddress:
 2306              	.LFB62:
 858:mpu6050.c     **** 
 859:mpu6050.c     **** // I2C_SLV* registers (Slave 0-3)
 860:mpu6050.c     **** 
 861:mpu6050.c     **** /** Get the I2C address of the specified slave (0-3).
 862:mpu6050.c     ****  * Note that Bit 7 (MSB) controls read/write mode. If Bit 7 is set, it's a read
 863:mpu6050.c     ****  * operation, and if it is cleared, then it's a write operation. The remaining
 864:mpu6050.c     ****  * bits (6-0) are the 7-bit device address of the slave device.
 865:mpu6050.c     ****  *
 866:mpu6050.c     ****  * In read mode, the result of the read is placed in the lowest available 
 867:mpu6050.c     ****  * EXT_SENS_DATA register. For further information regarding the allocation of
 868:mpu6050.c     ****  * read results, please refer to the EXT_SENS_DATA register description
 869:mpu6050.c     ****  * (Registers 73 - 96).
 870:mpu6050.c     ****  *
 871:mpu6050.c     ****  * The MPU-6050 supports a total of five slaves, but Slave 4 has unique
 872:mpu6050.c     ****  * characteristics, and so it has its own functions (getSlave4* and setSlave4*).
 873:mpu6050.c     ****  *
 874:mpu6050.c     ****  * I2C data transactions are performed at the Sample Rate, as defined in
 875:mpu6050.c     ****  * Register 25. The user is responsible for ensuring that I2C data transactions
 876:mpu6050.c     ****  * to and from each enabled Slave can be completed within a single period of the
 877:mpu6050.c     ****  * Sample Rate.
 878:mpu6050.c     ****  *
 879:mpu6050.c     ****  * The I2C slave access rate can be reduced relative to the Sample Rate. This
 880:mpu6050.c     ****  * reduced access rate is determined by I2C_MST_DLY (Register 52). Whether a
 881:mpu6050.c     ****  * slave's access rate is reduced relative to the Sample Rate is determined by
 882:mpu6050.c     ****  * I2C_MST_DELAY_CTRL (Register 103).
 883:mpu6050.c     ****  *
 884:mpu6050.c     ****  * The processing order for the slaves is fixed. The sequence followed for
 885:mpu6050.c     ****  * processing the slaves is Slave 0, Slave 1, Slave 2, Slave 3 and Slave 4. If a
 886:mpu6050.c     ****  * particular Slave is disabled it will be skipped.
ARM GAS  C:\Users\Asus\AppData\Local\Temp\cc7ymLuX.s 			page 57


 887:mpu6050.c     ****  *
 888:mpu6050.c     ****  * Each slave can either be accessed at the sample rate or at a reduced sample
 889:mpu6050.c     ****  * rate. In a case where some slaves are accessed at the Sample Rate and some
 890:mpu6050.c     ****  * slaves are accessed at the reduced rate, the sequence of accessing the slaves
 891:mpu6050.c     ****  * (Slave 0 to Slave 4) is still followed. However, the reduced rate slaves will
 892:mpu6050.c     ****  * be skipped if their access rate dictates that they should not be accessed
 893:mpu6050.c     ****  * during that particular cycle. For further information regarding the reduced
 894:mpu6050.c     ****  * access rate, please refer to Register 52. Whether a slave is accessed at the
 895:mpu6050.c     ****  * Sample Rate or at the reduced rate is determined by the Delay Enable bits in
 896:mpu6050.c     ****  * Register 103.
 897:mpu6050.c     ****  *
 898:mpu6050.c     ****  * @param num Slave number (0-3)
 899:mpu6050.c     ****  * @return Current address for specified slave
 900:mpu6050.c     ****  * @see MPU6050_RA_I2C_SLV0_ADDR
 901:mpu6050.c     ****  */
 902:mpu6050.c     **** uint8_t MPU6050_getSlaveAddress(uint8_t num) {
 2307              		.loc 1 902 0
 2308              		.cfi_startproc
 2309              		@ args = 0, pretend = 0, frame = 0
 2310              		@ frame_needed = 0, uses_anonymous_args = 0
 2311              	.LVL117:
 2312 0000 10B5     		push	{r4, lr}
 2313              		.cfi_def_cfa_offset 8
 2314              		.cfi_offset 4, -8
 2315              		.cfi_offset 14, -4
 903:mpu6050.c     ****     if (num > 3) return 0;
 2316              		.loc 1 903 0
 2317 0002 0328     		cmp	r0, #3
 2318 0004 0BD8     		bhi	.L183
 904:mpu6050.c     ****     I2CReadByte(devAddr, MPU6050_RA_I2C_SLV0_ADDR + num*3, buffer);
 2319              		.loc 1 904 0
 2320 0006 074C     		ldr	r4, .L184
 2321 0008 4300     		lsls	r3, r0, #1
 2322 000a C118     		adds	r1, r0, r3
 2323 000c 2531     		adds	r1, r1, #37
 2324 000e C9B2     		uxtb	r1, r1
 2325 0010 054B     		ldr	r3, .L184+4
 2326 0012 1878     		ldrb	r0, [r3]
 2327              	.LVL118:
 2328 0014 2200     		movs	r2, r4
 2329 0016 FFF7FEFF 		bl	I2CReadByte
 2330              	.LVL119:
 905:mpu6050.c     ****     return buffer[0];
 2331              		.loc 1 905 0
 2332 001a 2078     		ldrb	r0, [r4]
 2333 001c 00E0     		b	.L182
 2334              	.LVL120:
 2335              	.L183:
 903:mpu6050.c     ****     if (num > 3) return 0;
 2336              		.loc 1 903 0
 2337 001e 0020     		movs	r0, #0
 2338              	.LVL121:
 2339              	.L182:
 906:mpu6050.c     **** }
 2340              		.loc 1 906 0
 2341              		@ sp needed
 2342 0020 10BD     		pop	{r4, pc}
ARM GAS  C:\Users\Asus\AppData\Local\Temp\cc7ymLuX.s 			page 58


 2343              	.L185:
 2344 0022 C046     		.align	2
 2345              	.L184:
 2346 0024 00000000 		.word	buffer
 2347 0028 00000000 		.word	devAddr
 2348              		.cfi_endproc
 2349              	.LFE62:
 2350              		.size	MPU6050_getSlaveAddress, .-MPU6050_getSlaveAddress
 2351              		.section	.text.MPU6050_setSlaveAddress,"ax",%progbits
 2352              		.align	2
 2353              		.global	MPU6050_setSlaveAddress
 2354              		.code	16
 2355              		.thumb_func
 2356              		.type	MPU6050_setSlaveAddress, %function
 2357              	MPU6050_setSlaveAddress:
 2358              	.LFB63:
 907:mpu6050.c     **** /** Set the I2C address of the specified slave (0-3).
 908:mpu6050.c     ****  * @param num Slave number (0-3)
 909:mpu6050.c     ****  * @param address New address for specified slave
 910:mpu6050.c     ****  * @see getSlaveAddress()
 911:mpu6050.c     ****  * @see MPU6050_RA_I2C_SLV0_ADDR
 912:mpu6050.c     ****  */
 913:mpu6050.c     **** void MPU6050_setSlaveAddress(uint8_t num, uint8_t address) {
 2359              		.loc 1 913 0
 2360              		.cfi_startproc
 2361              		@ args = 0, pretend = 0, frame = 0
 2362              		@ frame_needed = 0, uses_anonymous_args = 0
 2363              	.LVL122:
 2364 0000 10B5     		push	{r4, lr}
 2365              		.cfi_def_cfa_offset 8
 2366              		.cfi_offset 4, -8
 2367              		.cfi_offset 14, -4
 914:mpu6050.c     ****     if (num > 3) return;
 2368              		.loc 1 914 0
 2369 0002 0328     		cmp	r0, #3
 2370 0004 09D8     		bhi	.L186
 915:mpu6050.c     ****     I2CWriteByte(devAddr, MPU6050_RA_I2C_SLV0_ADDR + num*3, address);
 2371              		.loc 1 915 0
 2372 0006 4300     		lsls	r3, r0, #1
 2373 0008 C318     		adds	r3, r0, r3
 2374 000a 2533     		adds	r3, r3, #37
 2375 000c DBB2     		uxtb	r3, r3
 2376 000e 034A     		ldr	r2, .L188
 2377 0010 1078     		ldrb	r0, [r2]
 2378              	.LVL123:
 2379 0012 0A00     		movs	r2, r1
 2380 0014 1900     		movs	r1, r3
 2381              	.LVL124:
 2382 0016 FFF7FEFF 		bl	I2CWriteByte
 2383              	.LVL125:
 2384              	.L186:
 916:mpu6050.c     **** }
 2385              		.loc 1 916 0
 2386              		@ sp needed
 2387 001a 10BD     		pop	{r4, pc}
 2388              	.L189:
 2389              		.align	2
ARM GAS  C:\Users\Asus\AppData\Local\Temp\cc7ymLuX.s 			page 59


 2390              	.L188:
 2391 001c 00000000 		.word	devAddr
 2392              		.cfi_endproc
 2393              	.LFE63:
 2394              		.size	MPU6050_setSlaveAddress, .-MPU6050_setSlaveAddress
 2395              		.section	.text.MPU6050_getSlaveRegister,"ax",%progbits
 2396              		.align	2
 2397              		.global	MPU6050_getSlaveRegister
 2398              		.code	16
 2399              		.thumb_func
 2400              		.type	MPU6050_getSlaveRegister, %function
 2401              	MPU6050_getSlaveRegister:
 2402              	.LFB64:
 917:mpu6050.c     **** /** Get the active internal register for the specified slave (0-3).
 918:mpu6050.c     ****  * Read/write operations for this slave will be done to whatever internal
 919:mpu6050.c     ****  * register address is stored in this MPU register.
 920:mpu6050.c     ****  *
 921:mpu6050.c     ****  * The MPU-6050 supports a total of five slaves, but Slave 4 has unique
 922:mpu6050.c     ****  * characteristics, and so it has its own functions.
 923:mpu6050.c     ****  *
 924:mpu6050.c     ****  * @param num Slave number (0-3)
 925:mpu6050.c     ****  * @return Current active register for specified slave
 926:mpu6050.c     ****  * @see MPU6050_RA_I2C_SLV0_REG
 927:mpu6050.c     ****  */
 928:mpu6050.c     **** uint8_t MPU6050_getSlaveRegister(uint8_t num) {
 2403              		.loc 1 928 0
 2404              		.cfi_startproc
 2405              		@ args = 0, pretend = 0, frame = 0
 2406              		@ frame_needed = 0, uses_anonymous_args = 0
 2407              	.LVL126:
 2408 0000 10B5     		push	{r4, lr}
 2409              		.cfi_def_cfa_offset 8
 2410              		.cfi_offset 4, -8
 2411              		.cfi_offset 14, -4
 929:mpu6050.c     ****     if (num > 3) return 0;
 2412              		.loc 1 929 0
 2413 0002 0328     		cmp	r0, #3
 2414 0004 0BD8     		bhi	.L192
 930:mpu6050.c     ****     I2CReadByte(devAddr, MPU6050_RA_I2C_SLV0_REG + num*3, buffer);
 2415              		.loc 1 930 0
 2416 0006 074C     		ldr	r4, .L193
 2417 0008 4300     		lsls	r3, r0, #1
 2418 000a C118     		adds	r1, r0, r3
 2419 000c 2631     		adds	r1, r1, #38
 2420 000e C9B2     		uxtb	r1, r1
 2421 0010 054B     		ldr	r3, .L193+4
 2422 0012 1878     		ldrb	r0, [r3]
 2423              	.LVL127:
 2424 0014 2200     		movs	r2, r4
 2425 0016 FFF7FEFF 		bl	I2CReadByte
 2426              	.LVL128:
 931:mpu6050.c     ****     return buffer[0];
 2427              		.loc 1 931 0
 2428 001a 2078     		ldrb	r0, [r4]
 2429 001c 00E0     		b	.L191
 2430              	.LVL129:
 2431              	.L192:
ARM GAS  C:\Users\Asus\AppData\Local\Temp\cc7ymLuX.s 			page 60


 929:mpu6050.c     ****     if (num > 3) return 0;
 2432              		.loc 1 929 0
 2433 001e 0020     		movs	r0, #0
 2434              	.LVL130:
 2435              	.L191:
 932:mpu6050.c     **** }
 2436              		.loc 1 932 0
 2437              		@ sp needed
 2438 0020 10BD     		pop	{r4, pc}
 2439              	.L194:
 2440 0022 C046     		.align	2
 2441              	.L193:
 2442 0024 00000000 		.word	buffer
 2443 0028 00000000 		.word	devAddr
 2444              		.cfi_endproc
 2445              	.LFE64:
 2446              		.size	MPU6050_getSlaveRegister, .-MPU6050_getSlaveRegister
 2447              		.section	.text.MPU6050_setSlaveRegister,"ax",%progbits
 2448              		.align	2
 2449              		.global	MPU6050_setSlaveRegister
 2450              		.code	16
 2451              		.thumb_func
 2452              		.type	MPU6050_setSlaveRegister, %function
 2453              	MPU6050_setSlaveRegister:
 2454              	.LFB65:
 933:mpu6050.c     **** /** Set the active internal register for the specified slave (0-3).
 934:mpu6050.c     ****  * @param num Slave number (0-3)
 935:mpu6050.c     ****  * @param reg New active register for specified slave
 936:mpu6050.c     ****  * @see getSlaveRegister()
 937:mpu6050.c     ****  * @see MPU6050_RA_I2C_SLV0_REG
 938:mpu6050.c     ****  */
 939:mpu6050.c     **** void MPU6050_setSlaveRegister(uint8_t num, uint8_t reg) {
 2455              		.loc 1 939 0
 2456              		.cfi_startproc
 2457              		@ args = 0, pretend = 0, frame = 0
 2458              		@ frame_needed = 0, uses_anonymous_args = 0
 2459              	.LVL131:
 2460 0000 10B5     		push	{r4, lr}
 2461              		.cfi_def_cfa_offset 8
 2462              		.cfi_offset 4, -8
 2463              		.cfi_offset 14, -4
 940:mpu6050.c     ****     if (num > 3) return;
 2464              		.loc 1 940 0
 2465 0002 0328     		cmp	r0, #3
 2466 0004 09D8     		bhi	.L195
 941:mpu6050.c     ****     I2CWriteByte(devAddr, MPU6050_RA_I2C_SLV0_REG + num*3, reg);
 2467              		.loc 1 941 0
 2468 0006 4300     		lsls	r3, r0, #1
 2469 0008 C318     		adds	r3, r0, r3
 2470 000a 2633     		adds	r3, r3, #38
 2471 000c DBB2     		uxtb	r3, r3
 2472 000e 034A     		ldr	r2, .L197
 2473 0010 1078     		ldrb	r0, [r2]
 2474              	.LVL132:
 2475 0012 0A00     		movs	r2, r1
 2476 0014 1900     		movs	r1, r3
 2477              	.LVL133:
ARM GAS  C:\Users\Asus\AppData\Local\Temp\cc7ymLuX.s 			page 61


 2478 0016 FFF7FEFF 		bl	I2CWriteByte
 2479              	.LVL134:
 2480              	.L195:
 942:mpu6050.c     **** }
 2481              		.loc 1 942 0
 2482              		@ sp needed
 2483 001a 10BD     		pop	{r4, pc}
 2484              	.L198:
 2485              		.align	2
 2486              	.L197:
 2487 001c 00000000 		.word	devAddr
 2488              		.cfi_endproc
 2489              	.LFE65:
 2490              		.size	MPU6050_setSlaveRegister, .-MPU6050_setSlaveRegister
 2491              		.section	.text.MPU6050_getSlaveEnabled,"ax",%progbits
 2492              		.align	2
 2493              		.global	MPU6050_getSlaveEnabled
 2494              		.code	16
 2495              		.thumb_func
 2496              		.type	MPU6050_getSlaveEnabled, %function
 2497              	MPU6050_getSlaveEnabled:
 2498              	.LFB66:
 943:mpu6050.c     **** /** Get the enabled value for the specified slave (0-3).
 944:mpu6050.c     ****  * When set to 1, this bit enables Slave 0 for data transfer operations. When
 945:mpu6050.c     ****  * cleared to 0, this bit disables Slave 0 from data transfer operations.
 946:mpu6050.c     ****  * @param num Slave number (0-3)
 947:mpu6050.c     ****  * @return Current enabled value for specified slave
 948:mpu6050.c     ****  * @see MPU6050_RA_I2C_SLV0_CTRL
 949:mpu6050.c     ****  */
 950:mpu6050.c     **** bool MPU6050_getSlaveEnabled(uint8_t num) {
 2499              		.loc 1 950 0
 2500              		.cfi_startproc
 2501              		@ args = 0, pretend = 0, frame = 0
 2502              		@ frame_needed = 0, uses_anonymous_args = 0
 2503              	.LVL135:
 2504 0000 10B5     		push	{r4, lr}
 2505              		.cfi_def_cfa_offset 8
 2506              		.cfi_offset 4, -8
 2507              		.cfi_offset 14, -4
 951:mpu6050.c     ****     if (num > 3) return 0;
 2508              		.loc 1 951 0
 2509 0002 0328     		cmp	r0, #3
 2510 0004 0FD8     		bhi	.L201
 952:mpu6050.c     ****     I2CReadBit(devAddr, MPU6050_RA_I2C_SLV0_CTRL + num*3, I2C_MPU6050_I2C_SLV_EN_BIT, buffer);
 2511              		.loc 1 952 0
 2512 0006 094C     		ldr	r4, .L202
 2513 0008 4300     		lsls	r3, r0, #1
 2514 000a C118     		adds	r1, r0, r3
 2515 000c 2731     		adds	r1, r1, #39
 2516 000e C9B2     		uxtb	r1, r1
 2517 0010 074B     		ldr	r3, .L202+4
 2518 0012 1878     		ldrb	r0, [r3]
 2519              	.LVL136:
 2520 0014 2300     		movs	r3, r4
 2521 0016 0722     		movs	r2, #7
 2522 0018 FFF7FEFF 		bl	I2CReadBit
 2523              	.LVL137:
ARM GAS  C:\Users\Asus\AppData\Local\Temp\cc7ymLuX.s 			page 62


 953:mpu6050.c     ****     return buffer[0];
 2524              		.loc 1 953 0
 2525 001c 2078     		ldrb	r0, [r4]
 2526 001e 431E     		subs	r3, r0, #1
 2527 0020 9841     		sbcs	r0, r0, r3
 2528 0022 C0B2     		uxtb	r0, r0
 2529 0024 00E0     		b	.L200
 2530              	.LVL138:
 2531              	.L201:
 951:mpu6050.c     ****     if (num > 3) return 0;
 2532              		.loc 1 951 0
 2533 0026 0020     		movs	r0, #0
 2534              	.LVL139:
 2535              	.L200:
 954:mpu6050.c     **** }
 2536              		.loc 1 954 0
 2537              		@ sp needed
 2538 0028 10BD     		pop	{r4, pc}
 2539              	.L203:
 2540 002a C046     		.align	2
 2541              	.L202:
 2542 002c 00000000 		.word	buffer
 2543 0030 00000000 		.word	devAddr
 2544              		.cfi_endproc
 2545              	.LFE66:
 2546              		.size	MPU6050_getSlaveEnabled, .-MPU6050_getSlaveEnabled
 2547              		.section	.text.MPU6050_setSlaveEnabled,"ax",%progbits
 2548              		.align	2
 2549              		.global	MPU6050_setSlaveEnabled
 2550              		.code	16
 2551              		.thumb_func
 2552              		.type	MPU6050_setSlaveEnabled, %function
 2553              	MPU6050_setSlaveEnabled:
 2554              	.LFB67:
 955:mpu6050.c     **** /** Set the enabled value for the specified slave (0-3).
 956:mpu6050.c     ****  * @param num Slave number (0-3)
 957:mpu6050.c     ****  * @param enabled New enabled value for specified slave
 958:mpu6050.c     ****  * @see getSlaveEnabled()
 959:mpu6050.c     ****  * @see MPU6050_RA_I2C_SLV0_CTRL
 960:mpu6050.c     ****  */
 961:mpu6050.c     **** void MPU6050_setSlaveEnabled(uint8_t num, bool enabled) {
 2555              		.loc 1 961 0
 2556              		.cfi_startproc
 2557              		@ args = 0, pretend = 0, frame = 0
 2558              		@ frame_needed = 0, uses_anonymous_args = 0
 2559              	.LVL140:
 2560 0000 10B5     		push	{r4, lr}
 2561              		.cfi_def_cfa_offset 8
 2562              		.cfi_offset 4, -8
 2563              		.cfi_offset 14, -4
 962:mpu6050.c     ****     if (num > 3) return;
 2564              		.loc 1 962 0
 2565 0002 0328     		cmp	r0, #3
 2566 0004 0AD8     		bhi	.L204
 963:mpu6050.c     ****     I2CWriteBit(devAddr, MPU6050_RA_I2C_SLV0_CTRL + num*3, I2C_MPU6050_I2C_SLV_EN_BIT, enabled);
 2567              		.loc 1 963 0
 2568 0006 4200     		lsls	r2, r0, #1
ARM GAS  C:\Users\Asus\AppData\Local\Temp\cc7ymLuX.s 			page 63


 2569 0008 8418     		adds	r4, r0, r2
 2570 000a 2734     		adds	r4, r4, #39
 2571 000c E4B2     		uxtb	r4, r4
 2572 000e 044B     		ldr	r3, .L206
 2573 0010 1878     		ldrb	r0, [r3]
 2574              	.LVL141:
 2575 0012 0B00     		movs	r3, r1
 2576 0014 0722     		movs	r2, #7
 2577 0016 2100     		movs	r1, r4
 2578              	.LVL142:
 2579 0018 FFF7FEFF 		bl	I2CWriteBit
 2580              	.LVL143:
 2581              	.L204:
 964:mpu6050.c     **** }
 2582              		.loc 1 964 0
 2583              		@ sp needed
 2584 001c 10BD     		pop	{r4, pc}
 2585              	.L207:
 2586 001e C046     		.align	2
 2587              	.L206:
 2588 0020 00000000 		.word	devAddr
 2589              		.cfi_endproc
 2590              	.LFE67:
 2591              		.size	MPU6050_setSlaveEnabled, .-MPU6050_setSlaveEnabled
 2592              		.section	.text.MPU6050_getSlaveWordByteSwap,"ax",%progbits
 2593              		.align	2
 2594              		.global	MPU6050_getSlaveWordByteSwap
 2595              		.code	16
 2596              		.thumb_func
 2597              		.type	MPU6050_getSlaveWordByteSwap, %function
 2598              	MPU6050_getSlaveWordByteSwap:
 2599              	.LFB68:
 965:mpu6050.c     **** /** Get word pair byte-swapping enabled for the specified slave (0-3).
 966:mpu6050.c     ****  * When set to 1, this bit enables byte swapping. When byte swapping is enabled,
 967:mpu6050.c     ****  * the high and low bytes of a word pair are swapped. Please refer to
 968:mpu6050.c     ****  * I2C_SLV0_GRP for the pairing convention of the word pairs. When cleared to 0,
 969:mpu6050.c     ****  * bytes transferred to and from Slave 0 will be written to EXT_SENS_DATA
 970:mpu6050.c     ****  * registers in the order they were transferred.
 971:mpu6050.c     ****  *
 972:mpu6050.c     ****  * @param num Slave number (0-3)
 973:mpu6050.c     ****  * @return Current word pair byte-swapping enabled value for specified slave
 974:mpu6050.c     ****  * @see MPU6050_RA_I2C_SLV0_CTRL
 975:mpu6050.c     ****  */
 976:mpu6050.c     **** bool MPU6050_getSlaveWordByteSwap(uint8_t num) {
 2600              		.loc 1 976 0
 2601              		.cfi_startproc
 2602              		@ args = 0, pretend = 0, frame = 0
 2603              		@ frame_needed = 0, uses_anonymous_args = 0
 2604              	.LVL144:
 2605 0000 10B5     		push	{r4, lr}
 2606              		.cfi_def_cfa_offset 8
 2607              		.cfi_offset 4, -8
 2608              		.cfi_offset 14, -4
 977:mpu6050.c     ****     if (num > 3) return 0;
 2609              		.loc 1 977 0
 2610 0002 0328     		cmp	r0, #3
 2611 0004 0FD8     		bhi	.L210
ARM GAS  C:\Users\Asus\AppData\Local\Temp\cc7ymLuX.s 			page 64


 978:mpu6050.c     ****     I2CReadBit(devAddr, MPU6050_RA_I2C_SLV0_CTRL + num*3, I2C_MPU6050_I2C_SLV_BYTE_SW_BIT, buffer);
 2612              		.loc 1 978 0
 2613 0006 094C     		ldr	r4, .L211
 2614 0008 4300     		lsls	r3, r0, #1
 2615 000a C118     		adds	r1, r0, r3
 2616 000c 2731     		adds	r1, r1, #39
 2617 000e C9B2     		uxtb	r1, r1
 2618 0010 074B     		ldr	r3, .L211+4
 2619 0012 1878     		ldrb	r0, [r3]
 2620              	.LVL145:
 2621 0014 2300     		movs	r3, r4
 2622 0016 0622     		movs	r2, #6
 2623 0018 FFF7FEFF 		bl	I2CReadBit
 2624              	.LVL146:
 979:mpu6050.c     ****     return buffer[0];
 2625              		.loc 1 979 0
 2626 001c 2078     		ldrb	r0, [r4]
 2627 001e 431E     		subs	r3, r0, #1
 2628 0020 9841     		sbcs	r0, r0, r3
 2629 0022 C0B2     		uxtb	r0, r0
 2630 0024 00E0     		b	.L209
 2631              	.LVL147:
 2632              	.L210:
 977:mpu6050.c     ****     if (num > 3) return 0;
 2633              		.loc 1 977 0
 2634 0026 0020     		movs	r0, #0
 2635              	.LVL148:
 2636              	.L209:
 980:mpu6050.c     **** }
 2637              		.loc 1 980 0
 2638              		@ sp needed
 2639 0028 10BD     		pop	{r4, pc}
 2640              	.L212:
 2641 002a C046     		.align	2
 2642              	.L211:
 2643 002c 00000000 		.word	buffer
 2644 0030 00000000 		.word	devAddr
 2645              		.cfi_endproc
 2646              	.LFE68:
 2647              		.size	MPU6050_getSlaveWordByteSwap, .-MPU6050_getSlaveWordByteSwap
 2648              		.section	.text.MPU6050_setSlaveWordByteSwap,"ax",%progbits
 2649              		.align	2
 2650              		.global	MPU6050_setSlaveWordByteSwap
 2651              		.code	16
 2652              		.thumb_func
 2653              		.type	MPU6050_setSlaveWordByteSwap, %function
 2654              	MPU6050_setSlaveWordByteSwap:
 2655              	.LFB69:
 981:mpu6050.c     **** /** Set word pair byte-swapping enabled for the specified slave (0-3).
 982:mpu6050.c     ****  * @param num Slave number (0-3)
 983:mpu6050.c     ****  * @param enabled New word pair byte-swapping enabled value for specified slave
 984:mpu6050.c     ****  * @see getSlaveWordByteSwap()
 985:mpu6050.c     ****  * @see MPU6050_RA_I2C_SLV0_CTRL
 986:mpu6050.c     ****  */
 987:mpu6050.c     **** void MPU6050_setSlaveWordByteSwap(uint8_t num, bool enabled) {
 2656              		.loc 1 987 0
 2657              		.cfi_startproc
ARM GAS  C:\Users\Asus\AppData\Local\Temp\cc7ymLuX.s 			page 65


 2658              		@ args = 0, pretend = 0, frame = 0
 2659              		@ frame_needed = 0, uses_anonymous_args = 0
 2660              	.LVL149:
 2661 0000 10B5     		push	{r4, lr}
 2662              		.cfi_def_cfa_offset 8
 2663              		.cfi_offset 4, -8
 2664              		.cfi_offset 14, -4
 988:mpu6050.c     ****     if (num > 3) return;
 2665              		.loc 1 988 0
 2666 0002 0328     		cmp	r0, #3
 2667 0004 0AD8     		bhi	.L213
 989:mpu6050.c     ****     I2CWriteBit(devAddr, MPU6050_RA_I2C_SLV0_CTRL + num*3, I2C_MPU6050_I2C_SLV_BYTE_SW_BIT, enabled
 2668              		.loc 1 989 0
 2669 0006 4200     		lsls	r2, r0, #1
 2670 0008 8418     		adds	r4, r0, r2
 2671 000a 2734     		adds	r4, r4, #39
 2672 000c E4B2     		uxtb	r4, r4
 2673 000e 044B     		ldr	r3, .L215
 2674 0010 1878     		ldrb	r0, [r3]
 2675              	.LVL150:
 2676 0012 0B00     		movs	r3, r1
 2677 0014 0622     		movs	r2, #6
 2678 0016 2100     		movs	r1, r4
 2679              	.LVL151:
 2680 0018 FFF7FEFF 		bl	I2CWriteBit
 2681              	.LVL152:
 2682              	.L213:
 990:mpu6050.c     **** }
 2683              		.loc 1 990 0
 2684              		@ sp needed
 2685 001c 10BD     		pop	{r4, pc}
 2686              	.L216:
 2687 001e C046     		.align	2
 2688              	.L215:
 2689 0020 00000000 		.word	devAddr
 2690              		.cfi_endproc
 2691              	.LFE69:
 2692              		.size	MPU6050_setSlaveWordByteSwap, .-MPU6050_setSlaveWordByteSwap
 2693              		.section	.text.MPU6050_getSlaveWriteMode,"ax",%progbits
 2694              		.align	2
 2695              		.global	MPU6050_getSlaveWriteMode
 2696              		.code	16
 2697              		.thumb_func
 2698              		.type	MPU6050_getSlaveWriteMode, %function
 2699              	MPU6050_getSlaveWriteMode:
 2700              	.LFB70:
 991:mpu6050.c     **** /** Get write mode for the specified slave (0-3).
 992:mpu6050.c     ****  * When set to 1, the transaction will read or write data only. When cleared to
 993:mpu6050.c     ****  * 0, the transaction will write a register address prior to reading or writing
 994:mpu6050.c     ****  * data. This should equal 0 when specifying the register address within the
 995:mpu6050.c     ****  * Slave device to/from which the ensuing data transaction will take place.
 996:mpu6050.c     ****  *
 997:mpu6050.c     ****  * @param num Slave number (0-3)
 998:mpu6050.c     ****  * @return Current write mode for specified slave (0 = register address + data, 1 = data only)
 999:mpu6050.c     ****  * @see MPU6050_RA_I2C_SLV0_CTRL
1000:mpu6050.c     ****  */
1001:mpu6050.c     **** bool MPU6050_getSlaveWriteMode(uint8_t num) {
ARM GAS  C:\Users\Asus\AppData\Local\Temp\cc7ymLuX.s 			page 66


 2701              		.loc 1 1001 0
 2702              		.cfi_startproc
 2703              		@ args = 0, pretend = 0, frame = 0
 2704              		@ frame_needed = 0, uses_anonymous_args = 0
 2705              	.LVL153:
 2706 0000 10B5     		push	{r4, lr}
 2707              		.cfi_def_cfa_offset 8
 2708              		.cfi_offset 4, -8
 2709              		.cfi_offset 14, -4
1002:mpu6050.c     ****     if (num > 3) return 0;
 2710              		.loc 1 1002 0
 2711 0002 0328     		cmp	r0, #3
 2712 0004 0FD8     		bhi	.L219
1003:mpu6050.c     ****     I2CReadBit(devAddr, MPU6050_RA_I2C_SLV0_CTRL + num*3, I2C_MPU6050_I2C_SLV_REG_DIS_BIT, buffer);
 2713              		.loc 1 1003 0
 2714 0006 094C     		ldr	r4, .L220
 2715 0008 4300     		lsls	r3, r0, #1
 2716 000a C118     		adds	r1, r0, r3
 2717 000c 2731     		adds	r1, r1, #39
 2718 000e C9B2     		uxtb	r1, r1
 2719 0010 074B     		ldr	r3, .L220+4
 2720 0012 1878     		ldrb	r0, [r3]
 2721              	.LVL154:
 2722 0014 2300     		movs	r3, r4
 2723 0016 0522     		movs	r2, #5
 2724 0018 FFF7FEFF 		bl	I2CReadBit
 2725              	.LVL155:
1004:mpu6050.c     ****     return buffer[0];
 2726              		.loc 1 1004 0
 2727 001c 2078     		ldrb	r0, [r4]
 2728 001e 431E     		subs	r3, r0, #1
 2729 0020 9841     		sbcs	r0, r0, r3
 2730 0022 C0B2     		uxtb	r0, r0
 2731 0024 00E0     		b	.L218
 2732              	.LVL156:
 2733              	.L219:
1002:mpu6050.c     ****     if (num > 3) return 0;
 2734              		.loc 1 1002 0
 2735 0026 0020     		movs	r0, #0
 2736              	.LVL157:
 2737              	.L218:
1005:mpu6050.c     **** }
 2738              		.loc 1 1005 0
 2739              		@ sp needed
 2740 0028 10BD     		pop	{r4, pc}
 2741              	.L221:
 2742 002a C046     		.align	2
 2743              	.L220:
 2744 002c 00000000 		.word	buffer
 2745 0030 00000000 		.word	devAddr
 2746              		.cfi_endproc
 2747              	.LFE70:
 2748              		.size	MPU6050_getSlaveWriteMode, .-MPU6050_getSlaveWriteMode
 2749              		.section	.text.MPU6050_setSlaveWriteMode,"ax",%progbits
 2750              		.align	2
 2751              		.global	MPU6050_setSlaveWriteMode
 2752              		.code	16
ARM GAS  C:\Users\Asus\AppData\Local\Temp\cc7ymLuX.s 			page 67


 2753              		.thumb_func
 2754              		.type	MPU6050_setSlaveWriteMode, %function
 2755              	MPU6050_setSlaveWriteMode:
 2756              	.LFB71:
1006:mpu6050.c     **** /** Set write mode for the specified slave (0-3).
1007:mpu6050.c     ****  * @param num Slave number (0-3)
1008:mpu6050.c     ****  * @param mode New write mode for specified slave (0 = register address + data, 1 = data only)
1009:mpu6050.c     ****  * @see getSlaveWriteMode()
1010:mpu6050.c     ****  * @see MPU6050_RA_I2C_SLV0_CTRL
1011:mpu6050.c     ****  */
1012:mpu6050.c     **** void MPU6050_setSlaveWriteMode(uint8_t num, bool mode) {
 2757              		.loc 1 1012 0
 2758              		.cfi_startproc
 2759              		@ args = 0, pretend = 0, frame = 0
 2760              		@ frame_needed = 0, uses_anonymous_args = 0
 2761              	.LVL158:
 2762 0000 10B5     		push	{r4, lr}
 2763              		.cfi_def_cfa_offset 8
 2764              		.cfi_offset 4, -8
 2765              		.cfi_offset 14, -4
1013:mpu6050.c     ****     if (num > 3) return;
 2766              		.loc 1 1013 0
 2767 0002 0328     		cmp	r0, #3
 2768 0004 0AD8     		bhi	.L222
1014:mpu6050.c     ****     I2CWriteBit(devAddr, MPU6050_RA_I2C_SLV0_CTRL + num*3, I2C_MPU6050_I2C_SLV_REG_DIS_BIT, mode);
 2769              		.loc 1 1014 0
 2770 0006 4200     		lsls	r2, r0, #1
 2771 0008 8418     		adds	r4, r0, r2
 2772 000a 2734     		adds	r4, r4, #39
 2773 000c E4B2     		uxtb	r4, r4
 2774 000e 044B     		ldr	r3, .L224
 2775 0010 1878     		ldrb	r0, [r3]
 2776              	.LVL159:
 2777 0012 0B00     		movs	r3, r1
 2778 0014 0522     		movs	r2, #5
 2779 0016 2100     		movs	r1, r4
 2780              	.LVL160:
 2781 0018 FFF7FEFF 		bl	I2CWriteBit
 2782              	.LVL161:
 2783              	.L222:
1015:mpu6050.c     **** }
 2784              		.loc 1 1015 0
 2785              		@ sp needed
 2786 001c 10BD     		pop	{r4, pc}
 2787              	.L225:
 2788 001e C046     		.align	2
 2789              	.L224:
 2790 0020 00000000 		.word	devAddr
 2791              		.cfi_endproc
 2792              	.LFE71:
 2793              		.size	MPU6050_setSlaveWriteMode, .-MPU6050_setSlaveWriteMode
 2794              		.section	.text.MPU6050_getSlaveWordGroupOffset,"ax",%progbits
 2795              		.align	2
 2796              		.global	MPU6050_getSlaveWordGroupOffset
 2797              		.code	16
 2798              		.thumb_func
 2799              		.type	MPU6050_getSlaveWordGroupOffset, %function
ARM GAS  C:\Users\Asus\AppData\Local\Temp\cc7ymLuX.s 			page 68


 2800              	MPU6050_getSlaveWordGroupOffset:
 2801              	.LFB72:
1016:mpu6050.c     **** /** Get word pair grouping order offset for the specified slave (0-3).
1017:mpu6050.c     ****  * This sets specifies the grouping order of word pairs received from registers.
1018:mpu6050.c     ****  * When cleared to 0, bytes from register addresses 0 and 1, 2 and 3, etc (even,
1019:mpu6050.c     ****  * then odd register addresses) are paired to form a word. When set to 1, bytes
1020:mpu6050.c     ****  * from register addresses are paired 1 and 2, 3 and 4, etc. (odd, then even
1021:mpu6050.c     ****  * register addresses) are paired to form a word.
1022:mpu6050.c     ****  *
1023:mpu6050.c     ****  * @param num Slave number (0-3)
1024:mpu6050.c     ****  * @return Current word pair grouping order offset for specified slave
1025:mpu6050.c     ****  * @see MPU6050_RA_I2C_SLV0_CTRL
1026:mpu6050.c     ****  */
1027:mpu6050.c     **** bool MPU6050_getSlaveWordGroupOffset(uint8_t num) {
 2802              		.loc 1 1027 0
 2803              		.cfi_startproc
 2804              		@ args = 0, pretend = 0, frame = 0
 2805              		@ frame_needed = 0, uses_anonymous_args = 0
 2806              	.LVL162:
 2807 0000 10B5     		push	{r4, lr}
 2808              		.cfi_def_cfa_offset 8
 2809              		.cfi_offset 4, -8
 2810              		.cfi_offset 14, -4
1028:mpu6050.c     ****     if (num > 3) return 0;
 2811              		.loc 1 1028 0
 2812 0002 0328     		cmp	r0, #3
 2813 0004 0FD8     		bhi	.L228
1029:mpu6050.c     ****     I2CReadBit(devAddr, MPU6050_RA_I2C_SLV0_CTRL + num*3, I2C_MPU6050_I2C_SLV_GRP_BIT, buffer);
 2814              		.loc 1 1029 0
 2815 0006 094C     		ldr	r4, .L229
 2816 0008 4300     		lsls	r3, r0, #1
 2817 000a C118     		adds	r1, r0, r3
 2818 000c 2731     		adds	r1, r1, #39
 2819 000e C9B2     		uxtb	r1, r1
 2820 0010 074B     		ldr	r3, .L229+4
 2821 0012 1878     		ldrb	r0, [r3]
 2822              	.LVL163:
 2823 0014 2300     		movs	r3, r4
 2824 0016 0422     		movs	r2, #4
 2825 0018 FFF7FEFF 		bl	I2CReadBit
 2826              	.LVL164:
1030:mpu6050.c     ****     return buffer[0];
 2827              		.loc 1 1030 0
 2828 001c 2078     		ldrb	r0, [r4]
 2829 001e 431E     		subs	r3, r0, #1
 2830 0020 9841     		sbcs	r0, r0, r3
 2831 0022 C0B2     		uxtb	r0, r0
 2832 0024 00E0     		b	.L227
 2833              	.LVL165:
 2834              	.L228:
1028:mpu6050.c     ****     if (num > 3) return 0;
 2835              		.loc 1 1028 0
 2836 0026 0020     		movs	r0, #0
 2837              	.LVL166:
 2838              	.L227:
1031:mpu6050.c     **** }
 2839              		.loc 1 1031 0
ARM GAS  C:\Users\Asus\AppData\Local\Temp\cc7ymLuX.s 			page 69


 2840              		@ sp needed
 2841 0028 10BD     		pop	{r4, pc}
 2842              	.L230:
 2843 002a C046     		.align	2
 2844              	.L229:
 2845 002c 00000000 		.word	buffer
 2846 0030 00000000 		.word	devAddr
 2847              		.cfi_endproc
 2848              	.LFE72:
 2849              		.size	MPU6050_getSlaveWordGroupOffset, .-MPU6050_getSlaveWordGroupOffset
 2850              		.section	.text.MPU6050_setSlaveWordGroupOffset,"ax",%progbits
 2851              		.align	2
 2852              		.global	MPU6050_setSlaveWordGroupOffset
 2853              		.code	16
 2854              		.thumb_func
 2855              		.type	MPU6050_setSlaveWordGroupOffset, %function
 2856              	MPU6050_setSlaveWordGroupOffset:
 2857              	.LFB73:
1032:mpu6050.c     **** /** Set word pair grouping order offset for the specified slave (0-3).
1033:mpu6050.c     ****  * @param num Slave number (0-3)
1034:mpu6050.c     ****  * @param enabled New word pair grouping order offset for specified slave
1035:mpu6050.c     ****  * @see getSlaveWordGroupOffset()
1036:mpu6050.c     ****  * @see MPU6050_RA_I2C_SLV0_CTRL
1037:mpu6050.c     ****  */
1038:mpu6050.c     **** void MPU6050_setSlaveWordGroupOffset(uint8_t num, bool enabled) {
 2858              		.loc 1 1038 0
 2859              		.cfi_startproc
 2860              		@ args = 0, pretend = 0, frame = 0
 2861              		@ frame_needed = 0, uses_anonymous_args = 0
 2862              	.LVL167:
 2863 0000 10B5     		push	{r4, lr}
 2864              		.cfi_def_cfa_offset 8
 2865              		.cfi_offset 4, -8
 2866              		.cfi_offset 14, -4
1039:mpu6050.c     ****     if (num > 3) return;
 2867              		.loc 1 1039 0
 2868 0002 0328     		cmp	r0, #3
 2869 0004 0AD8     		bhi	.L231
1040:mpu6050.c     ****     I2CWriteBit(devAddr, MPU6050_RA_I2C_SLV0_CTRL + num*3, I2C_MPU6050_I2C_SLV_GRP_BIT, enabled);
 2870              		.loc 1 1040 0
 2871 0006 4200     		lsls	r2, r0, #1
 2872 0008 8418     		adds	r4, r0, r2
 2873 000a 2734     		adds	r4, r4, #39
 2874 000c E4B2     		uxtb	r4, r4
 2875 000e 044B     		ldr	r3, .L233
 2876 0010 1878     		ldrb	r0, [r3]
 2877              	.LVL168:
 2878 0012 0B00     		movs	r3, r1
 2879 0014 0422     		movs	r2, #4
 2880 0016 2100     		movs	r1, r4
 2881              	.LVL169:
 2882 0018 FFF7FEFF 		bl	I2CWriteBit
 2883              	.LVL170:
 2884              	.L231:
1041:mpu6050.c     **** }
 2885              		.loc 1 1041 0
 2886              		@ sp needed
ARM GAS  C:\Users\Asus\AppData\Local\Temp\cc7ymLuX.s 			page 70


 2887 001c 10BD     		pop	{r4, pc}
 2888              	.L234:
 2889 001e C046     		.align	2
 2890              	.L233:
 2891 0020 00000000 		.word	devAddr
 2892              		.cfi_endproc
 2893              	.LFE73:
 2894              		.size	MPU6050_setSlaveWordGroupOffset, .-MPU6050_setSlaveWordGroupOffset
 2895              		.section	.text.MPU6050_getSlaveDataLength,"ax",%progbits
 2896              		.align	2
 2897              		.global	MPU6050_getSlaveDataLength
 2898              		.code	16
 2899              		.thumb_func
 2900              		.type	MPU6050_getSlaveDataLength, %function
 2901              	MPU6050_getSlaveDataLength:
 2902              	.LFB74:
1042:mpu6050.c     **** /** Get number of bytes to read for the specified slave (0-3).
1043:mpu6050.c     ****  * Specifies the number of bytes transferred to and from Slave 0. Clearing this
1044:mpu6050.c     ****  * bit to 0 is equivalent to disabling the register by writing 0 to I2C_SLV0_EN.
1045:mpu6050.c     ****  * @param num Slave number (0-3)
1046:mpu6050.c     ****  * @return Number of bytes to read for specified slave
1047:mpu6050.c     ****  * @see MPU6050_RA_I2C_SLV0_CTRL
1048:mpu6050.c     ****  */
1049:mpu6050.c     **** uint8_t MPU6050_getSlaveDataLength(uint8_t num) {
 2903              		.loc 1 1049 0
 2904              		.cfi_startproc
 2905              		@ args = 0, pretend = 0, frame = 0
 2906              		@ frame_needed = 0, uses_anonymous_args = 0
 2907              	.LVL171:
 2908 0000 10B5     		push	{r4, lr}
 2909              		.cfi_def_cfa_offset 8
 2910              		.cfi_offset 4, -8
 2911              		.cfi_offset 14, -4
 2912 0002 82B0     		sub	sp, sp, #8
 2913              		.cfi_def_cfa_offset 16
1050:mpu6050.c     ****     if (num > 3) return 0;
 2914              		.loc 1 1050 0
 2915 0004 0328     		cmp	r0, #3
 2916 0006 0DD8     		bhi	.L237
1051:mpu6050.c     ****     I2CReadBits(devAddr, MPU6050_RA_I2C_SLV0_CTRL + num*3, I2C_MPU6050_I2C_SLV_LEN_BIT, I2C_MPU6050
 2917              		.loc 1 1051 0
 2918 0008 4300     		lsls	r3, r0, #1
 2919 000a C118     		adds	r1, r0, r3
 2920 000c 2731     		adds	r1, r1, #39
 2921 000e C9B2     		uxtb	r1, r1
 2922 0010 064B     		ldr	r3, .L238
 2923 0012 1878     		ldrb	r0, [r3]
 2924              	.LVL172:
 2925 0014 064C     		ldr	r4, .L238+4
 2926 0016 0094     		str	r4, [sp]
 2927 0018 0423     		movs	r3, #4
 2928 001a 0322     		movs	r2, #3
 2929 001c FFF7FEFF 		bl	I2CReadBits
 2930              	.LVL173:
1052:mpu6050.c     ****     return buffer[0];
 2931              		.loc 1 1052 0
 2932 0020 2078     		ldrb	r0, [r4]
ARM GAS  C:\Users\Asus\AppData\Local\Temp\cc7ymLuX.s 			page 71


 2933 0022 00E0     		b	.L236
 2934              	.LVL174:
 2935              	.L237:
1050:mpu6050.c     ****     if (num > 3) return 0;
 2936              		.loc 1 1050 0
 2937 0024 0020     		movs	r0, #0
 2938              	.LVL175:
 2939              	.L236:
1053:mpu6050.c     **** }
 2940              		.loc 1 1053 0
 2941 0026 02B0     		add	sp, sp, #8
 2942              		@ sp needed
 2943 0028 10BD     		pop	{r4, pc}
 2944              	.L239:
 2945 002a C046     		.align	2
 2946              	.L238:
 2947 002c 00000000 		.word	devAddr
 2948 0030 00000000 		.word	buffer
 2949              		.cfi_endproc
 2950              	.LFE74:
 2951              		.size	MPU6050_getSlaveDataLength, .-MPU6050_getSlaveDataLength
 2952              		.section	.text.MPU6050_setSlaveDataLength,"ax",%progbits
 2953              		.align	2
 2954              		.global	MPU6050_setSlaveDataLength
 2955              		.code	16
 2956              		.thumb_func
 2957              		.type	MPU6050_setSlaveDataLength, %function
 2958              	MPU6050_setSlaveDataLength:
 2959              	.LFB75:
1054:mpu6050.c     **** /** Set number of bytes to read for the specified slave (0-3).
1055:mpu6050.c     ****  * @param num Slave number (0-3)
1056:mpu6050.c     ****  * @param length Number of bytes to read for specified slave
1057:mpu6050.c     ****  * @see getSlaveDataLength()
1058:mpu6050.c     ****  * @see MPU6050_RA_I2C_SLV0_CTRL
1059:mpu6050.c     ****  */
1060:mpu6050.c     **** void MPU6050_setSlaveDataLength(uint8_t num, uint8_t length) {
 2960              		.loc 1 1060 0
 2961              		.cfi_startproc
 2962              		@ args = 0, pretend = 0, frame = 0
 2963              		@ frame_needed = 0, uses_anonymous_args = 0
 2964              	.LVL176:
 2965 0000 10B5     		push	{r4, lr}
 2966              		.cfi_def_cfa_offset 8
 2967              		.cfi_offset 4, -8
 2968              		.cfi_offset 14, -4
 2969 0002 82B0     		sub	sp, sp, #8
 2970              		.cfi_def_cfa_offset 16
1061:mpu6050.c     ****     if (num > 3) return;
 2971              		.loc 1 1061 0
 2972 0004 0328     		cmp	r0, #3
 2973 0006 0BD8     		bhi	.L240
1062:mpu6050.c     ****     I2CWriteBits(devAddr, MPU6050_RA_I2C_SLV0_CTRL + num*3, I2C_MPU6050_I2C_SLV_LEN_BIT, I2C_MPU605
 2974              		.loc 1 1062 0
 2975 0008 4300     		lsls	r3, r0, #1
 2976 000a C418     		adds	r4, r0, r3
 2977 000c 2734     		adds	r4, r4, #39
 2978 000e E4B2     		uxtb	r4, r4
ARM GAS  C:\Users\Asus\AppData\Local\Temp\cc7ymLuX.s 			page 72


 2979 0010 044B     		ldr	r3, .L242
 2980 0012 1878     		ldrb	r0, [r3]
 2981              	.LVL177:
 2982 0014 0091     		str	r1, [sp]
 2983 0016 0423     		movs	r3, #4
 2984 0018 0322     		movs	r2, #3
 2985 001a 2100     		movs	r1, r4
 2986              	.LVL178:
 2987 001c FFF7FEFF 		bl	I2CWriteBits
 2988              	.LVL179:
 2989              	.L240:
1063:mpu6050.c     **** }
 2990              		.loc 1 1063 0
 2991 0020 02B0     		add	sp, sp, #8
 2992              		@ sp needed
 2993 0022 10BD     		pop	{r4, pc}
 2994              	.L243:
 2995              		.align	2
 2996              	.L242:
 2997 0024 00000000 		.word	devAddr
 2998              		.cfi_endproc
 2999              	.LFE75:
 3000              		.size	MPU6050_setSlaveDataLength, .-MPU6050_setSlaveDataLength
 3001              		.section	.text.MPU6050_getSlave4Address,"ax",%progbits
 3002              		.align	2
 3003              		.global	MPU6050_getSlave4Address
 3004              		.code	16
 3005              		.thumb_func
 3006              		.type	MPU6050_getSlave4Address, %function
 3007              	MPU6050_getSlave4Address:
 3008              	.LFB76:
1064:mpu6050.c     **** 
1065:mpu6050.c     **** // I2C_SLV* registers (Slave 4)
1066:mpu6050.c     **** 
1067:mpu6050.c     **** /** Get the I2C address of Slave 4.
1068:mpu6050.c     ****  * Note that Bit 7 (MSB) controls read/write mode. If Bit 7 is set, it's a read
1069:mpu6050.c     ****  * operation, and if it is cleared, then it's a write operation. The remaining
1070:mpu6050.c     ****  * bits (6-0) are the 7-bit device address of the slave device.
1071:mpu6050.c     ****  *
1072:mpu6050.c     ****  * @return Current address for Slave 4
1073:mpu6050.c     ****  * @see getSlaveAddress()
1074:mpu6050.c     ****  * @see MPU6050_RA_I2C_SLV4_ADDR
1075:mpu6050.c     ****  */
1076:mpu6050.c     **** uint8_t MPU6050_getSlave4Address() {
 3009              		.loc 1 1076 0
 3010              		.cfi_startproc
 3011              		@ args = 0, pretend = 0, frame = 0
 3012              		@ frame_needed = 0, uses_anonymous_args = 0
 3013 0000 10B5     		push	{r4, lr}
 3014              		.cfi_def_cfa_offset 8
 3015              		.cfi_offset 4, -8
 3016              		.cfi_offset 14, -4
1077:mpu6050.c     ****     I2CReadByte(devAddr, MPU6050_RA_I2C_SLV4_ADDR, buffer);
 3017              		.loc 1 1077 0
 3018 0002 044C     		ldr	r4, .L245
 3019 0004 044B     		ldr	r3, .L245+4
 3020 0006 1878     		ldrb	r0, [r3]
ARM GAS  C:\Users\Asus\AppData\Local\Temp\cc7ymLuX.s 			page 73


 3021 0008 2200     		movs	r2, r4
 3022 000a 3121     		movs	r1, #49
 3023 000c FFF7FEFF 		bl	I2CReadByte
 3024              	.LVL180:
1078:mpu6050.c     ****     return buffer[0];
 3025              		.loc 1 1078 0
 3026 0010 2078     		ldrb	r0, [r4]
1079:mpu6050.c     **** }
 3027              		.loc 1 1079 0
 3028              		@ sp needed
 3029 0012 10BD     		pop	{r4, pc}
 3030              	.L246:
 3031              		.align	2
 3032              	.L245:
 3033 0014 00000000 		.word	buffer
 3034 0018 00000000 		.word	devAddr
 3035              		.cfi_endproc
 3036              	.LFE76:
 3037              		.size	MPU6050_getSlave4Address, .-MPU6050_getSlave4Address
 3038              		.section	.text.MPU6050_setSlave4Address,"ax",%progbits
 3039              		.align	2
 3040              		.global	MPU6050_setSlave4Address
 3041              		.code	16
 3042              		.thumb_func
 3043              		.type	MPU6050_setSlave4Address, %function
 3044              	MPU6050_setSlave4Address:
 3045              	.LFB77:
1080:mpu6050.c     **** /** Set the I2C address of Slave 4.
1081:mpu6050.c     ****  * @param address New address for Slave 4
1082:mpu6050.c     ****  * @see getSlave4Address()
1083:mpu6050.c     ****  * @see MPU6050_RA_I2C_SLV4_ADDR
1084:mpu6050.c     ****  */
1085:mpu6050.c     **** void MPU6050_setSlave4Address(uint8_t address) {
 3046              		.loc 1 1085 0
 3047              		.cfi_startproc
 3048              		@ args = 0, pretend = 0, frame = 0
 3049              		@ frame_needed = 0, uses_anonymous_args = 0
 3050              	.LVL181:
 3051 0000 10B5     		push	{r4, lr}
 3052              		.cfi_def_cfa_offset 8
 3053              		.cfi_offset 4, -8
 3054              		.cfi_offset 14, -4
 3055 0002 0200     		movs	r2, r0
1086:mpu6050.c     ****     I2CWriteByte(devAddr, MPU6050_RA_I2C_SLV4_ADDR, address);
 3056              		.loc 1 1086 0
 3057 0004 024B     		ldr	r3, .L248
 3058 0006 1878     		ldrb	r0, [r3]
 3059              	.LVL182:
 3060 0008 3121     		movs	r1, #49
 3061 000a FFF7FEFF 		bl	I2CWriteByte
 3062              	.LVL183:
1087:mpu6050.c     **** }
 3063              		.loc 1 1087 0
 3064              		@ sp needed
 3065 000e 10BD     		pop	{r4, pc}
 3066              	.L249:
 3067              		.align	2
ARM GAS  C:\Users\Asus\AppData\Local\Temp\cc7ymLuX.s 			page 74


 3068              	.L248:
 3069 0010 00000000 		.word	devAddr
 3070              		.cfi_endproc
 3071              	.LFE77:
 3072              		.size	MPU6050_setSlave4Address, .-MPU6050_setSlave4Address
 3073              		.section	.text.MPU6050_getSlave4Register,"ax",%progbits
 3074              		.align	2
 3075              		.global	MPU6050_getSlave4Register
 3076              		.code	16
 3077              		.thumb_func
 3078              		.type	MPU6050_getSlave4Register, %function
 3079              	MPU6050_getSlave4Register:
 3080              	.LFB78:
1088:mpu6050.c     **** /** Get the active internal register for the Slave 4.
1089:mpu6050.c     ****  * Read/write operations for this slave will be done to whatever internal
1090:mpu6050.c     ****  * register address is stored in this MPU register.
1091:mpu6050.c     ****  *
1092:mpu6050.c     ****  * @return Current active register for Slave 4
1093:mpu6050.c     ****  * @see MPU6050_RA_I2C_SLV4_REG
1094:mpu6050.c     ****  */
1095:mpu6050.c     **** uint8_t MPU6050_getSlave4Register() {
 3081              		.loc 1 1095 0
 3082              		.cfi_startproc
 3083              		@ args = 0, pretend = 0, frame = 0
 3084              		@ frame_needed = 0, uses_anonymous_args = 0
 3085 0000 10B5     		push	{r4, lr}
 3086              		.cfi_def_cfa_offset 8
 3087              		.cfi_offset 4, -8
 3088              		.cfi_offset 14, -4
1096:mpu6050.c     ****     I2CReadByte(devAddr, MPU6050_RA_I2C_SLV4_REG, buffer);
 3089              		.loc 1 1096 0
 3090 0002 044C     		ldr	r4, .L251
 3091 0004 044B     		ldr	r3, .L251+4
 3092 0006 1878     		ldrb	r0, [r3]
 3093 0008 2200     		movs	r2, r4
 3094 000a 3221     		movs	r1, #50
 3095 000c FFF7FEFF 		bl	I2CReadByte
 3096              	.LVL184:
1097:mpu6050.c     ****     return buffer[0];
 3097              		.loc 1 1097 0
 3098 0010 2078     		ldrb	r0, [r4]
1098:mpu6050.c     **** }
 3099              		.loc 1 1098 0
 3100              		@ sp needed
 3101 0012 10BD     		pop	{r4, pc}
 3102              	.L252:
 3103              		.align	2
 3104              	.L251:
 3105 0014 00000000 		.word	buffer
 3106 0018 00000000 		.word	devAddr
 3107              		.cfi_endproc
 3108              	.LFE78:
 3109              		.size	MPU6050_getSlave4Register, .-MPU6050_getSlave4Register
 3110              		.section	.text.MPU6050_setSlave4Register,"ax",%progbits
 3111              		.align	2
 3112              		.global	MPU6050_setSlave4Register
 3113              		.code	16
ARM GAS  C:\Users\Asus\AppData\Local\Temp\cc7ymLuX.s 			page 75


 3114              		.thumb_func
 3115              		.type	MPU6050_setSlave4Register, %function
 3116              	MPU6050_setSlave4Register:
 3117              	.LFB79:
1099:mpu6050.c     **** /** Set the active internal register for Slave 4.
1100:mpu6050.c     ****  * @param reg New active register for Slave 4
1101:mpu6050.c     ****  * @see getSlave4Register()
1102:mpu6050.c     ****  * @see MPU6050_RA_I2C_SLV4_REG
1103:mpu6050.c     ****  */
1104:mpu6050.c     **** void MPU6050_setSlave4Register(uint8_t reg) {
 3118              		.loc 1 1104 0
 3119              		.cfi_startproc
 3120              		@ args = 0, pretend = 0, frame = 0
 3121              		@ frame_needed = 0, uses_anonymous_args = 0
 3122              	.LVL185:
 3123 0000 10B5     		push	{r4, lr}
 3124              		.cfi_def_cfa_offset 8
 3125              		.cfi_offset 4, -8
 3126              		.cfi_offset 14, -4
 3127 0002 0200     		movs	r2, r0
1105:mpu6050.c     ****     I2CWriteByte(devAddr, MPU6050_RA_I2C_SLV4_REG, reg);
 3128              		.loc 1 1105 0
 3129 0004 024B     		ldr	r3, .L254
 3130 0006 1878     		ldrb	r0, [r3]
 3131              	.LVL186:
 3132 0008 3221     		movs	r1, #50
 3133 000a FFF7FEFF 		bl	I2CWriteByte
 3134              	.LVL187:
1106:mpu6050.c     **** }
 3135              		.loc 1 1106 0
 3136              		@ sp needed
 3137 000e 10BD     		pop	{r4, pc}
 3138              	.L255:
 3139              		.align	2
 3140              	.L254:
 3141 0010 00000000 		.word	devAddr
 3142              		.cfi_endproc
 3143              	.LFE79:
 3144              		.size	MPU6050_setSlave4Register, .-MPU6050_setSlave4Register
 3145              		.section	.text.MPU6050_setSlave4OutputByte,"ax",%progbits
 3146              		.align	2
 3147              		.global	MPU6050_setSlave4OutputByte
 3148              		.code	16
 3149              		.thumb_func
 3150              		.type	MPU6050_setSlave4OutputByte, %function
 3151              	MPU6050_setSlave4OutputByte:
 3152              	.LFB80:
1107:mpu6050.c     **** /** Set new byte to write to Slave 4.
1108:mpu6050.c     ****  * This register stores the data to be written into the Slave 4. If I2C_SLV4_RW
1109:mpu6050.c     ****  * is set 1 (set to read), this register has no effect.
1110:mpu6050.c     ****  * @param data New byte to write to Slave 4
1111:mpu6050.c     ****  * @see MPU6050_RA_I2C_SLV4_DO
1112:mpu6050.c     ****  */
1113:mpu6050.c     **** void MPU6050_setSlave4OutputByte(uint8_t data) {
 3153              		.loc 1 1113 0
 3154              		.cfi_startproc
 3155              		@ args = 0, pretend = 0, frame = 0
ARM GAS  C:\Users\Asus\AppData\Local\Temp\cc7ymLuX.s 			page 76


 3156              		@ frame_needed = 0, uses_anonymous_args = 0
 3157              	.LVL188:
 3158 0000 10B5     		push	{r4, lr}
 3159              		.cfi_def_cfa_offset 8
 3160              		.cfi_offset 4, -8
 3161              		.cfi_offset 14, -4
 3162 0002 0200     		movs	r2, r0
1114:mpu6050.c     ****     I2CWriteByte(devAddr, MPU6050_RA_I2C_SLV4_DO, data);
 3163              		.loc 1 1114 0
 3164 0004 024B     		ldr	r3, .L257
 3165 0006 1878     		ldrb	r0, [r3]
 3166              	.LVL189:
 3167 0008 3321     		movs	r1, #51
 3168 000a FFF7FEFF 		bl	I2CWriteByte
 3169              	.LVL190:
1115:mpu6050.c     **** }
 3170              		.loc 1 1115 0
 3171              		@ sp needed
 3172 000e 10BD     		pop	{r4, pc}
 3173              	.L258:
 3174              		.align	2
 3175              	.L257:
 3176 0010 00000000 		.word	devAddr
 3177              		.cfi_endproc
 3178              	.LFE80:
 3179              		.size	MPU6050_setSlave4OutputByte, .-MPU6050_setSlave4OutputByte
 3180              		.section	.text.MPU6050_getSlave4Enabled,"ax",%progbits
 3181              		.align	2
 3182              		.global	MPU6050_getSlave4Enabled
 3183              		.code	16
 3184              		.thumb_func
 3185              		.type	MPU6050_getSlave4Enabled, %function
 3186              	MPU6050_getSlave4Enabled:
 3187              	.LFB81:
1116:mpu6050.c     **** /** Get the enabled value for the Slave 4.
1117:mpu6050.c     ****  * When set to 1, this bit enables Slave 4 for data transfer operations. When
1118:mpu6050.c     ****  * cleared to 0, this bit disables Slave 4 from data transfer operations.
1119:mpu6050.c     ****  * @return Current enabled value for Slave 4
1120:mpu6050.c     ****  * @see MPU6050_RA_I2C_SLV4_CTRL
1121:mpu6050.c     ****  */
1122:mpu6050.c     **** bool MPU6050_getSlave4Enabled() {
 3188              		.loc 1 1122 0
 3189              		.cfi_startproc
 3190              		@ args = 0, pretend = 0, frame = 0
 3191              		@ frame_needed = 0, uses_anonymous_args = 0
 3192 0000 10B5     		push	{r4, lr}
 3193              		.cfi_def_cfa_offset 8
 3194              		.cfi_offset 4, -8
 3195              		.cfi_offset 14, -4
1123:mpu6050.c     ****     I2CReadBit(devAddr, MPU6050_RA_I2C_SLV4_CTRL, I2C_MPU6050_I2C_SLV4_EN_BIT, buffer);
 3196              		.loc 1 1123 0
 3197 0002 064C     		ldr	r4, .L260
 3198 0004 064B     		ldr	r3, .L260+4
 3199 0006 1878     		ldrb	r0, [r3]
 3200 0008 2300     		movs	r3, r4
 3201 000a 0722     		movs	r2, #7
 3202 000c 3421     		movs	r1, #52
ARM GAS  C:\Users\Asus\AppData\Local\Temp\cc7ymLuX.s 			page 77


 3203 000e FFF7FEFF 		bl	I2CReadBit
 3204              	.LVL191:
1124:mpu6050.c     ****     return buffer[0];
 3205              		.loc 1 1124 0
 3206 0012 2078     		ldrb	r0, [r4]
 3207 0014 431E     		subs	r3, r0, #1
 3208 0016 9841     		sbcs	r0, r0, r3
 3209 0018 C0B2     		uxtb	r0, r0
1125:mpu6050.c     **** }
 3210              		.loc 1 1125 0
 3211              		@ sp needed
 3212 001a 10BD     		pop	{r4, pc}
 3213              	.L261:
 3214              		.align	2
 3215              	.L260:
 3216 001c 00000000 		.word	buffer
 3217 0020 00000000 		.word	devAddr
 3218              		.cfi_endproc
 3219              	.LFE81:
 3220              		.size	MPU6050_getSlave4Enabled, .-MPU6050_getSlave4Enabled
 3221              		.section	.text.MPU6050_setSlave4Enabled,"ax",%progbits
 3222              		.align	2
 3223              		.global	MPU6050_setSlave4Enabled
 3224              		.code	16
 3225              		.thumb_func
 3226              		.type	MPU6050_setSlave4Enabled, %function
 3227              	MPU6050_setSlave4Enabled:
 3228              	.LFB82:
1126:mpu6050.c     **** /** Set the enabled value for Slave 4.
1127:mpu6050.c     ****  * @param enabled New enabled value for Slave 4
1128:mpu6050.c     ****  * @see getSlave4Enabled()
1129:mpu6050.c     ****  * @see MPU6050_RA_I2C_SLV4_CTRL
1130:mpu6050.c     ****  */
1131:mpu6050.c     **** void MPU6050_setSlave4Enabled(bool enabled) {
 3229              		.loc 1 1131 0
 3230              		.cfi_startproc
 3231              		@ args = 0, pretend = 0, frame = 0
 3232              		@ frame_needed = 0, uses_anonymous_args = 0
 3233              	.LVL192:
 3234 0000 10B5     		push	{r4, lr}
 3235              		.cfi_def_cfa_offset 8
 3236              		.cfi_offset 4, -8
 3237              		.cfi_offset 14, -4
 3238 0002 0300     		movs	r3, r0
1132:mpu6050.c     ****     I2CWriteBit(devAddr, MPU6050_RA_I2C_SLV4_CTRL, I2C_MPU6050_I2C_SLV4_EN_BIT, enabled);
 3239              		.loc 1 1132 0
 3240 0004 034A     		ldr	r2, .L263
 3241 0006 1078     		ldrb	r0, [r2]
 3242              	.LVL193:
 3243 0008 0722     		movs	r2, #7
 3244 000a 3421     		movs	r1, #52
 3245 000c FFF7FEFF 		bl	I2CWriteBit
 3246              	.LVL194:
1133:mpu6050.c     **** }
 3247              		.loc 1 1133 0
 3248              		@ sp needed
 3249 0010 10BD     		pop	{r4, pc}
ARM GAS  C:\Users\Asus\AppData\Local\Temp\cc7ymLuX.s 			page 78


 3250              	.L264:
 3251 0012 C046     		.align	2
 3252              	.L263:
 3253 0014 00000000 		.word	devAddr
 3254              		.cfi_endproc
 3255              	.LFE82:
 3256              		.size	MPU6050_setSlave4Enabled, .-MPU6050_setSlave4Enabled
 3257              		.section	.text.MPU6050_getSlave4InterruptEnabled,"ax",%progbits
 3258              		.align	2
 3259              		.global	MPU6050_getSlave4InterruptEnabled
 3260              		.code	16
 3261              		.thumb_func
 3262              		.type	MPU6050_getSlave4InterruptEnabled, %function
 3263              	MPU6050_getSlave4InterruptEnabled:
 3264              	.LFB83:
1134:mpu6050.c     **** /** Get the enabled value for Slave 4 transaction interrupts.
1135:mpu6050.c     ****  * When set to 1, this bit enables the generation of an interrupt signal upon
1136:mpu6050.c     ****  * completion of a Slave 4 transaction. When cleared to 0, this bit disables the
1137:mpu6050.c     ****  * generation of an interrupt signal upon completion of a Slave 4 transaction.
1138:mpu6050.c     ****  * The interrupt status can be observed in Register 54.
1139:mpu6050.c     ****  *
1140:mpu6050.c     ****  * @return Current enabled value for Slave 4 transaction interrupts.
1141:mpu6050.c     ****  * @see MPU6050_RA_I2C_SLV4_CTRL
1142:mpu6050.c     ****  */
1143:mpu6050.c     **** bool MPU6050_getSlave4InterruptEnabled() {
 3265              		.loc 1 1143 0
 3266              		.cfi_startproc
 3267              		@ args = 0, pretend = 0, frame = 0
 3268              		@ frame_needed = 0, uses_anonymous_args = 0
 3269 0000 10B5     		push	{r4, lr}
 3270              		.cfi_def_cfa_offset 8
 3271              		.cfi_offset 4, -8
 3272              		.cfi_offset 14, -4
1144:mpu6050.c     ****     I2CReadBit(devAddr, MPU6050_RA_I2C_SLV4_CTRL, I2C_MPU6050_I2C_SLV4_INT_EN_BIT, buffer);
 3273              		.loc 1 1144 0
 3274 0002 064C     		ldr	r4, .L266
 3275 0004 064B     		ldr	r3, .L266+4
 3276 0006 1878     		ldrb	r0, [r3]
 3277 0008 2300     		movs	r3, r4
 3278 000a 0622     		movs	r2, #6
 3279 000c 3421     		movs	r1, #52
 3280 000e FFF7FEFF 		bl	I2CReadBit
 3281              	.LVL195:
1145:mpu6050.c     ****     return buffer[0];
 3282              		.loc 1 1145 0
 3283 0012 2078     		ldrb	r0, [r4]
 3284 0014 431E     		subs	r3, r0, #1
 3285 0016 9841     		sbcs	r0, r0, r3
 3286 0018 C0B2     		uxtb	r0, r0
1146:mpu6050.c     **** }
 3287              		.loc 1 1146 0
 3288              		@ sp needed
 3289 001a 10BD     		pop	{r4, pc}
 3290              	.L267:
 3291              		.align	2
 3292              	.L266:
 3293 001c 00000000 		.word	buffer
ARM GAS  C:\Users\Asus\AppData\Local\Temp\cc7ymLuX.s 			page 79


 3294 0020 00000000 		.word	devAddr
 3295              		.cfi_endproc
 3296              	.LFE83:
 3297              		.size	MPU6050_getSlave4InterruptEnabled, .-MPU6050_getSlave4InterruptEnabled
 3298              		.section	.text.MPU6050_setSlave4InterruptEnabled,"ax",%progbits
 3299              		.align	2
 3300              		.global	MPU6050_setSlave4InterruptEnabled
 3301              		.code	16
 3302              		.thumb_func
 3303              		.type	MPU6050_setSlave4InterruptEnabled, %function
 3304              	MPU6050_setSlave4InterruptEnabled:
 3305              	.LFB84:
1147:mpu6050.c     **** /** Set the enabled value for Slave 4 transaction interrupts.
1148:mpu6050.c     ****  * @param enabled New enabled value for Slave 4 transaction interrupts.
1149:mpu6050.c     ****  * @see getSlave4InterruptEnabled()
1150:mpu6050.c     ****  * @see MPU6050_RA_I2C_SLV4_CTRL
1151:mpu6050.c     ****  */
1152:mpu6050.c     **** void MPU6050_setSlave4InterruptEnabled(bool enabled) {
 3306              		.loc 1 1152 0
 3307              		.cfi_startproc
 3308              		@ args = 0, pretend = 0, frame = 0
 3309              		@ frame_needed = 0, uses_anonymous_args = 0
 3310              	.LVL196:
 3311 0000 10B5     		push	{r4, lr}
 3312              		.cfi_def_cfa_offset 8
 3313              		.cfi_offset 4, -8
 3314              		.cfi_offset 14, -4
 3315 0002 0300     		movs	r3, r0
1153:mpu6050.c     ****     I2CWriteBit(devAddr, MPU6050_RA_I2C_SLV4_CTRL, I2C_MPU6050_I2C_SLV4_INT_EN_BIT, enabled);
 3316              		.loc 1 1153 0
 3317 0004 034A     		ldr	r2, .L269
 3318 0006 1078     		ldrb	r0, [r2]
 3319              	.LVL197:
 3320 0008 0622     		movs	r2, #6
 3321 000a 3421     		movs	r1, #52
 3322 000c FFF7FEFF 		bl	I2CWriteBit
 3323              	.LVL198:
1154:mpu6050.c     **** }
 3324              		.loc 1 1154 0
 3325              		@ sp needed
 3326 0010 10BD     		pop	{r4, pc}
 3327              	.L270:
 3328 0012 C046     		.align	2
 3329              	.L269:
 3330 0014 00000000 		.word	devAddr
 3331              		.cfi_endproc
 3332              	.LFE84:
 3333              		.size	MPU6050_setSlave4InterruptEnabled, .-MPU6050_setSlave4InterruptEnabled
 3334              		.section	.text.MPU6050_getSlave4WriteMode,"ax",%progbits
 3335              		.align	2
 3336              		.global	MPU6050_getSlave4WriteMode
 3337              		.code	16
 3338              		.thumb_func
 3339              		.type	MPU6050_getSlave4WriteMode, %function
 3340              	MPU6050_getSlave4WriteMode:
 3341              	.LFB85:
1155:mpu6050.c     **** /** Get write mode for Slave 4.
ARM GAS  C:\Users\Asus\AppData\Local\Temp\cc7ymLuX.s 			page 80


1156:mpu6050.c     ****  * When set to 1, the transaction will read or write data only. When cleared to
1157:mpu6050.c     ****  * 0, the transaction will write a register address prior to reading or writing
1158:mpu6050.c     ****  * data. This should equal 0 when specifying the register address within the
1159:mpu6050.c     ****  * Slave device to/from which the ensuing data transaction will take place.
1160:mpu6050.c     ****  *
1161:mpu6050.c     ****  * @return Current write mode for Slave 4 (0 = register address + data, 1 = data only)
1162:mpu6050.c     ****  * @see MPU6050_RA_I2C_SLV4_CTRL
1163:mpu6050.c     ****  */
1164:mpu6050.c     **** bool MPU6050_getSlave4WriteMode() {
 3342              		.loc 1 1164 0
 3343              		.cfi_startproc
 3344              		@ args = 0, pretend = 0, frame = 0
 3345              		@ frame_needed = 0, uses_anonymous_args = 0
 3346 0000 10B5     		push	{r4, lr}
 3347              		.cfi_def_cfa_offset 8
 3348              		.cfi_offset 4, -8
 3349              		.cfi_offset 14, -4
1165:mpu6050.c     ****     I2CReadBit(devAddr, MPU6050_RA_I2C_SLV4_CTRL, I2C_MPU6050_I2C_SLV4_REG_DIS_BIT, buffer);
 3350              		.loc 1 1165 0
 3351 0002 064C     		ldr	r4, .L272
 3352 0004 064B     		ldr	r3, .L272+4
 3353 0006 1878     		ldrb	r0, [r3]
 3354 0008 2300     		movs	r3, r4
 3355 000a 0522     		movs	r2, #5
 3356 000c 3421     		movs	r1, #52
 3357 000e FFF7FEFF 		bl	I2CReadBit
 3358              	.LVL199:
1166:mpu6050.c     ****     return buffer[0];
 3359              		.loc 1 1166 0
 3360 0012 2078     		ldrb	r0, [r4]
 3361 0014 431E     		subs	r3, r0, #1
 3362 0016 9841     		sbcs	r0, r0, r3
 3363 0018 C0B2     		uxtb	r0, r0
1167:mpu6050.c     **** }
 3364              		.loc 1 1167 0
 3365              		@ sp needed
 3366 001a 10BD     		pop	{r4, pc}
 3367              	.L273:
 3368              		.align	2
 3369              	.L272:
 3370 001c 00000000 		.word	buffer
 3371 0020 00000000 		.word	devAddr
 3372              		.cfi_endproc
 3373              	.LFE85:
 3374              		.size	MPU6050_getSlave4WriteMode, .-MPU6050_getSlave4WriteMode
 3375              		.section	.text.MPU6050_setSlave4WriteMode,"ax",%progbits
 3376              		.align	2
 3377              		.global	MPU6050_setSlave4WriteMode
 3378              		.code	16
 3379              		.thumb_func
 3380              		.type	MPU6050_setSlave4WriteMode, %function
 3381              	MPU6050_setSlave4WriteMode:
 3382              	.LFB86:
1168:mpu6050.c     **** /** Set write mode for the Slave 4.
1169:mpu6050.c     ****  * @param mode New write mode for Slave 4 (0 = register address + data, 1 = data only)
1170:mpu6050.c     ****  * @see getSlave4WriteMode()
1171:mpu6050.c     ****  * @see MPU6050_RA_I2C_SLV4_CTRL
ARM GAS  C:\Users\Asus\AppData\Local\Temp\cc7ymLuX.s 			page 81


1172:mpu6050.c     ****  */
1173:mpu6050.c     **** void MPU6050_setSlave4WriteMode(bool mode) {
 3383              		.loc 1 1173 0
 3384              		.cfi_startproc
 3385              		@ args = 0, pretend = 0, frame = 0
 3386              		@ frame_needed = 0, uses_anonymous_args = 0
 3387              	.LVL200:
 3388 0000 10B5     		push	{r4, lr}
 3389              		.cfi_def_cfa_offset 8
 3390              		.cfi_offset 4, -8
 3391              		.cfi_offset 14, -4
 3392 0002 0300     		movs	r3, r0
1174:mpu6050.c     ****     I2CWriteBit(devAddr, MPU6050_RA_I2C_SLV4_CTRL, I2C_MPU6050_I2C_SLV4_REG_DIS_BIT, mode);
 3393              		.loc 1 1174 0
 3394 0004 034A     		ldr	r2, .L275
 3395 0006 1078     		ldrb	r0, [r2]
 3396              	.LVL201:
 3397 0008 0522     		movs	r2, #5
 3398 000a 3421     		movs	r1, #52
 3399 000c FFF7FEFF 		bl	I2CWriteBit
 3400              	.LVL202:
1175:mpu6050.c     **** }
 3401              		.loc 1 1175 0
 3402              		@ sp needed
 3403 0010 10BD     		pop	{r4, pc}
 3404              	.L276:
 3405 0012 C046     		.align	2
 3406              	.L275:
 3407 0014 00000000 		.word	devAddr
 3408              		.cfi_endproc
 3409              	.LFE86:
 3410              		.size	MPU6050_setSlave4WriteMode, .-MPU6050_setSlave4WriteMode
 3411              		.section	.text.MPU6050_getSlave4MasterDelay,"ax",%progbits
 3412              		.align	2
 3413              		.global	MPU6050_getSlave4MasterDelay
 3414              		.code	16
 3415              		.thumb_func
 3416              		.type	MPU6050_getSlave4MasterDelay, %function
 3417              	MPU6050_getSlave4MasterDelay:
 3418              	.LFB87:
1176:mpu6050.c     **** /** Get Slave 4 master delay value.
1177:mpu6050.c     ****  * This configures the reduced access rate of I2C slaves relative to the Sample
1178:mpu6050.c     ****  * Rate. When a slave's access rate is decreased relative to the Sample Rate,
1179:mpu6050.c     ****  * the slave is accessed every:
1180:mpu6050.c     ****  *
1181:mpu6050.c     ****  *     1 / (1 + I2C_MST_DLY) samples
1182:mpu6050.c     ****  *
1183:mpu6050.c     ****  * This base Sample Rate in turn is determined by SMPLRT_DIV (register 25) and
1184:mpu6050.c     ****  * DLPF_CFG (register 26). Whether a slave's access rate is reduced relative to
1185:mpu6050.c     ****  * the Sample Rate is determined by I2C_MST_DELAY_CTRL (register 103). For
1186:mpu6050.c     ****  * further information regarding the Sample Rate, please refer to register 25.
1187:mpu6050.c     ****  *
1188:mpu6050.c     ****  * @return Current Slave 4 master delay value
1189:mpu6050.c     ****  * @see MPU6050_RA_I2C_SLV4_CTRL
1190:mpu6050.c     ****  */
1191:mpu6050.c     **** uint8_t MPU6050_getSlave4MasterDelay() {
 3419              		.loc 1 1191 0
ARM GAS  C:\Users\Asus\AppData\Local\Temp\cc7ymLuX.s 			page 82


 3420              		.cfi_startproc
 3421              		@ args = 0, pretend = 0, frame = 0
 3422              		@ frame_needed = 0, uses_anonymous_args = 0
 3423 0000 10B5     		push	{r4, lr}
 3424              		.cfi_def_cfa_offset 8
 3425              		.cfi_offset 4, -8
 3426              		.cfi_offset 14, -4
 3427 0002 82B0     		sub	sp, sp, #8
 3428              		.cfi_def_cfa_offset 16
1192:mpu6050.c     ****     I2CReadBits(devAddr, MPU6050_RA_I2C_SLV4_CTRL, I2C_MPU6050_I2C_SLV4_MST_DLY_BIT, I2C_MPU6050_I2
 3429              		.loc 1 1192 0
 3430 0004 054B     		ldr	r3, .L278
 3431 0006 1878     		ldrb	r0, [r3]
 3432 0008 054C     		ldr	r4, .L278+4
 3433 000a 0094     		str	r4, [sp]
 3434 000c 0523     		movs	r3, #5
 3435 000e 0422     		movs	r2, #4
 3436 0010 3421     		movs	r1, #52
 3437 0012 FFF7FEFF 		bl	I2CReadBits
 3438              	.LVL203:
1193:mpu6050.c     ****     return buffer[0];
 3439              		.loc 1 1193 0
 3440 0016 2078     		ldrb	r0, [r4]
1194:mpu6050.c     **** }
 3441              		.loc 1 1194 0
 3442 0018 02B0     		add	sp, sp, #8
 3443              		@ sp needed
 3444 001a 10BD     		pop	{r4, pc}
 3445              	.L279:
 3446              		.align	2
 3447              	.L278:
 3448 001c 00000000 		.word	devAddr
 3449 0020 00000000 		.word	buffer
 3450              		.cfi_endproc
 3451              	.LFE87:
 3452              		.size	MPU6050_getSlave4MasterDelay, .-MPU6050_getSlave4MasterDelay
 3453              		.section	.text.MPU6050_setSlave4MasterDelay,"ax",%progbits
 3454              		.align	2
 3455              		.global	MPU6050_setSlave4MasterDelay
 3456              		.code	16
 3457              		.thumb_func
 3458              		.type	MPU6050_setSlave4MasterDelay, %function
 3459              	MPU6050_setSlave4MasterDelay:
 3460              	.LFB88:
1195:mpu6050.c     **** /** Set Slave 4 master delay value.
1196:mpu6050.c     ****  * @param delay New Slave 4 master delay value
1197:mpu6050.c     ****  * @see getSlave4MasterDelay()
1198:mpu6050.c     ****  * @see MPU6050_RA_I2C_SLV4_CTRL
1199:mpu6050.c     ****  */
1200:mpu6050.c     **** void MPU6050_setSlave4MasterDelay(uint8_t delay) {
 3461              		.loc 1 1200 0
 3462              		.cfi_startproc
 3463              		@ args = 0, pretend = 0, frame = 0
 3464              		@ frame_needed = 0, uses_anonymous_args = 0
 3465              	.LVL204:
 3466 0000 00B5     		push	{lr}
 3467              		.cfi_def_cfa_offset 4
ARM GAS  C:\Users\Asus\AppData\Local\Temp\cc7ymLuX.s 			page 83


 3468              		.cfi_offset 14, -4
 3469 0002 83B0     		sub	sp, sp, #12
 3470              		.cfi_def_cfa_offset 16
 3471 0004 0300     		movs	r3, r0
1201:mpu6050.c     ****     I2CWriteBits(devAddr, MPU6050_RA_I2C_SLV4_CTRL, I2C_MPU6050_I2C_SLV4_MST_DLY_BIT, I2C_MPU6050_I
 3472              		.loc 1 1201 0
 3473 0006 054A     		ldr	r2, .L281
 3474 0008 1078     		ldrb	r0, [r2]
 3475              	.LVL205:
 3476 000a 0093     		str	r3, [sp]
 3477 000c 0523     		movs	r3, #5
 3478 000e 0422     		movs	r2, #4
 3479 0010 3421     		movs	r1, #52
 3480 0012 FFF7FEFF 		bl	I2CWriteBits
 3481              	.LVL206:
1202:mpu6050.c     **** }
 3482              		.loc 1 1202 0
 3483 0016 03B0     		add	sp, sp, #12
 3484              		@ sp needed
 3485 0018 00BD     		pop	{pc}
 3486              	.L282:
 3487 001a C046     		.align	2
 3488              	.L281:
 3489 001c 00000000 		.word	devAddr
 3490              		.cfi_endproc
 3491              	.LFE88:
 3492              		.size	MPU6050_setSlave4MasterDelay, .-MPU6050_setSlave4MasterDelay
 3493              		.section	.text.MPU6050_getSlate4InputByte,"ax",%progbits
 3494              		.align	2
 3495              		.global	MPU6050_getSlate4InputByte
 3496              		.code	16
 3497              		.thumb_func
 3498              		.type	MPU6050_getSlate4InputByte, %function
 3499              	MPU6050_getSlate4InputByte:
 3500              	.LFB89:
1203:mpu6050.c     **** /** Get last available byte read from Slave 4.
1204:mpu6050.c     ****  * This register stores the data read from Slave 4. This field is populated
1205:mpu6050.c     ****  * after a read transaction.
1206:mpu6050.c     ****  * @return Last available byte read from to Slave 4
1207:mpu6050.c     ****  * @see MPU6050_RA_I2C_SLV4_DI
1208:mpu6050.c     ****  */
1209:mpu6050.c     **** uint8_t MPU6050_getSlate4InputByte() {
 3501              		.loc 1 1209 0
 3502              		.cfi_startproc
 3503              		@ args = 0, pretend = 0, frame = 0
 3504              		@ frame_needed = 0, uses_anonymous_args = 0
 3505 0000 10B5     		push	{r4, lr}
 3506              		.cfi_def_cfa_offset 8
 3507              		.cfi_offset 4, -8
 3508              		.cfi_offset 14, -4
1210:mpu6050.c     ****     I2CReadByte(devAddr, MPU6050_RA_I2C_SLV4_DI, buffer);
 3509              		.loc 1 1210 0
 3510 0002 044C     		ldr	r4, .L284
 3511 0004 044B     		ldr	r3, .L284+4
 3512 0006 1878     		ldrb	r0, [r3]
 3513 0008 2200     		movs	r2, r4
 3514 000a 3521     		movs	r1, #53
ARM GAS  C:\Users\Asus\AppData\Local\Temp\cc7ymLuX.s 			page 84


 3515 000c FFF7FEFF 		bl	I2CReadByte
 3516              	.LVL207:
1211:mpu6050.c     ****     return buffer[0];
 3517              		.loc 1 1211 0
 3518 0010 2078     		ldrb	r0, [r4]
1212:mpu6050.c     **** }
 3519              		.loc 1 1212 0
 3520              		@ sp needed
 3521 0012 10BD     		pop	{r4, pc}
 3522              	.L285:
 3523              		.align	2
 3524              	.L284:
 3525 0014 00000000 		.word	buffer
 3526 0018 00000000 		.word	devAddr
 3527              		.cfi_endproc
 3528              	.LFE89:
 3529              		.size	MPU6050_getSlate4InputByte, .-MPU6050_getSlate4InputByte
 3530              		.section	.text.MPU6050_getPassthroughStatus,"ax",%progbits
 3531              		.align	2
 3532              		.global	MPU6050_getPassthroughStatus
 3533              		.code	16
 3534              		.thumb_func
 3535              		.type	MPU6050_getPassthroughStatus, %function
 3536              	MPU6050_getPassthroughStatus:
 3537              	.LFB90:
1213:mpu6050.c     **** 
1214:mpu6050.c     **** // I2C_MST_STATUS register
1215:mpu6050.c     **** 
1216:mpu6050.c     **** /** Get FSYNC interrupt status.
1217:mpu6050.c     ****  * This bit reflects the status of the FSYNC interrupt from an external device
1218:mpu6050.c     ****  * into the MPU-60X0. This is used as a way to pass an external interrupt
1219:mpu6050.c     ****  * through the MPU-60X0 to the host application processor. When set to 1, this
1220:mpu6050.c     ****  * bit will cause an interrupt if FSYNC_INT_EN is asserted in INT_PIN_CFG
1221:mpu6050.c     ****  * (Register 55).
1222:mpu6050.c     ****  * @return FSYNC interrupt status
1223:mpu6050.c     ****  * @see MPU6050_RA_I2C_MST_STATUS
1224:mpu6050.c     ****  */
1225:mpu6050.c     **** bool MPU6050_getPassthroughStatus() {
 3538              		.loc 1 1225 0
 3539              		.cfi_startproc
 3540              		@ args = 0, pretend = 0, frame = 0
 3541              		@ frame_needed = 0, uses_anonymous_args = 0
 3542 0000 10B5     		push	{r4, lr}
 3543              		.cfi_def_cfa_offset 8
 3544              		.cfi_offset 4, -8
 3545              		.cfi_offset 14, -4
1226:mpu6050.c     ****     I2CReadBit(devAddr, MPU6050_RA_I2C_MST_STATUS, MPU6050_MST_PASS_THROUGH_BIT, buffer);
 3546              		.loc 1 1226 0
 3547 0002 064C     		ldr	r4, .L287
 3548 0004 064B     		ldr	r3, .L287+4
 3549 0006 1878     		ldrb	r0, [r3]
 3550 0008 2300     		movs	r3, r4
 3551 000a 0722     		movs	r2, #7
 3552 000c 3621     		movs	r1, #54
 3553 000e FFF7FEFF 		bl	I2CReadBit
 3554              	.LVL208:
1227:mpu6050.c     ****     return buffer[0];
ARM GAS  C:\Users\Asus\AppData\Local\Temp\cc7ymLuX.s 			page 85


 3555              		.loc 1 1227 0
 3556 0012 2078     		ldrb	r0, [r4]
 3557 0014 431E     		subs	r3, r0, #1
 3558 0016 9841     		sbcs	r0, r0, r3
 3559 0018 C0B2     		uxtb	r0, r0
1228:mpu6050.c     **** }
 3560              		.loc 1 1228 0
 3561              		@ sp needed
 3562 001a 10BD     		pop	{r4, pc}
 3563              	.L288:
 3564              		.align	2
 3565              	.L287:
 3566 001c 00000000 		.word	buffer
 3567 0020 00000000 		.word	devAddr
 3568              		.cfi_endproc
 3569              	.LFE90:
 3570              		.size	MPU6050_getPassthroughStatus, .-MPU6050_getPassthroughStatus
 3571              		.section	.text.MPU6050_getSlave4IsDone,"ax",%progbits
 3572              		.align	2
 3573              		.global	MPU6050_getSlave4IsDone
 3574              		.code	16
 3575              		.thumb_func
 3576              		.type	MPU6050_getSlave4IsDone, %function
 3577              	MPU6050_getSlave4IsDone:
 3578              	.LFB91:
1229:mpu6050.c     **** /** Get Slave 4 transaction done status.
1230:mpu6050.c     ****  * Automatically sets to 1 when a Slave 4 transaction has completed. This
1231:mpu6050.c     ****  * triggers an interrupt if the I2C_MST_INT_EN bit in the INT_ENABLE register
1232:mpu6050.c     ****  * (Register 56) is asserted and if the SLV_4_DONE_INT bit is asserted in the
1233:mpu6050.c     ****  * I2C_SLV4_CTRL register (Register 52).
1234:mpu6050.c     ****  * @return Slave 4 transaction done status
1235:mpu6050.c     ****  * @see MPU6050_RA_I2C_MST_STATUS
1236:mpu6050.c     ****  */
1237:mpu6050.c     **** bool MPU6050_getSlave4IsDone() {
 3579              		.loc 1 1237 0
 3580              		.cfi_startproc
 3581              		@ args = 0, pretend = 0, frame = 0
 3582              		@ frame_needed = 0, uses_anonymous_args = 0
 3583 0000 10B5     		push	{r4, lr}
 3584              		.cfi_def_cfa_offset 8
 3585              		.cfi_offset 4, -8
 3586              		.cfi_offset 14, -4
1238:mpu6050.c     ****     I2CReadBit(devAddr, MPU6050_RA_I2C_MST_STATUS, MPU6050_MST_I2C_SLV4_DONE_BIT, buffer);
 3587              		.loc 1 1238 0
 3588 0002 064C     		ldr	r4, .L290
 3589 0004 064B     		ldr	r3, .L290+4
 3590 0006 1878     		ldrb	r0, [r3]
 3591 0008 2300     		movs	r3, r4
 3592 000a 0622     		movs	r2, #6
 3593 000c 3621     		movs	r1, #54
 3594 000e FFF7FEFF 		bl	I2CReadBit
 3595              	.LVL209:
1239:mpu6050.c     ****     return buffer[0];
 3596              		.loc 1 1239 0
 3597 0012 2078     		ldrb	r0, [r4]
 3598 0014 431E     		subs	r3, r0, #1
 3599 0016 9841     		sbcs	r0, r0, r3
ARM GAS  C:\Users\Asus\AppData\Local\Temp\cc7ymLuX.s 			page 86


 3600 0018 C0B2     		uxtb	r0, r0
1240:mpu6050.c     **** }
 3601              		.loc 1 1240 0
 3602              		@ sp needed
 3603 001a 10BD     		pop	{r4, pc}
 3604              	.L291:
 3605              		.align	2
 3606              	.L290:
 3607 001c 00000000 		.word	buffer
 3608 0020 00000000 		.word	devAddr
 3609              		.cfi_endproc
 3610              	.LFE91:
 3611              		.size	MPU6050_getSlave4IsDone, .-MPU6050_getSlave4IsDone
 3612              		.section	.text.MPU6050_getLostArbitration,"ax",%progbits
 3613              		.align	2
 3614              		.global	MPU6050_getLostArbitration
 3615              		.code	16
 3616              		.thumb_func
 3617              		.type	MPU6050_getLostArbitration, %function
 3618              	MPU6050_getLostArbitration:
 3619              	.LFB92:
1241:mpu6050.c     **** /** Get master arbitration lost status.
1242:mpu6050.c     ****  * This bit automatically sets to 1 when the I2C Master has lost arbitration of
1243:mpu6050.c     ****  * the auxiliary I2C bus (an error condition). This triggers an interrupt if the
1244:mpu6050.c     ****  * I2C_MST_INT_EN bit in the INT_ENABLE register (Register 56) is asserted.
1245:mpu6050.c     ****  * @return Master arbitration lost status
1246:mpu6050.c     ****  * @see MPU6050_RA_I2C_MST_STATUS
1247:mpu6050.c     ****  */
1248:mpu6050.c     **** bool MPU6050_getLostArbitration() {
 3620              		.loc 1 1248 0
 3621              		.cfi_startproc
 3622              		@ args = 0, pretend = 0, frame = 0
 3623              		@ frame_needed = 0, uses_anonymous_args = 0
 3624 0000 10B5     		push	{r4, lr}
 3625              		.cfi_def_cfa_offset 8
 3626              		.cfi_offset 4, -8
 3627              		.cfi_offset 14, -4
1249:mpu6050.c     ****     I2CReadBit(devAddr, MPU6050_RA_I2C_MST_STATUS, MPU6050_MST_I2C_LOST_ARB_BIT, buffer);
 3628              		.loc 1 1249 0
 3629 0002 064C     		ldr	r4, .L293
 3630 0004 064B     		ldr	r3, .L293+4
 3631 0006 1878     		ldrb	r0, [r3]
 3632 0008 2300     		movs	r3, r4
 3633 000a 0522     		movs	r2, #5
 3634 000c 3621     		movs	r1, #54
 3635 000e FFF7FEFF 		bl	I2CReadBit
 3636              	.LVL210:
1250:mpu6050.c     ****     return buffer[0];
 3637              		.loc 1 1250 0
 3638 0012 2078     		ldrb	r0, [r4]
 3639 0014 431E     		subs	r3, r0, #1
 3640 0016 9841     		sbcs	r0, r0, r3
 3641 0018 C0B2     		uxtb	r0, r0
1251:mpu6050.c     **** }
 3642              		.loc 1 1251 0
 3643              		@ sp needed
 3644 001a 10BD     		pop	{r4, pc}
ARM GAS  C:\Users\Asus\AppData\Local\Temp\cc7ymLuX.s 			page 87


 3645              	.L294:
 3646              		.align	2
 3647              	.L293:
 3648 001c 00000000 		.word	buffer
 3649 0020 00000000 		.word	devAddr
 3650              		.cfi_endproc
 3651              	.LFE92:
 3652              		.size	MPU6050_getLostArbitration, .-MPU6050_getLostArbitration
 3653              		.section	.text.MPU6050_getSlave4Nack,"ax",%progbits
 3654              		.align	2
 3655              		.global	MPU6050_getSlave4Nack
 3656              		.code	16
 3657              		.thumb_func
 3658              		.type	MPU6050_getSlave4Nack, %function
 3659              	MPU6050_getSlave4Nack:
 3660              	.LFB93:
1252:mpu6050.c     **** /** Get Slave 4 NACK status.
1253:mpu6050.c     ****  * This bit automatically sets to 1 when the I2C Master receives a NACK in a
1254:mpu6050.c     ****  * transaction with Slave 4. This triggers an interrupt if the I2C_MST_INT_EN
1255:mpu6050.c     ****  * bit in the INT_ENABLE register (Register 56) is asserted.
1256:mpu6050.c     ****  * @return Slave 4 NACK interrupt status
1257:mpu6050.c     ****  * @see MPU6050_RA_I2C_MST_STATUS
1258:mpu6050.c     ****  */
1259:mpu6050.c     **** bool MPU6050_getSlave4Nack() {
 3661              		.loc 1 1259 0
 3662              		.cfi_startproc
 3663              		@ args = 0, pretend = 0, frame = 0
 3664              		@ frame_needed = 0, uses_anonymous_args = 0
 3665 0000 10B5     		push	{r4, lr}
 3666              		.cfi_def_cfa_offset 8
 3667              		.cfi_offset 4, -8
 3668              		.cfi_offset 14, -4
1260:mpu6050.c     ****     I2CReadBit(devAddr, MPU6050_RA_I2C_MST_STATUS, MPU6050_MST_I2C_SLV4_NACK_BIT, buffer);
 3669              		.loc 1 1260 0
 3670 0002 064C     		ldr	r4, .L296
 3671 0004 064B     		ldr	r3, .L296+4
 3672 0006 1878     		ldrb	r0, [r3]
 3673 0008 2300     		movs	r3, r4
 3674 000a 0422     		movs	r2, #4
 3675 000c 3621     		movs	r1, #54
 3676 000e FFF7FEFF 		bl	I2CReadBit
 3677              	.LVL211:
1261:mpu6050.c     ****     return buffer[0];
 3678              		.loc 1 1261 0
 3679 0012 2078     		ldrb	r0, [r4]
 3680 0014 431E     		subs	r3, r0, #1
 3681 0016 9841     		sbcs	r0, r0, r3
 3682 0018 C0B2     		uxtb	r0, r0
1262:mpu6050.c     **** }
 3683              		.loc 1 1262 0
 3684              		@ sp needed
 3685 001a 10BD     		pop	{r4, pc}
 3686              	.L297:
 3687              		.align	2
 3688              	.L296:
 3689 001c 00000000 		.word	buffer
 3690 0020 00000000 		.word	devAddr
ARM GAS  C:\Users\Asus\AppData\Local\Temp\cc7ymLuX.s 			page 88


 3691              		.cfi_endproc
 3692              	.LFE93:
 3693              		.size	MPU6050_getSlave4Nack, .-MPU6050_getSlave4Nack
 3694              		.section	.text.MPU6050_getSlave3Nack,"ax",%progbits
 3695              		.align	2
 3696              		.global	MPU6050_getSlave3Nack
 3697              		.code	16
 3698              		.thumb_func
 3699              		.type	MPU6050_getSlave3Nack, %function
 3700              	MPU6050_getSlave3Nack:
 3701              	.LFB94:
1263:mpu6050.c     **** /** Get Slave 3 NACK status.
1264:mpu6050.c     ****  * This bit automatically sets to 1 when the I2C Master receives a NACK in a
1265:mpu6050.c     ****  * transaction with Slave 3. This triggers an interrupt if the I2C_MST_INT_EN
1266:mpu6050.c     ****  * bit in the INT_ENABLE register (Register 56) is asserted.
1267:mpu6050.c     ****  * @return Slave 3 NACK interrupt status
1268:mpu6050.c     ****  * @see MPU6050_RA_I2C_MST_STATUS
1269:mpu6050.c     ****  */
1270:mpu6050.c     **** bool MPU6050_getSlave3Nack() {
 3702              		.loc 1 1270 0
 3703              		.cfi_startproc
 3704              		@ args = 0, pretend = 0, frame = 0
 3705              		@ frame_needed = 0, uses_anonymous_args = 0
 3706 0000 10B5     		push	{r4, lr}
 3707              		.cfi_def_cfa_offset 8
 3708              		.cfi_offset 4, -8
 3709              		.cfi_offset 14, -4
1271:mpu6050.c     ****     I2CReadBit(devAddr, MPU6050_RA_I2C_MST_STATUS, MPU6050_MST_I2C_SLV3_NACK_BIT, buffer);
 3710              		.loc 1 1271 0
 3711 0002 064C     		ldr	r4, .L299
 3712 0004 064B     		ldr	r3, .L299+4
 3713 0006 1878     		ldrb	r0, [r3]
 3714 0008 2300     		movs	r3, r4
 3715 000a 0322     		movs	r2, #3
 3716 000c 3621     		movs	r1, #54
 3717 000e FFF7FEFF 		bl	I2CReadBit
 3718              	.LVL212:
1272:mpu6050.c     ****     return buffer[0];
 3719              		.loc 1 1272 0
 3720 0012 2078     		ldrb	r0, [r4]
 3721 0014 431E     		subs	r3, r0, #1
 3722 0016 9841     		sbcs	r0, r0, r3
 3723 0018 C0B2     		uxtb	r0, r0
1273:mpu6050.c     **** }
 3724              		.loc 1 1273 0
 3725              		@ sp needed
 3726 001a 10BD     		pop	{r4, pc}
 3727              	.L300:
 3728              		.align	2
 3729              	.L299:
 3730 001c 00000000 		.word	buffer
 3731 0020 00000000 		.word	devAddr
 3732              		.cfi_endproc
 3733              	.LFE94:
 3734              		.size	MPU6050_getSlave3Nack, .-MPU6050_getSlave3Nack
 3735              		.section	.text.MPU6050_getSlave2Nack,"ax",%progbits
 3736              		.align	2
ARM GAS  C:\Users\Asus\AppData\Local\Temp\cc7ymLuX.s 			page 89


 3737              		.global	MPU6050_getSlave2Nack
 3738              		.code	16
 3739              		.thumb_func
 3740              		.type	MPU6050_getSlave2Nack, %function
 3741              	MPU6050_getSlave2Nack:
 3742              	.LFB95:
1274:mpu6050.c     **** /** Get Slave 2 NACK status.
1275:mpu6050.c     ****  * This bit automatically sets to 1 when the I2C Master receives a NACK in a
1276:mpu6050.c     ****  * transaction with Slave 2. This triggers an interrupt if the I2C_MST_INT_EN
1277:mpu6050.c     ****  * bit in the INT_ENABLE register (Register 56) is asserted.
1278:mpu6050.c     ****  * @return Slave 2 NACK interrupt status
1279:mpu6050.c     ****  * @see MPU6050_RA_I2C_MST_STATUS
1280:mpu6050.c     ****  */
1281:mpu6050.c     **** bool MPU6050_getSlave2Nack() {
 3743              		.loc 1 1281 0
 3744              		.cfi_startproc
 3745              		@ args = 0, pretend = 0, frame = 0
 3746              		@ frame_needed = 0, uses_anonymous_args = 0
 3747 0000 10B5     		push	{r4, lr}
 3748              		.cfi_def_cfa_offset 8
 3749              		.cfi_offset 4, -8
 3750              		.cfi_offset 14, -4
1282:mpu6050.c     ****     I2CReadBit(devAddr, MPU6050_RA_I2C_MST_STATUS, MPU6050_MST_I2C_SLV2_NACK_BIT, buffer);
 3751              		.loc 1 1282 0
 3752 0002 064C     		ldr	r4, .L302
 3753 0004 064B     		ldr	r3, .L302+4
 3754 0006 1878     		ldrb	r0, [r3]
 3755 0008 2300     		movs	r3, r4
 3756 000a 0222     		movs	r2, #2
 3757 000c 3621     		movs	r1, #54
 3758 000e FFF7FEFF 		bl	I2CReadBit
 3759              	.LVL213:
1283:mpu6050.c     ****     return buffer[0];
 3760              		.loc 1 1283 0
 3761 0012 2078     		ldrb	r0, [r4]
 3762 0014 431E     		subs	r3, r0, #1
 3763 0016 9841     		sbcs	r0, r0, r3
 3764 0018 C0B2     		uxtb	r0, r0
1284:mpu6050.c     **** }
 3765              		.loc 1 1284 0
 3766              		@ sp needed
 3767 001a 10BD     		pop	{r4, pc}
 3768              	.L303:
 3769              		.align	2
 3770              	.L302:
 3771 001c 00000000 		.word	buffer
 3772 0020 00000000 		.word	devAddr
 3773              		.cfi_endproc
 3774              	.LFE95:
 3775              		.size	MPU6050_getSlave2Nack, .-MPU6050_getSlave2Nack
 3776              		.section	.text.MPU6050_getSlave1Nack,"ax",%progbits
 3777              		.align	2
 3778              		.global	MPU6050_getSlave1Nack
 3779              		.code	16
 3780              		.thumb_func
 3781              		.type	MPU6050_getSlave1Nack, %function
 3782              	MPU6050_getSlave1Nack:
ARM GAS  C:\Users\Asus\AppData\Local\Temp\cc7ymLuX.s 			page 90


 3783              	.LFB96:
1285:mpu6050.c     **** /** Get Slave 1 NACK status.
1286:mpu6050.c     ****  * This bit automatically sets to 1 when the I2C Master receives a NACK in a
1287:mpu6050.c     ****  * transaction with Slave 1. This triggers an interrupt if the I2C_MST_INT_EN
1288:mpu6050.c     ****  * bit in the INT_ENABLE register (Register 56) is asserted.
1289:mpu6050.c     ****  * @return Slave 1 NACK interrupt status
1290:mpu6050.c     ****  * @see MPU6050_RA_I2C_MST_STATUS
1291:mpu6050.c     ****  */
1292:mpu6050.c     **** bool MPU6050_getSlave1Nack() {
 3784              		.loc 1 1292 0
 3785              		.cfi_startproc
 3786              		@ args = 0, pretend = 0, frame = 0
 3787              		@ frame_needed = 0, uses_anonymous_args = 0
 3788 0000 10B5     		push	{r4, lr}
 3789              		.cfi_def_cfa_offset 8
 3790              		.cfi_offset 4, -8
 3791              		.cfi_offset 14, -4
1293:mpu6050.c     ****     I2CReadBit(devAddr, MPU6050_RA_I2C_MST_STATUS, MPU6050_MST_I2C_SLV1_NACK_BIT, buffer);
 3792              		.loc 1 1293 0
 3793 0002 064C     		ldr	r4, .L305
 3794 0004 064B     		ldr	r3, .L305+4
 3795 0006 1878     		ldrb	r0, [r3]
 3796 0008 2300     		movs	r3, r4
 3797 000a 0122     		movs	r2, #1
 3798 000c 3621     		movs	r1, #54
 3799 000e FFF7FEFF 		bl	I2CReadBit
 3800              	.LVL214:
1294:mpu6050.c     ****     return buffer[0];
 3801              		.loc 1 1294 0
 3802 0012 2078     		ldrb	r0, [r4]
 3803 0014 431E     		subs	r3, r0, #1
 3804 0016 9841     		sbcs	r0, r0, r3
 3805 0018 C0B2     		uxtb	r0, r0
1295:mpu6050.c     **** }
 3806              		.loc 1 1295 0
 3807              		@ sp needed
 3808 001a 10BD     		pop	{r4, pc}
 3809              	.L306:
 3810              		.align	2
 3811              	.L305:
 3812 001c 00000000 		.word	buffer
 3813 0020 00000000 		.word	devAddr
 3814              		.cfi_endproc
 3815              	.LFE96:
 3816              		.size	MPU6050_getSlave1Nack, .-MPU6050_getSlave1Nack
 3817              		.section	.text.MPU6050_getSlave0Nack,"ax",%progbits
 3818              		.align	2
 3819              		.global	MPU6050_getSlave0Nack
 3820              		.code	16
 3821              		.thumb_func
 3822              		.type	MPU6050_getSlave0Nack, %function
 3823              	MPU6050_getSlave0Nack:
 3824              	.LFB97:
1296:mpu6050.c     **** /** Get Slave 0 NACK status.
1297:mpu6050.c     ****  * This bit automatically sets to 1 when the I2C Master receives a NACK in a
1298:mpu6050.c     ****  * transaction with Slave 0. This triggers an interrupt if the I2C_MST_INT_EN
1299:mpu6050.c     ****  * bit in the INT_ENABLE register (Register 56) is asserted.
ARM GAS  C:\Users\Asus\AppData\Local\Temp\cc7ymLuX.s 			page 91


1300:mpu6050.c     ****  * @return Slave 0 NACK interrupt status
1301:mpu6050.c     ****  * @see MPU6050_RA_I2C_MST_STATUS
1302:mpu6050.c     ****  */
1303:mpu6050.c     **** bool MPU6050_getSlave0Nack() {
 3825              		.loc 1 1303 0
 3826              		.cfi_startproc
 3827              		@ args = 0, pretend = 0, frame = 0
 3828              		@ frame_needed = 0, uses_anonymous_args = 0
 3829 0000 10B5     		push	{r4, lr}
 3830              		.cfi_def_cfa_offset 8
 3831              		.cfi_offset 4, -8
 3832              		.cfi_offset 14, -4
1304:mpu6050.c     ****     I2CReadBit(devAddr, MPU6050_RA_I2C_MST_STATUS, MPU6050_MST_I2C_SLV0_NACK_BIT, buffer);
 3833              		.loc 1 1304 0
 3834 0002 064C     		ldr	r4, .L308
 3835 0004 064B     		ldr	r3, .L308+4
 3836 0006 1878     		ldrb	r0, [r3]
 3837 0008 2300     		movs	r3, r4
 3838 000a 0022     		movs	r2, #0
 3839 000c 3621     		movs	r1, #54
 3840 000e FFF7FEFF 		bl	I2CReadBit
 3841              	.LVL215:
1305:mpu6050.c     ****     return buffer[0];
 3842              		.loc 1 1305 0
 3843 0012 2078     		ldrb	r0, [r4]
 3844 0014 431E     		subs	r3, r0, #1
 3845 0016 9841     		sbcs	r0, r0, r3
 3846 0018 C0B2     		uxtb	r0, r0
1306:mpu6050.c     **** }
 3847              		.loc 1 1306 0
 3848              		@ sp needed
 3849 001a 10BD     		pop	{r4, pc}
 3850              	.L309:
 3851              		.align	2
 3852              	.L308:
 3853 001c 00000000 		.word	buffer
 3854 0020 00000000 		.word	devAddr
 3855              		.cfi_endproc
 3856              	.LFE97:
 3857              		.size	MPU6050_getSlave0Nack, .-MPU6050_getSlave0Nack
 3858              		.section	.text.MPU6050_getInterruptMode,"ax",%progbits
 3859              		.align	2
 3860              		.global	MPU6050_getInterruptMode
 3861              		.code	16
 3862              		.thumb_func
 3863              		.type	MPU6050_getInterruptMode, %function
 3864              	MPU6050_getInterruptMode:
 3865              	.LFB98:
1307:mpu6050.c     **** 
1308:mpu6050.c     **** // INT_PIN_CFG register
1309:mpu6050.c     **** 
1310:mpu6050.c     **** /** Get interrupt logic level mode.
1311:mpu6050.c     ****  * Will be set 0 for active-high, 1 for active-low.
1312:mpu6050.c     ****  * @return Current interrupt mode (0=active-high, 1=active-low)
1313:mpu6050.c     ****  * @see MPU6050_RA_INT_PIN_CFG
1314:mpu6050.c     ****  * @see MPU6050_INTCFG_INT_LEVEL_BIT
1315:mpu6050.c     ****  */
ARM GAS  C:\Users\Asus\AppData\Local\Temp\cc7ymLuX.s 			page 92


1316:mpu6050.c     **** bool MPU6050_getInterruptMode() {
 3866              		.loc 1 1316 0
 3867              		.cfi_startproc
 3868              		@ args = 0, pretend = 0, frame = 0
 3869              		@ frame_needed = 0, uses_anonymous_args = 0
 3870 0000 10B5     		push	{r4, lr}
 3871              		.cfi_def_cfa_offset 8
 3872              		.cfi_offset 4, -8
 3873              		.cfi_offset 14, -4
1317:mpu6050.c     ****     I2CReadBit(devAddr, MPU6050_RA_INT_PIN_CFG, MPU6050_INTCFG_INT_LEVEL_BIT, buffer);
 3874              		.loc 1 1317 0
 3875 0002 064C     		ldr	r4, .L311
 3876 0004 064B     		ldr	r3, .L311+4
 3877 0006 1878     		ldrb	r0, [r3]
 3878 0008 2300     		movs	r3, r4
 3879 000a 0722     		movs	r2, #7
 3880 000c 3721     		movs	r1, #55
 3881 000e FFF7FEFF 		bl	I2CReadBit
 3882              	.LVL216:
1318:mpu6050.c     ****     return buffer[0];
 3883              		.loc 1 1318 0
 3884 0012 2078     		ldrb	r0, [r4]
 3885 0014 431E     		subs	r3, r0, #1
 3886 0016 9841     		sbcs	r0, r0, r3
 3887 0018 C0B2     		uxtb	r0, r0
1319:mpu6050.c     **** }
 3888              		.loc 1 1319 0
 3889              		@ sp needed
 3890 001a 10BD     		pop	{r4, pc}
 3891              	.L312:
 3892              		.align	2
 3893              	.L311:
 3894 001c 00000000 		.word	buffer
 3895 0020 00000000 		.word	devAddr
 3896              		.cfi_endproc
 3897              	.LFE98:
 3898              		.size	MPU6050_getInterruptMode, .-MPU6050_getInterruptMode
 3899              		.section	.text.MPU6050_setInterruptMode,"ax",%progbits
 3900              		.align	2
 3901              		.global	MPU6050_setInterruptMode
 3902              		.code	16
 3903              		.thumb_func
 3904              		.type	MPU6050_setInterruptMode, %function
 3905              	MPU6050_setInterruptMode:
 3906              	.LFB99:
1320:mpu6050.c     **** /** Set interrupt logic level mode.
1321:mpu6050.c     ****  * @param mode New interrupt mode (0=active-high, 1=active-low)
1322:mpu6050.c     ****  * @see getInterruptMode()
1323:mpu6050.c     ****  * @see MPU6050_RA_INT_PIN_CFG
1324:mpu6050.c     ****  * @see MPU6050_INTCFG_INT_LEVEL_BIT
1325:mpu6050.c     ****  */
1326:mpu6050.c     **** void MPU6050_setInterruptMode(bool mode) {
 3907              		.loc 1 1326 0
 3908              		.cfi_startproc
 3909              		@ args = 0, pretend = 0, frame = 0
 3910              		@ frame_needed = 0, uses_anonymous_args = 0
 3911              	.LVL217:
ARM GAS  C:\Users\Asus\AppData\Local\Temp\cc7ymLuX.s 			page 93


 3912 0000 10B5     		push	{r4, lr}
 3913              		.cfi_def_cfa_offset 8
 3914              		.cfi_offset 4, -8
 3915              		.cfi_offset 14, -4
 3916 0002 0300     		movs	r3, r0
1327:mpu6050.c     ****    I2CWriteBit(devAddr, MPU6050_RA_INT_PIN_CFG, MPU6050_INTCFG_INT_LEVEL_BIT, mode);
 3917              		.loc 1 1327 0
 3918 0004 034A     		ldr	r2, .L314
 3919 0006 1078     		ldrb	r0, [r2]
 3920              	.LVL218:
 3921 0008 0722     		movs	r2, #7
 3922 000a 3721     		movs	r1, #55
 3923 000c FFF7FEFF 		bl	I2CWriteBit
 3924              	.LVL219:
1328:mpu6050.c     **** }
 3925              		.loc 1 1328 0
 3926              		@ sp needed
 3927 0010 10BD     		pop	{r4, pc}
 3928              	.L315:
 3929 0012 C046     		.align	2
 3930              	.L314:
 3931 0014 00000000 		.word	devAddr
 3932              		.cfi_endproc
 3933              	.LFE99:
 3934              		.size	MPU6050_setInterruptMode, .-MPU6050_setInterruptMode
 3935              		.section	.text.MPU6050_getInterruptDrive,"ax",%progbits
 3936              		.align	2
 3937              		.global	MPU6050_getInterruptDrive
 3938              		.code	16
 3939              		.thumb_func
 3940              		.type	MPU6050_getInterruptDrive, %function
 3941              	MPU6050_getInterruptDrive:
 3942              	.LFB100:
1329:mpu6050.c     **** /** Get interrupt drive mode.
1330:mpu6050.c     ****  * Will be set 0 for push-pull, 1 for open-drain.
1331:mpu6050.c     ****  * @return Current interrupt drive mode (0=push-pull, 1=open-drain)
1332:mpu6050.c     ****  * @see MPU6050_RA_INT_PIN_CFG
1333:mpu6050.c     ****  * @see MPU6050_INTCFG_INT_OPEN_BIT
1334:mpu6050.c     ****  */
1335:mpu6050.c     **** bool MPU6050_getInterruptDrive() {
 3943              		.loc 1 1335 0
 3944              		.cfi_startproc
 3945              		@ args = 0, pretend = 0, frame = 0
 3946              		@ frame_needed = 0, uses_anonymous_args = 0
 3947 0000 10B5     		push	{r4, lr}
 3948              		.cfi_def_cfa_offset 8
 3949              		.cfi_offset 4, -8
 3950              		.cfi_offset 14, -4
1336:mpu6050.c     ****     I2CReadBit(devAddr, MPU6050_RA_INT_PIN_CFG, MPU6050_INTCFG_INT_OPEN_BIT, buffer);
 3951              		.loc 1 1336 0
 3952 0002 064C     		ldr	r4, .L317
 3953 0004 064B     		ldr	r3, .L317+4
 3954 0006 1878     		ldrb	r0, [r3]
 3955 0008 2300     		movs	r3, r4
 3956 000a 0622     		movs	r2, #6
 3957 000c 3721     		movs	r1, #55
 3958 000e FFF7FEFF 		bl	I2CReadBit
ARM GAS  C:\Users\Asus\AppData\Local\Temp\cc7ymLuX.s 			page 94


 3959              	.LVL220:
1337:mpu6050.c     ****     return buffer[0];
 3960              		.loc 1 1337 0
 3961 0012 2078     		ldrb	r0, [r4]
 3962 0014 431E     		subs	r3, r0, #1
 3963 0016 9841     		sbcs	r0, r0, r3
 3964 0018 C0B2     		uxtb	r0, r0
1338:mpu6050.c     **** }
 3965              		.loc 1 1338 0
 3966              		@ sp needed
 3967 001a 10BD     		pop	{r4, pc}
 3968              	.L318:
 3969              		.align	2
 3970              	.L317:
 3971 001c 00000000 		.word	buffer
 3972 0020 00000000 		.word	devAddr
 3973              		.cfi_endproc
 3974              	.LFE100:
 3975              		.size	MPU6050_getInterruptDrive, .-MPU6050_getInterruptDrive
 3976              		.section	.text.MPU6050_setInterruptDrive,"ax",%progbits
 3977              		.align	2
 3978              		.global	MPU6050_setInterruptDrive
 3979              		.code	16
 3980              		.thumb_func
 3981              		.type	MPU6050_setInterruptDrive, %function
 3982              	MPU6050_setInterruptDrive:
 3983              	.LFB101:
1339:mpu6050.c     **** /** Set interrupt drive mode.
1340:mpu6050.c     ****  * @param drive New interrupt drive mode (0=push-pull, 1=open-drain)
1341:mpu6050.c     ****  * @see getInterruptDrive()
1342:mpu6050.c     ****  * @see MPU6050_RA_INT_PIN_CFG
1343:mpu6050.c     ****  * @see MPU6050_INTCFG_INT_OPEN_BIT
1344:mpu6050.c     ****  */
1345:mpu6050.c     **** void MPU6050_setInterruptDrive(bool drive) {
 3984              		.loc 1 1345 0
 3985              		.cfi_startproc
 3986              		@ args = 0, pretend = 0, frame = 0
 3987              		@ frame_needed = 0, uses_anonymous_args = 0
 3988              	.LVL221:
 3989 0000 10B5     		push	{r4, lr}
 3990              		.cfi_def_cfa_offset 8
 3991              		.cfi_offset 4, -8
 3992              		.cfi_offset 14, -4
 3993 0002 0300     		movs	r3, r0
1346:mpu6050.c     ****     I2CWriteBit(devAddr, MPU6050_RA_INT_PIN_CFG, MPU6050_INTCFG_INT_OPEN_BIT, drive);
 3994              		.loc 1 1346 0
 3995 0004 034A     		ldr	r2, .L320
 3996 0006 1078     		ldrb	r0, [r2]
 3997              	.LVL222:
 3998 0008 0622     		movs	r2, #6
 3999 000a 3721     		movs	r1, #55
 4000 000c FFF7FEFF 		bl	I2CWriteBit
 4001              	.LVL223:
1347:mpu6050.c     **** }
 4002              		.loc 1 1347 0
 4003              		@ sp needed
 4004 0010 10BD     		pop	{r4, pc}
ARM GAS  C:\Users\Asus\AppData\Local\Temp\cc7ymLuX.s 			page 95


 4005              	.L321:
 4006 0012 C046     		.align	2
 4007              	.L320:
 4008 0014 00000000 		.word	devAddr
 4009              		.cfi_endproc
 4010              	.LFE101:
