ARM GAS  C:\Users\alex\AppData\Local\Temp\cc4oYerg.s 			page 1


   1              		.syntax unified
   2              		.cpu cortex-m0
   3              		.fpu softvfp
   4              		.eabi_attribute 20, 1
   5              		.eabi_attribute 21, 1
   6              		.eabi_attribute 23, 3
   7              		.eabi_attribute 24, 1
   8              		.eabi_attribute 25, 1
   9              		.eabi_attribute 26, 1
  10              		.eabi_attribute 30, 1
  11              		.eabi_attribute 34, 0
  12              		.eabi_attribute 18, 4
  13              		.thumb
  14              		.syntax unified
  15              		.file	"LED.c"
  16              		.text
  17              	.Ltext0:
  18              		.cfi_sections	.debug_frame
  19              		.section	.text.show,"ax",%progbits
  20              		.align	2
  21              		.global	show
  22              		.code	16
  23              		.thumb_func
  24              		.type	show, %function
  25              	show:
  26              	.LFB38:
  27              		.file 1 "LED.c"
   1:LED.c         **** /* ========================================
   2:LED.c         ****  *
   3:LED.c         ****  * Copyright YOUR COMPANY, THE YEAR
   4:LED.c         ****  * All Rights Reserved
   5:LED.c         ****  * UNPUBLISHED, LICENSED SOFTWARE.
   6:LED.c         ****  *
   7:LED.c         ****  * CONFIDENTIAL AND PROPRIETARY INFORMATION
   8:LED.c         ****  * WHICH IS THE PROPERTY OF your company.
   9:LED.c         ****  *
  10:LED.c         ****  * ========================================
  11:LED.c         **** */
  12:LED.c         **** #include "main.h"
  13:LED.c         **** 
  14:LED.c         **** const uint32 LEDS_CLUT[ ] = {
  15:LED.c         **** //xxBBRRGG (WS2812)
  16:LED.c         **** //     (24)   [ Index = 0 ]
  17:LED.c         **** 0x0000FFFF,  // 0 Yellow
  18:LED.c         **** 0x0000CCFF,
  19:LED.c         **** 0x000099FF,
  20:LED.c         **** 0x000033FF,
  21:LED.c         **** 0x000000FF,  // 5  Green
  22:LED.c         **** 0x006600B3,
  23:LED.c         **** 0x00990099, 
  24:LED.c         **** 0x00B30066, 
  25:LED.c         **** 0x00CC0033,  // 9 Blue
  26:LED.c         **** 0x00B31919, 
  27:LED.c         **** 0x00993300, 
  28:LED.c         **** 0x00994000, 
  29:LED.c         **** 0x00996600, 
  30:LED.c         **** 0x00999900, 
ARM GAS  C:\Users\alex\AppData\Local\Temp\cc4oYerg.s 			page 2


  31:LED.c         **** 0x0099CC00, 
  32:LED.c         **** 0x0066E600, 
  33:LED.c         **** 0x0000FF00, 
  34:LED.c         **** 0x0000FF33, 
  35:LED.c         **** 0x0000FF66, 
  36:LED.c         **** 0x0000FF80, 
  37:LED.c         **** 0x0000FF99,  // 20 Orange
  38:LED.c         **** 0x0000FFB2, 
  39:LED.c         **** 0x0000FFCC, 
  40:LED.c         **** 0x0000FFE5,
  41:LED.c         **** // #24
  42:LED.c         **** 
  43:LED.c         **** //xxBBRRGG  (64)  [ Index = 24 ]
  44:LED.c         **** 0x00000000, 0x00550000, 0x00AA0000, 0x00FF0000,  // 0, Black,  LtBlue, MBlue, Blue
  45:LED.c         **** 0x00000055, 0x00550055, 0x00AA0055, 0x00FF0055,  // 4, LtGreen
  46:LED.c         **** 0x000000AA, 0x005500AA, 0x00AA00AA, 0x00FF00AA,  // 8, MGreen
  47:LED.c         **** 0x000000FF, 0x005500FF, 0x00AA00FF, 0x00FF00FF,  // 12 Green
  48:LED.c         **** 
  49:LED.c         **** 0x00005500, 0x00555500, 0x00AA5500, 0x00FF5500,  // 16, LtRed
  50:LED.c         **** 0x00005555, 0x00555555, 0x00AA5555, 0x00FF5555,  // 20, LtYellow
  51:LED.c         **** 0x000055AA, 0x005555AA, 0x00AA55AA, 0x00FF55AA,  // 24, 
  52:LED.c         **** 0x000055FF, 0x005555FF, 0x00AA55FF, 0x00FF55FF,  // 28,
  53:LED.c         **** 
  54:LED.c         **** 0x0000AA00, 0x0055AA00, 0x00AAAA00, 0x00FFAA00,  // 32, MRed
  55:LED.c         **** 0x0000AA55, 0x0055AA55, 0x00AAAA55, 0x00FFAA55,  // 36, 
  56:LED.c         **** 0x0000AAAA, 0x0055AAAA, 0x00AAAAAA, 0x00FFAAAA,  // 55, 
  57:LED.c         **** 0x0000AAFF, 0x0055AAFF, 0x00AAAAFF, 0x00FFAAFF,  // 44, 
  58:LED.c         **** 
  59:LED.c         **** 0x0000FF00, 0x0055FF00, 0x00AAFF00, 0x00FFFF00,  // 48, Red, ??, ??, Magenta
  60:LED.c         **** 0x0000FF55, 0x0055FF55, 0x00AAFF55, 0x00FFFF55,  // 52,
  61:LED.c         **** 0x0000FFAA, 0x0055FFAA, 0x00AAFFAA, 0x00FFFFAA,  // 56,
  62:LED.c         **** 0x0000FFFF, 0x0055FFFF, 0x00AAFFFF, 0x00FFFFFF,  // 60, Yellow,??, ??, White
  63:LED.c         **** 
  64:LED.c         **** // Misc ( 16 )  [ Index = 88 ]
  65:LED.c         **** 0x000080FF,  // SPRING_GREEN
  66:LED.c         **** 0x008000FF,  // TURQUOSE
  67:LED.c         **** 0x00FF00FF,  // CYAN
  68:LED.c         **** 0x00FF0080,  // OCEAN
  69:LED.c         **** 0x00FF8000,  // VIOLET
  70:LED.c         **** 0x0080FF00,  // RASPBERRY
  71:LED.c         **** 0x000000FF,  // GREEN
  72:LED.c         **** 0x00202020,  // DIM WHITE
  73:LED.c         **** 0x00200000,  // DIM BLUE
  74:LED.c         **** 0x10000000,  // INVISIBLE
  75:LED.c         **** 0x00000000,  // Spare
  76:LED.c         **** 0x00000000,  // Spare
  77:LED.c         **** 0x00000000,  // Spare
  78:LED.c         **** 0x00000000,  // Spare
  79:LED.c         **** 0x00000000,  // Spare
  80:LED.c         **** 0x00000000,  // Spare
  81:LED.c         **** 
  82:LED.c         **** // Temperture Color Blue to Red (16) [ Index = 104 ]
  83:LED.c         **** 0x00FF0000, 0x00F01000, 0x00E02000, 0x00D03000,
  84:LED.c         **** 0x00C04000, 0x00B05000, 0x00A06000, 0x00907000,
  85:LED.c         **** 0x00808000, 0x00709000, 0x0060A000, 0x0050B000,
  86:LED.c         **** 0x0040C000, 0x0030D000, 0x0020E000, 0x0000FF00
  87:LED.c         **** };    
ARM GAS  C:\Users\alex\AppData\Local\Temp\cc4oYerg.s 			page 3


  88:LED.c         **** 
  89:LED.c         **** inline void udelay_asm(uint32_t useconds)
  90:LED.c         **** {
  91:LED.c         ****     asm volatile("   mov r0, %[useconds]    \n\t"
  92:LED.c         ****                  "1: sub r0, #1             \n\t"
  93:LED.c         ****                  :
  94:LED.c         ****                  : [useconds] "r" (useconds)
  95:LED.c         ****                  : "r0");
  96:LED.c         **** }
  97:LED.c         **** 
  98:LED.c         **** inline void sendByte(int x)
  99:LED.c         **** {
 100:LED.c         ****     static int delays_L[] = {13, 23};
 101:LED.c         ****     static int delays_H[] = {23, 13};
 102:LED.c         ****     for (int i = 7; i >= 0; --i)
 103:LED.c         ****     {
 104:LED.c         ****         int bit = (x>>i) & 1;
 105:LED.c         ****         if (bit)
 106:LED.c         ****         {
 107:LED.c         ****             Din_Write(1);
 108:LED.c         ****             udelay_asm(delays_H[bit]);
 109:LED.c         ****             Din_Write(0);
 110:LED.c         ****             udelay_asm(delays_L[bit]);
 111:LED.c         ****         } else 
 112:LED.c         ****         {
 113:LED.c         ****             Din_Write(1);
 114:LED.c         ****             udelay_asm(delays_H[bit]);
 115:LED.c         ****             Din_Write(0 << 16U);
 116:LED.c         ****             udelay_asm(delays_H[bit]);
 117:LED.c         ****         }
 118:LED.c         ****         
 119:LED.c         **** //        udelay_asm(delays_L[bit]);
 120:LED.c         **** //        Din_Write(bit << 16U);
 121:LED.c         **** //        udelay_asm(delays_H[bit]);
 122:LED.c         ****     }
 123:LED.c         **** }
 124:LED.c         **** 
 125:LED.c         **** //void sendBit( uint8 bitVal ) {   
 126:LED.c         **** //    if ( bitVal ) {      // 1-bit
 127:LED.c         **** // 
 128:LED.c         **** //      Din_Write(1);
 129:LED.c         **** //
 130:LED.c         **** //      CyDelayCycles(NS_TO_CYCLES( T1H ) - 2 );
 131:LED.c         **** //                                              // Note that this delay could be longer and everyth
 132:LED.c         **** //      Din_Write(0);
 133:LED.c         **** // 
 134:LED.c         **** //      CyDelayCycles( NS_TO_CYCLES( T1L ) - 10 ); // 1-bit gap less the overhead of the loop
 135:LED.c         **** // 
 136:LED.c         **** //    } 
 137:LED.c         **** //    else {             // 0-bit
 138:LED.c         ****  
 139:LED.c         **** //      CyGlobalIntDisable;                                     // We need to protect this bit from
 140:LED.c         **** // 
 141:LED.c         **** //      Din_Write(1);
 142:LED.c         **** // 
 143:LED.c         **** //      CyDelayCycles( NS_TO_CYCLES( T0H ) - 2 ); // 0-bit width less overhead
 144:LED.c         **** //                                                    // ******************************************
ARM GAS  C:\Users\alex\AppData\Local\Temp\cc4oYerg.s 			page 4


 145:LED.c         **** //                                                    // This line is really the only tight goldilo
 146:LED.c         **** //                                                    // ******************************************
 147:LED.c         **** //      Din_Write(0);
 148:LED.c         **** // 
 149:LED.c         **** //      CyGlobalIntEnable;
 150:LED.c         **** // 
 151:LED.c         **** //      CyDelayCycles( NS_TO_CYCLES( T0L ) - 10 ); // 0-bit gap less overhead of the loop
 152:LED.c         ****  
 153:LED.c         **** //    }
 154:LED.c         ****     
 155:LED.c         ****     // Note that the inter-bit gap can be as long as you want as long as it doesn't exceed the 5us 
 156:LED.c         ****     // Here I have been generous and not tried to squeeze the gap tight but instead erred on the si
 157:LED.c         ****     // This has thenice side effect of avoid glitches on very long strings becuase
 158:LED.c         ****  
 159:LED.c         **** //}
 160:LED.c         **** 
 161:LED.c         **** //void sendByte( unsigned char byte ) {
 162:LED.c         **** // 
 163:LED.c         **** //    unsigned char bit = 0;
 164:LED.c         **** //    
 165:LED.c         **** //    for(bit = 0 ; bit < 8 ; bit++ ) {
 166:LED.c         **** //
 167:LED.c         **** //      sendBit( (byte >> 7) & 1 ); // Neopixel wants bit in highest-to-lowest order
 168:LED.c         **** //                                                     // so send highest bit (bit #7 in an 8-bit b
 169:LED.c         **** //      byte = byte << 1; // and then shift left so bit 6 moves into 7, 5 moves into 6, etc
 170:LED.c         **** // 
 171:LED.c         **** //    }
 172:LED.c         **** //}
 173:LED.c         **** 
 174:LED.c         **** void show() {
  28              		.loc 1 174 0
  29              		.cfi_startproc
  30              		@ args = 0, pretend = 0, frame = 0
  31              		@ frame_needed = 0, uses_anonymous_args = 0
  32 0000 10B5     		push	{r4, lr}
  33              		.cfi_def_cfa_offset 8
  34              		.cfi_offset 4, -8
  35              		.cfi_offset 14, -4
 175:LED.c         ****     CyDelayCycles( NS_TO_CYCLES(RES) );
  36              		.loc 1 175 0
  37 0002 0248     		ldr	r0, .L2
  38 0004 FFF7FEFF 		bl	CyDelayCycles
  39              	.LVL0:
 176:LED.c         **** }
  40              		.loc 1 176 0
  41              		@ sp needed
  42 0008 10BD     		pop	{r4, pc}
  43              	.L3:
  44 000a C046     		.align	2
  45              	.L2:
  46 000c C4090000 		.word	2500
  47              		.cfi_endproc
  48              	.LFE38:
  49              		.size	show, .-show
  50              		.section	.text.LED_Set,"ax",%progbits
  51              		.align	2
  52              		.global	LED_Set
ARM GAS  C:\Users\alex\AppData\Local\Temp\cc4oYerg.s 			page 5


  53              		.code	16
  54              		.thumb_func
  55              		.type	LED_Set, %function
  56              	LED_Set:
  57              	.LFB39:
 177:LED.c         **** 
 178:LED.c         **** uint32 LED_Set(uint32 col)
 179:LED.c         **** {
  58              		.loc 1 179 0
  59              		.cfi_startproc
  60              		@ args = 0, pretend = 0, frame = 0
  61              		@ frame_needed = 0, uses_anonymous_args = 0
  62              	.LVL1:
  63 0000 F0B5     		push	{r4, r5, r6, r7, lr}
  64              		.cfi_def_cfa_offset 20
  65              		.cfi_offset 4, -20
  66              		.cfi_offset 5, -16
  67              		.cfi_offset 6, -12
  68              		.cfi_offset 7, -8
  69              		.cfi_offset 14, -4
  70 0002 5746     		mov	r7, r10
  71 0004 4E46     		mov	r6, r9
  72 0006 4546     		mov	r5, r8
  73 0008 E0B4     		push	{r5, r6, r7}
  74              		.cfi_def_cfa_offset 32
  75              		.cfi_offset 8, -32
  76              		.cfi_offset 9, -28
  77              		.cfi_offset 10, -24
  78 000a 8246     		mov	r10, r0
  79              	.LVL2:
 180:LED.c         ****     //col: BBRRGG
 181:LED.c         ****     unsigned char gVal = GREEN_VAL(col);
 182:LED.c         ****     unsigned char rVal = RED_VAL(col);
  80              		.loc 1 182 0
  81 000c 030A     		lsrs	r3, r0, #8
  82 000e 9946     		mov	r9, r3
  83              	.LVL3:
 183:LED.c         ****     unsigned char bVal = BLUE_VAL(col);
  84              		.loc 1 183 0
  85 0010 030C     		lsrs	r3, r0, #16
  86 0012 9846     		mov	r8, r3
  87              	.LVL4:
 184:LED.c         ****     sendByte(gVal);
  88              		.loc 1 184 0
  89 0014 FF27     		movs	r7, #255
  90 0016 0740     		ands	r7, r0
  91              	.LVL5:
  92              	.LBB48:
  93              	.LBB49:
  94              	.LBB50:
 102:LED.c         ****     {
  95              		.loc 1 102 0
  96 0018 0726     		movs	r6, #7
  97 001a 22E0     		b	.L5
  98              	.LVL6:
  99              	.L8:
 100              	.LBB51:
ARM GAS  C:\Users\alex\AppData\Local\Temp\cc4oYerg.s 			page 6


 104:LED.c         ****         if (bit)
 101              		.loc 1 104 0
 102 001c 3B00     		movs	r3, r7
 103 001e 3341     		asrs	r3, r3, r6
 104 0020 0124     		movs	r4, #1
 105 0022 1C40     		ands	r4, r3
 106              	.LVL7:
 105:LED.c         ****         {
 107              		.loc 1 105 0
 108 0024 0FD0     		beq	.L6
 107:LED.c         ****             udelay_asm(delays_H[bit]);
 109              		.loc 1 107 0
 110 0026 0120     		movs	r0, #1
 111 0028 FFF7FEFF 		bl	Din_Write
 112              	.LVL8:
 108:LED.c         ****             Din_Write(0);
 113              		.loc 1 108 0
 114 002c 3B4D     		ldr	r5, .L17
 115 002e A400     		lsls	r4, r4, #2
 116              	.LVL9:
 117 0030 6359     		ldr	r3, [r4, r5]
 118              	.LVL10:
 119              	.LBB52:
 120              	.LBB53:
  91:LED.c         ****                  "1: sub r0, #1             \n\t"
 121              		.loc 1 91 0
 122              		.syntax divided
 123              	@ 91 "LED.c" 1
 124 0032 181C     		   mov r0, r3    
 125 0034 0138     		1: sub r0, #1             
 126              		
 127              	@ 0 "" 2
 128              	.LVL11:
 129              		.thumb
 130              		.syntax unified
 131              	.LBE53:
 132              	.LBE52:
 109:LED.c         ****             udelay_asm(delays_L[bit]);
 133              		.loc 1 109 0
 134 0036 0020     		movs	r0, #0
 135 0038 FFF7FEFF 		bl	Din_Write
 136              	.LVL12:
 110:LED.c         ****         } else 
 137              		.loc 1 110 0
 138 003c 2C19     		adds	r4, r5, r4
 139 003e A368     		ldr	r3, [r4, #8]
 140              	.LVL13:
 141              	.LBB54:
 142              	.LBB55:
  91:LED.c         ****                  "1: sub r0, #1             \n\t"
 143              		.loc 1 91 0
 144              		.syntax divided
 145              	@ 91 "LED.c" 1
 146 0040 181C     		   mov r0, r3    
 147 0042 0138     		1: sub r0, #1             
 148              		
 149              	@ 0 "" 2
ARM GAS  C:\Users\alex\AppData\Local\Temp\cc4oYerg.s 			page 7


 150              		.thumb
 151              		.syntax unified
 152 0044 0CE0     		b	.L7
 153              	.LVL14:
 154              	.L6:
 155              	.LBE55:
 156              	.LBE54:
 113:LED.c         ****             udelay_asm(delays_H[bit]);
 157              		.loc 1 113 0
 158 0046 0120     		movs	r0, #1
 159 0048 FFF7FEFF 		bl	Din_Write
 160              	.LVL15:
 114:LED.c         ****             Din_Write(0 << 16U);
 161              		.loc 1 114 0
 162 004c A400     		lsls	r4, r4, #2
 163              	.LVL16:
 164 004e 334B     		ldr	r3, .L17
 165 0050 E458     		ldr	r4, [r4, r3]
 166              	.LVL17:
 167              	.LBB56:
 168              	.LBB57:
  91:LED.c         ****                  "1: sub r0, #1             \n\t"
 169              		.loc 1 91 0
 170              		.syntax divided
 171              	@ 91 "LED.c" 1
 172 0052 201C     		   mov r0, r4    
 173 0054 0138     		1: sub r0, #1             
 174              		
 175              	@ 0 "" 2
 176              	.LVL18:
 177              		.thumb
 178              		.syntax unified
 179              	.LBE57:
 180              	.LBE56:
 115:LED.c         ****             udelay_asm(delays_H[bit]);
 181              		.loc 1 115 0
 182 0056 0020     		movs	r0, #0
 183 0058 FFF7FEFF 		bl	Din_Write
 184              	.LVL19:
 185              	.LBB58:
 186              	.LBB59:
  91:LED.c         ****                  "1: sub r0, #1             \n\t"
 187              		.loc 1 91 0
 188              		.syntax divided
 189              	@ 91 "LED.c" 1
 190 005c 201C     		   mov r0, r4    
 191 005e 0138     		1: sub r0, #1             
 192              		
 193              	@ 0 "" 2
 194              	.LVL20:
 195              		.thumb
 196              		.syntax unified
 197              	.L7:
 198              	.LBE59:
 199              	.LBE58:
 200              	.LBE51:
 102:LED.c         ****     {
ARM GAS  C:\Users\alex\AppData\Local\Temp\cc4oYerg.s 			page 8


 201              		.loc 1 102 0
 202 0060 013E     		subs	r6, r6, #1
 203              	.LVL21:
 204              	.L5:
 205 0062 002E     		cmp	r6, #0
 206 0064 DADA     		bge	.L8
 207              	.LVL22:
 208              	.LBE50:
 209              	.LBE49:
 210              	.LBE48:
 185:LED.c         ****     sendByte(rVal);
 211              		.loc 1 185 0
 212 0066 FF27     		movs	r7, #255
 213 0068 4B46     		mov	r3, r9
 214 006a 1F40     		ands	r7, r3
 215              	.LVL23:
 216              	.LBB60:
 217              	.LBB61:
 218              	.LBB62:
 102:LED.c         ****     {
 219              		.loc 1 102 0
 220 006c 0726     		movs	r6, #7
 221 006e 22E0     		b	.L9
 222              	.LVL24:
 223              	.L12:
 224              	.LBB63:
 104:LED.c         ****         if (bit)
 225              		.loc 1 104 0
 226 0070 3B00     		movs	r3, r7
 227 0072 3341     		asrs	r3, r3, r6
 228 0074 0124     		movs	r4, #1
 229 0076 1C40     		ands	r4, r3
 230              	.LVL25:
 105:LED.c         ****         {
 231              		.loc 1 105 0
 232 0078 0FD0     		beq	.L10
 107:LED.c         ****             udelay_asm(delays_H[bit]);
 233              		.loc 1 107 0
 234 007a 0120     		movs	r0, #1
 235 007c FFF7FEFF 		bl	Din_Write
 236              	.LVL26:
 108:LED.c         ****             Din_Write(0);
 237              		.loc 1 108 0
 238 0080 264D     		ldr	r5, .L17
 239 0082 A400     		lsls	r4, r4, #2
 240              	.LVL27:
 241 0084 6359     		ldr	r3, [r4, r5]
 242              	.LVL28:
 243              	.LBB64:
 244              	.LBB65:
  91:LED.c         ****                  "1: sub r0, #1             \n\t"
 245              		.loc 1 91 0
 246              		.syntax divided
 247              	@ 91 "LED.c" 1
 248 0086 181C     		   mov r0, r3    
 249 0088 0138     		1: sub r0, #1             
 250              		
ARM GAS  C:\Users\alex\AppData\Local\Temp\cc4oYerg.s 			page 9


 251              	@ 0 "" 2
 252              	.LVL29:
 253              		.thumb
 254              		.syntax unified
 255              	.LBE65:
 256              	.LBE64:
 109:LED.c         ****             udelay_asm(delays_L[bit]);
 257              		.loc 1 109 0
 258 008a 0020     		movs	r0, #0
 259 008c FFF7FEFF 		bl	Din_Write
 260              	.LVL30:
 110:LED.c         ****         } else 
 261              		.loc 1 110 0
 262 0090 2C19     		adds	r4, r5, r4
 263 0092 A368     		ldr	r3, [r4, #8]
 264              	.LVL31:
 265              	.LBB66:
 266              	.LBB67:
  91:LED.c         ****                  "1: sub r0, #1             \n\t"
 267              		.loc 1 91 0
 268              		.syntax divided
 269              	@ 91 "LED.c" 1
 270 0094 181C     		   mov r0, r3    
 271 0096 0138     		1: sub r0, #1             
 272              		
 273              	@ 0 "" 2
 274              		.thumb
 275              		.syntax unified
 276 0098 0CE0     		b	.L11
 277              	.LVL32:
 278              	.L10:
 279              	.LBE67:
 280              	.LBE66:
 113:LED.c         ****             udelay_asm(delays_H[bit]);
 281              		.loc 1 113 0
 282 009a 0120     		movs	r0, #1
 283 009c FFF7FEFF 		bl	Din_Write
 284              	.LVL33:
 114:LED.c         ****             Din_Write(0 << 16U);
 285              		.loc 1 114 0
 286 00a0 A400     		lsls	r4, r4, #2
 287              	.LVL34:
 288 00a2 1E4B     		ldr	r3, .L17
 289 00a4 E458     		ldr	r4, [r4, r3]
 290              	.LVL35:
 291              	.LBB68:
 292              	.LBB69:
  91:LED.c         ****                  "1: sub r0, #1             \n\t"
 293              		.loc 1 91 0
 294              		.syntax divided
 295              	@ 91 "LED.c" 1
 296 00a6 201C     		   mov r0, r4    
 297 00a8 0138     		1: sub r0, #1             
 298              		
 299              	@ 0 "" 2
 300              	.LVL36:
 301              		.thumb
ARM GAS  C:\Users\alex\AppData\Local\Temp\cc4oYerg.s 			page 10


 302              		.syntax unified
 303              	.LBE69:
 304              	.LBE68:
 115:LED.c         ****             udelay_asm(delays_H[bit]);
 305              		.loc 1 115 0
 306 00aa 0020     		movs	r0, #0
 307 00ac FFF7FEFF 		bl	Din_Write
 308              	.LVL37:
 309              	.LBB70:
 310              	.LBB71:
  91:LED.c         ****                  "1: sub r0, #1             \n\t"
 311              		.loc 1 91 0
 312              		.syntax divided
 313              	@ 91 "LED.c" 1
 314 00b0 201C     		   mov r0, r4    
 315 00b2 0138     		1: sub r0, #1             
 316              		
 317              	@ 0 "" 2
 318              	.LVL38:
 319              		.thumb
 320              		.syntax unified
 321              	.L11:
 322              	.LBE71:
 323              	.LBE70:
 324              	.LBE63:
 102:LED.c         ****     {
 325              		.loc 1 102 0
 326 00b4 013E     		subs	r6, r6, #1
 327              	.LVL39:
 328              	.L9:
 329 00b6 002E     		cmp	r6, #0
 330 00b8 DADA     		bge	.L12
 331              	.LVL40:
 332              	.LBE62:
 333              	.LBE61:
 334              	.LBE60:
 186:LED.c         ****     sendByte(bVal);
 335              		.loc 1 186 0
 336 00ba FF27     		movs	r7, #255
 337 00bc 4346     		mov	r3, r8
 338 00be 1F40     		ands	r7, r3
 339              	.LVL41:
 340              	.LBB72:
 341              	.LBB73:
 342              	.LBB74:
 102:LED.c         ****     {
 343              		.loc 1 102 0
 344 00c0 0726     		movs	r6, #7
 345 00c2 22E0     		b	.L13
 346              	.LVL42:
 347              	.L16:
 348              	.LBB75:
 104:LED.c         ****         if (bit)
 349              		.loc 1 104 0
 350 00c4 3B00     		movs	r3, r7
 351 00c6 3341     		asrs	r3, r3, r6
 352 00c8 0124     		movs	r4, #1
ARM GAS  C:\Users\alex\AppData\Local\Temp\cc4oYerg.s 			page 11


 353 00ca 1C40     		ands	r4, r3
 354              	.LVL43:
 105:LED.c         ****         {
 355              		.loc 1 105 0
 356 00cc 0FD0     		beq	.L14
 107:LED.c         ****             udelay_asm(delays_H[bit]);
 357              		.loc 1 107 0
 358 00ce 0120     		movs	r0, #1
 359 00d0 FFF7FEFF 		bl	Din_Write
 360              	.LVL44:
 108:LED.c         ****             Din_Write(0);
 361              		.loc 1 108 0
 362 00d4 114D     		ldr	r5, .L17
 363 00d6 A400     		lsls	r4, r4, #2
 364              	.LVL45:
 365 00d8 6359     		ldr	r3, [r4, r5]
 366              	.LVL46:
 367              	.LBB76:
 368              	.LBB77:
  91:LED.c         ****                  "1: sub r0, #1             \n\t"
 369              		.loc 1 91 0
 370              		.syntax divided
 371              	@ 91 "LED.c" 1
 372 00da 181C     		   mov r0, r3    
 373 00dc 0138     		1: sub r0, #1             
 374              		
 375              	@ 0 "" 2
 376              	.LVL47:
 377              		.thumb
 378              		.syntax unified
 379              	.LBE77:
 380              	.LBE76:
 109:LED.c         ****             udelay_asm(delays_L[bit]);
 381              		.loc 1 109 0
 382 00de 0020     		movs	r0, #0
 383 00e0 FFF7FEFF 		bl	Din_Write
 384              	.LVL48:
 110:LED.c         ****         } else 
 385              		.loc 1 110 0
 386 00e4 2C19     		adds	r4, r5, r4
 387 00e6 A368     		ldr	r3, [r4, #8]
 388              	.LVL49:
 389              	.LBB78:
 390              	.LBB79:
  91:LED.c         ****                  "1: sub r0, #1             \n\t"
 391              		.loc 1 91 0
 392              		.syntax divided
 393              	@ 91 "LED.c" 1
 394 00e8 181C     		   mov r0, r3    
 395 00ea 0138     		1: sub r0, #1             
 396              		
 397              	@ 0 "" 2
 398              		.thumb
 399              		.syntax unified
 400 00ec 0CE0     		b	.L15
 401              	.LVL50:
 402              	.L14:
ARM GAS  C:\Users\alex\AppData\Local\Temp\cc4oYerg.s 			page 12


 403              	.LBE79:
 404              	.LBE78:
 113:LED.c         ****             udelay_asm(delays_H[bit]);
 405              		.loc 1 113 0
 406 00ee 0120     		movs	r0, #1
 407 00f0 FFF7FEFF 		bl	Din_Write
 408              	.LVL51:
 114:LED.c         ****             Din_Write(0 << 16U);
 409              		.loc 1 114 0
 410 00f4 A400     		lsls	r4, r4, #2
 411              	.LVL52:
 412 00f6 094B     		ldr	r3, .L17
 413 00f8 E458     		ldr	r4, [r4, r3]
 414              	.LVL53:
 415              	.LBB80:
 416              	.LBB81:
  91:LED.c         ****                  "1: sub r0, #1             \n\t"
 417              		.loc 1 91 0
 418              		.syntax divided
 419              	@ 91 "LED.c" 1
 420 00fa 201C     		   mov r0, r4    
 421 00fc 0138     		1: sub r0, #1             
 422              		
 423              	@ 0 "" 2
 424              	.LVL54:
 425              		.thumb
 426              		.syntax unified
 427              	.LBE81:
 428              	.LBE80:
 115:LED.c         ****             udelay_asm(delays_H[bit]);
 429              		.loc 1 115 0
 430 00fe 0020     		movs	r0, #0
 431 0100 FFF7FEFF 		bl	Din_Write
 432              	.LVL55:
 433              	.LBB82:
 434              	.LBB83:
  91:LED.c         ****                  "1: sub r0, #1             \n\t"
 435              		.loc 1 91 0
 436              		.syntax divided
 437              	@ 91 "LED.c" 1
 438 0104 201C     		   mov r0, r4    
 439 0106 0138     		1: sub r0, #1             
 440              		
 441              	@ 0 "" 2
 442              	.LVL56:
 443              		.thumb
 444              		.syntax unified
 445              	.L15:
 446              	.LBE83:
 447              	.LBE82:
 448              	.LBE75:
 102:LED.c         ****     {
 449              		.loc 1 102 0
 450 0108 013E     		subs	r6, r6, #1
 451              	.LVL57:
 452              	.L13:
 453 010a 002E     		cmp	r6, #0
ARM GAS  C:\Users\alex\AppData\Local\Temp\cc4oYerg.s 			page 13


 454 010c DADA     		bge	.L16
 455              	.LVL58:
 456              	.LBE74:
 457              	.LBE73:
 458              	.LBE72:
 187:LED.c         ****     return col;
 188:LED.c         **** }
 459              		.loc 1 188 0
 460 010e 5046     		mov	r0, r10
 461              		@ sp needed
 462              	.LVL59:
 463              	.LVL60:
 464              	.LVL61:
 465 0110 1CBC     		pop	{r2, r3, r4}
 466 0112 9046     		mov	r8, r2
 467 0114 9946     		mov	r9, r3
 468 0116 A246     		mov	r10, r4
 469 0118 F0BD     		pop	{r4, r5, r6, r7, pc}
 470              	.L18:
 471 011a C046     		.align	2
 472              	.L17:
 473 011c 00000000 		.word	.LANCHOR0
 474              		.cfi_endproc
 475              	.LFE39:
 476              		.size	LED_Set, .-LED_Set
 477              		.global	LEDS_CLUT
 478              		.comm	currSet,4,4
 479              		.section	.rodata
 480              		.align	2
 481              		.set	.LANCHOR0,. + 0
 482              		.type	delays_H.7008, %object
 483              		.size	delays_H.7008, 8
 484              	delays_H.7008:
 485 0000 17000000 		.word	23
 486 0004 0D000000 		.word	13
 487              		.type	delays_L.7007, %object
 488              		.size	delays_L.7007, 8
 489              	delays_L.7007:
 490 0008 0D000000 		.word	13
 491 000c 17000000 		.word	23
 492              		.type	LEDS_CLUT, %object
 493              		.size	LEDS_CLUT, 480
 494              	LEDS_CLUT:
 495 0010 FFFF0000 		.word	65535
 496 0014 FFCC0000 		.word	52479
 497 0018 FF990000 		.word	39423
 498 001c FF330000 		.word	13311
 499 0020 FF000000 		.word	255
 500 0024 B3006600 		.word	6684851
 501 0028 99009900 		.word	10027161
 502 002c 6600B300 		.word	11731046
 503 0030 3300CC00 		.word	13369395
 504 0034 1919B300 		.word	11737369
 505 0038 00339900 		.word	10040064
 506 003c 00409900 		.word	10043392
 507 0040 00669900 		.word	10053120
 508 0044 00999900 		.word	10066176
ARM GAS  C:\Users\alex\AppData\Local\Temp\cc4oYerg.s 			page 14


 509 0048 00CC9900 		.word	10079232
 510 004c 00E66600 		.word	6743552
 511 0050 00FF0000 		.word	65280
 512 0054 33FF0000 		.word	65331
 513 0058 66FF0000 		.word	65382
 514 005c 80FF0000 		.word	65408
 515 0060 99FF0000 		.word	65433
 516 0064 B2FF0000 		.word	65458
 517 0068 CCFF0000 		.word	65484
 518 006c E5FF0000 		.word	65509
 519 0070 00000000 		.word	0
 520 0074 00005500 		.word	5570560
 521 0078 0000AA00 		.word	11141120
 522 007c 0000FF00 		.word	16711680
 523 0080 55000000 		.word	85
 524 0084 55005500 		.word	5570645
 525 0088 5500AA00 		.word	11141205
 526 008c 5500FF00 		.word	16711765
 527 0090 AA000000 		.word	170
 528 0094 AA005500 		.word	5570730
 529 0098 AA00AA00 		.word	11141290
 530 009c AA00FF00 		.word	16711850
 531 00a0 FF000000 		.word	255
 532 00a4 FF005500 		.word	5570815
 533 00a8 FF00AA00 		.word	11141375
 534 00ac FF00FF00 		.word	16711935
 535 00b0 00550000 		.word	21760
 536 00b4 00555500 		.word	5592320
 537 00b8 0055AA00 		.word	11162880
 538 00bc 0055FF00 		.word	16733440
 539 00c0 55550000 		.word	21845
 540 00c4 55555500 		.word	5592405
 541 00c8 5555AA00 		.word	11162965
 542 00cc 5555FF00 		.word	16733525
 543 00d0 AA550000 		.word	21930
 544 00d4 AA555500 		.word	5592490
 545 00d8 AA55AA00 		.word	11163050
 546 00dc AA55FF00 		.word	16733610
 547 00e0 FF550000 		.word	22015
 548 00e4 FF555500 		.word	5592575
 549 00e8 FF55AA00 		.word	11163135
 550 00ec FF55FF00 		.word	16733695
 551 00f0 00AA0000 		.word	43520
 552 00f4 00AA5500 		.word	5614080
 553 00f8 00AAAA00 		.word	11184640
 554 00fc 00AAFF00 		.word	16755200
 555 0100 55AA0000 		.word	43605
 556 0104 55AA5500 		.word	5614165
 557 0108 55AAAA00 		.word	11184725
 558 010c 55AAFF00 		.word	16755285
 559 0110 AAAA0000 		.word	43690
 560 0114 AAAA5500 		.word	5614250
 561 0118 AAAAAA00 		.word	11184810
 562 011c AAAAFF00 		.word	16755370
 563 0120 FFAA0000 		.word	43775
 564 0124 FFAA5500 		.word	5614335
 565 0128 FFAAAA00 		.word	11184895
ARM GAS  C:\Users\alex\AppData\Local\Temp\cc4oYerg.s 			page 15


 566 012c FFAAFF00 		.word	16755455
 567 0130 00FF0000 		.word	65280
 568 0134 00FF5500 		.word	5635840
 569 0138 00FFAA00 		.word	11206400
 570 013c 00FFFF00 		.word	16776960
 571 0140 55FF0000 		.word	65365
 572 0144 55FF5500 		.word	5635925
 573 0148 55FFAA00 		.word	11206485
 574 014c 55FFFF00 		.word	16777045
 575 0150 AAFF0000 		.word	65450
 576 0154 AAFF5500 		.word	5636010
 577 0158 AAFFAA00 		.word	11206570
 578 015c AAFFFF00 		.word	16777130
 579 0160 FFFF0000 		.word	65535
 580 0164 FFFF5500 		.word	5636095
 581 0168 FFFFAA00 		.word	11206655
 582 016c FFFFFF00 		.word	16777215
 583 0170 FF800000 		.word	33023
 584 0174 FF008000 		.word	8388863
 585 0178 FF00FF00 		.word	16711935
 586 017c 8000FF00 		.word	16711808
 587 0180 0080FF00 		.word	16744448
 588 0184 00FF8000 		.word	8453888
 589 0188 FF000000 		.word	255
 590 018c 20202000 		.word	2105376
 591 0190 00002000 		.word	2097152
 592 0194 00000010 		.word	268435456
 593 0198 00000000 		.word	0
 594 019c 00000000 		.word	0
 595 01a0 00000000 		.word	0
 596 01a4 00000000 		.word	0
 597 01a8 00000000 		.word	0
 598 01ac 00000000 		.word	0
 599 01b0 0000FF00 		.word	16711680
 600 01b4 0010F000 		.word	15732736
 601 01b8 0020E000 		.word	14688256
 602 01bc 0030D000 		.word	13643776
 603 01c0 0040C000 		.word	12599296
 604 01c4 0050B000 		.word	11554816
 605 01c8 0060A000 		.word	10510336
 606 01cc 00709000 		.word	9465856
 607 01d0 00808000 		.word	8421376
 608 01d4 00907000 		.word	7376896
 609 01d8 00A06000 		.word	6332416
 610 01dc 00B05000 		.word	5287936
 611 01e0 00C04000 		.word	4243456
 612 01e4 00D03000 		.word	3198976
 613 01e8 00E02000 		.word	2154496
 614 01ec 00FF0000 		.word	65280
 615              		.text
 616              	.Letext0:
 617              		.file 2 "c:\\program files (x86)\\cypress\\psoc creator\\4.4\\psoc creator\\import\\gnu\\arm\\5.4.
 618              		.file 3 "c:\\program files (x86)\\cypress\\psoc creator\\4.4\\psoc creator\\import\\gnu\\arm\\5.4.
 619              		.file 4 "Generated_Source\\PSoC4/cytypes.h"
 620              		.file 5 "LED.h"
 621              		.file 6 "Generated_Source\\PSoC4/CyLib.h"
 622              		.file 7 "Generated_Source\\PSoC4/Din.h"
ARM GAS  C:\Users\alex\AppData\Local\Temp\cc4oYerg.s 			page 16

