ARM GAS  C:\Users\alex\AppData\Local\Temp\cclbkYIu.s 			page 1


   1              		.syntax unified
   2              		.cpu cortex-m0
   3              		.fpu softvfp
   4              		.eabi_attribute 20, 1
   5              		.eabi_attribute 21, 1
   6              		.eabi_attribute 23, 3
   7              		.eabi_attribute 24, 1
   8              		.eabi_attribute 25, 1
   9              		.eabi_attribute 26, 1
  10              		.eabi_attribute 30, 1
  11              		.eabi_attribute 34, 0
  12              		.eabi_attribute 18, 4
  13              		.thumb
  14              		.syntax unified
  15              		.file	"main.c"
  16              		.text
  17              	.Ltext0:
  18              		.cfi_sections	.debug_frame
  19              		.section	.text.Init,"ax",%progbits
  20              		.align	2
  21              		.global	Init
  22              		.code	16
  23              		.thumb_func
  24              		.type	Init, %function
  25              	Init:
  26              	.LFB37:
  27              		.file 1 "main.c"
   1:main.c        **** /* ========================================
   2:main.c        ****  *
   3:main.c        ****  * Copyright YOUR COMPANY, THE YEAR
   4:main.c        ****  * All Rights Reserved
   5:main.c        ****  * UNPUBLISHED, LICENSED SOFTWARE.
   6:main.c        ****  *
   7:main.c        ****  * CONFIDENTIAL AND PROPRIETARY INFORMATION
   8:main.c        ****  * WHICH IS THE PROPERTY OF your company.
   9:main.c        ****  *
  10:main.c        ****  * ========================================
  11:main.c        **** */
  12:main.c        **** #include "main.h"
  13:main.c        **** 
  14:main.c        **** #define TEST_CNT    (6)
  15:main.c        **** extern const uint32 LEDS_CLUT[ ];
  16:main.c        **** uint8 i;
  17:main.c        **** int main()
  18:main.c        **** {
  19:main.c        ****     /* Place your initialization/startup code here (e.g. MyInst_Start()) */
  20:main.c        ****     Init();
  21:main.c        ****     uint32 testList[] = {LEDS_BLUE,LEDS_GREEN,LEDS_RED,LEDS_YELLOW,LEDS_VIOLET,LEDS_ORANGE};
  22:main.c        ****     /* CyGlobalIntEnable; */ /* Uncomment this line to enable global interrupts. */
  23:main.c        ****     for(;;)
  24:main.c        ****     {
  25:main.c        ****         //Din_Write(1);
  26:main.c        ****         //CyDelay(2500);
  27:main.c        ****         for (i = 0; i < TEST_CNT; i++){
  28:main.c        ****             LED_Set(testList[i]);
  29:main.c        **** //            CyDelay(2500);
  30:main.c        **** //            LED_Set(LEDS_OFF);
ARM GAS  C:\Users\alex\AppData\Local\Temp\cclbkYIu.s 			page 2


  31:main.c        **** //            CyDelay(2500);
  32:main.c        ****         }
  33:main.c        ****     }
  34:main.c        **** }
  35:main.c        **** 
  36:main.c        **** 
  37:main.c        **** void Init(void)
  38:main.c        **** {
  28              		.loc 1 38 0
  29              		.cfi_startproc
  30              		@ args = 0, pretend = 0, frame = 0
  31              		@ frame_needed = 0, uses_anonymous_args = 0
  32 0000 10B5     		push	{r4, lr}
  33              		.cfi_def_cfa_offset 8
  34              		.cfi_offset 4, -8
  35              		.cfi_offset 14, -4
  39:main.c        ****     CyGlobalIntEnable; /* Enable global interrupts. */
  36              		.loc 1 39 0
  37              		.syntax divided
  38              	@ 39 "main.c" 1
  39 0002 62B6     		CPSIE   i
  40              	@ 0 "" 2
  40:main.c        ****     Din_Write(1);
  41              		.loc 1 40 0
  42              		.thumb
  43              		.syntax unified
  44 0004 0120     		movs	r0, #1
  45 0006 FFF7FEFF 		bl	Din_Write
  46              	.LVL0:
  41:main.c        **** }
  47              		.loc 1 41 0
  48              		@ sp needed
  49 000a 10BD     		pop	{r4, pc}
  50              		.cfi_endproc
  51              	.LFE37:
  52              		.size	Init, .-Init
  53              		.section	.text.main,"ax",%progbits
  54              		.align	2
  55              		.global	main
  56              		.code	16
  57              		.thumb_func
  58              		.type	main, %function
  59              	main:
  60              	.LFB36:
  18:main.c        ****     /* Place your initialization/startup code here (e.g. MyInst_Start()) */
  61              		.loc 1 18 0
  62              		.cfi_startproc
  63              		@ args = 0, pretend = 0, frame = 32
  64              		@ frame_needed = 0, uses_anonymous_args = 0
  65 0000 00B5     		push	{lr}
  66              		.cfi_def_cfa_offset 4
  67              		.cfi_offset 14, -4
  68 0002 89B0     		sub	sp, sp, #36
  69              		.cfi_def_cfa_offset 40
  20:main.c        ****     uint32 testList[] = {LEDS_BLUE,LEDS_GREEN,LEDS_RED,LEDS_YELLOW,LEDS_VIOLET,LEDS_ORANGE};
  70              		.loc 1 20 0
  71 0004 FFF7FEFF 		bl	Init
ARM GAS  C:\Users\alex\AppData\Local\Temp\cclbkYIu.s 			page 3


  72              	.LVL1:
  21:main.c        ****     /* CyGlobalIntEnable; */ /* Uncomment this line to enable global interrupts. */
  73              		.loc 1 21 0
  74 0008 124B     		ldr	r3, .L6
  75 000a DA6E     		ldr	r2, [r3, #108]
  76 000c 0292     		str	r2, [sp, #8]
  77 000e BC22     		movs	r2, #188
  78 0010 5200     		lsls	r2, r2, #1
  79 0012 9A58     		ldr	r2, [r3, r2]
  80 0014 0392     		str	r2, [sp, #12]
  81 0016 9022     		movs	r2, #144
  82 0018 5200     		lsls	r2, r2, #1
  83 001a 9A58     		ldr	r2, [r3, r2]
  84 001c 0492     		str	r2, [sp, #16]
  85 001e 5A68     		ldr	r2, [r3, #4]
  86 0020 0592     		str	r2, [sp, #20]
  87 0022 B822     		movs	r2, #184
  88 0024 5200     		lsls	r2, r2, #1
  89 0026 9A58     		ldr	r2, [r3, r2]
  90 0028 0692     		str	r2, [sp, #24]
  91 002a 1B6D     		ldr	r3, [r3, #80]
  92 002c 0193     		str	r3, [sp, #4]
  93 002e 0793     		str	r3, [sp, #28]
  94              	.L5:
  27:main.c        ****             LED_Set(testList[i]);
  95              		.loc 1 27 0
  96 0030 0022     		movs	r2, #0
  97 0032 094B     		ldr	r3, .L6+4
  98 0034 1A70     		strb	r2, [r3]
  99 0036 08E0     		b	.L3
 100              	.L4:
  28:main.c        **** //            CyDelay(2500);
 101              		.loc 1 28 0 discriminator 3
 102 0038 9B00     		lsls	r3, r3, #2
 103 003a 02AA     		add	r2, sp, #8
 104 003c 9858     		ldr	r0, [r3, r2]
 105 003e FFF7FEFF 		bl	LED_Set
 106              	.LVL2:
  27:main.c        ****             LED_Set(testList[i]);
 107              		.loc 1 27 0 discriminator 3
 108 0042 054A     		ldr	r2, .L6+4
 109 0044 1378     		ldrb	r3, [r2]
 110 0046 0133     		adds	r3, r3, #1
 111 0048 1370     		strb	r3, [r2]
 112              	.L3:
  27:main.c        ****             LED_Set(testList[i]);
 113              		.loc 1 27 0 is_stmt 0 discriminator 1
 114 004a 034B     		ldr	r3, .L6+4
 115 004c 1B78     		ldrb	r3, [r3]
 116 004e 052B     		cmp	r3, #5
 117 0050 F2D9     		bls	.L4
 118 0052 EDE7     		b	.L5
 119              	.L7:
 120              		.align	2
 121              	.L6:
 122 0054 00000000 		.word	LEDS_CLUT
 123 0058 00000000 		.word	i
ARM GAS  C:\Users\alex\AppData\Local\Temp\cclbkYIu.s 			page 4


 124              		.cfi_endproc
 125              	.LFE36:
 126              		.size	main, .-main
 127              		.comm	i,1,1
 128              		.comm	currSet,4,4
 129              		.text
 130              	.Letext0:
 131              		.file 2 "Generated_Source\\PSoC4/cytypes.h"
 132              		.file 3 "LED.h"
 133              		.file 4 "Generated_Source\\PSoC4/Din.h"